
Digital-Humidity-Gauge.elf:     file format elf32-littlearm

Sections:
Idx Name          Size      VMA       LMA       File off  Algn
  0 .isr_vector   00000188  08000000  08000000  00001000  2**0
                  CONTENTS, ALLOC, LOAD, READONLY, DATA
  1 .text         00005a64  08000188  08000188  00001188  2**2
                  CONTENTS, ALLOC, LOAD, READONLY, CODE
  2 .rodata       000007e4  08005bec  08005bec  00006bec  2**2
                  CONTENTS, ALLOC, LOAD, READONLY, DATA
  3 .ARM.extab    00000000  080063d0  080063d0  00008004  2**0
                  CONTENTS
  4 .ARM          00000000  080063d0  080063d0  00008004  2**0
                  CONTENTS
  5 .preinit_array 00000000  080063d0  080063d0  00008004  2**0
                  CONTENTS, ALLOC, LOAD, DATA
  6 .init_array   00000004  080063d0  080063d0  000073d0  2**2
                  CONTENTS, ALLOC, LOAD, READONLY, DATA
  7 .fini_array   00000004  080063d4  080063d4  000073d4  2**2
                  CONTENTS, ALLOC, LOAD, READONLY, DATA
  8 .data         00000004  20000000  080063d8  00008000  2**2
                  CONTENTS, ALLOC, LOAD, DATA
  9 .ccmram       00000000  10000000  10000000  00008004  2**0
                  CONTENTS
 10 .bss          00000338  20000004  20000004  00008004  2**2
                  ALLOC
 11 ._user_heap_stack 00000604  2000033c  2000033c  00008004  2**0
                  ALLOC
 12 .ARM.attributes 00000030  00000000  00000000  00008004  2**0
                  CONTENTS, READONLY
 13 .debug_info   0000e3a5  00000000  00000000  00008034  2**0
                  CONTENTS, READONLY, DEBUGGING, OCTETS
 14 .debug_abbrev 000015d7  00000000  00000000  000163d9  2**0
                  CONTENTS, READONLY, DEBUGGING, OCTETS
 15 .debug_aranges 000005e0  00000000  00000000  000179b0  2**3
                  CONTENTS, READONLY, DEBUGGING, OCTETS
 16 .debug_rnglists 000004b2  00000000  00000000  00017f90  2**0
                  CONTENTS, READONLY, DEBUGGING, OCTETS
 17 .debug_macro  000013d8  00000000  00000000  00018442  2**0
                  CONTENTS, READONLY, DEBUGGING, OCTETS
 18 .debug_line   0000b53a  00000000  00000000  0001981a  2**0
                  CONTENTS, READONLY, DEBUGGING, OCTETS
 19 .debug_str    00090f6c  00000000  00000000  00024d54  2**0
                  CONTENTS, READONLY, DEBUGGING, OCTETS
 20 .comment      00000043  00000000  00000000  000b5cc0  2**0
                  CONTENTS, READONLY
 21 .debug_frame  0000187c  00000000  00000000  000b5d04  2**2
                  CONTENTS, READONLY, DEBUGGING, OCTETS
 22 .debug_line_str 00000056  00000000  00000000  000b7580  2**0
                  CONTENTS, READONLY, DEBUGGING, OCTETS

Disassembly of section .text:

08000188 <__do_global_dtors_aux>:
 8000188:	b510      	push	{r4, lr}
 800018a:	4c05      	ldr	r4, [pc, #20]	@ (80001a0 <__do_global_dtors_aux+0x18>)
 800018c:	7823      	ldrb	r3, [r4, #0]
 800018e:	b933      	cbnz	r3, 800019e <__do_global_dtors_aux+0x16>
 8000190:	4b04      	ldr	r3, [pc, #16]	@ (80001a4 <__do_global_dtors_aux+0x1c>)
 8000192:	b113      	cbz	r3, 800019a <__do_global_dtors_aux+0x12>
 8000194:	4804      	ldr	r0, [pc, #16]	@ (80001a8 <__do_global_dtors_aux+0x20>)
 8000196:	f3af 8000 	nop.w
 800019a:	2301      	movs	r3, #1
 800019c:	7023      	strb	r3, [r4, #0]
 800019e:	bd10      	pop	{r4, pc}
 80001a0:	20000004 	.word	0x20000004
 80001a4:	00000000 	.word	0x00000000
 80001a8:	08005bd4 	.word	0x08005bd4

080001ac <frame_dummy>:
 80001ac:	b508      	push	{r3, lr}
 80001ae:	4b03      	ldr	r3, [pc, #12]	@ (80001bc <frame_dummy+0x10>)
 80001b0:	b11b      	cbz	r3, 80001ba <frame_dummy+0xe>
 80001b2:	4903      	ldr	r1, [pc, #12]	@ (80001c0 <frame_dummy+0x14>)
 80001b4:	4803      	ldr	r0, [pc, #12]	@ (80001c4 <frame_dummy+0x18>)
 80001b6:	f3af 8000 	nop.w
 80001ba:	bd08      	pop	{r3, pc}
 80001bc:	00000000 	.word	0x00000000
 80001c0:	20000008 	.word	0x20000008
 80001c4:	08005bd4 	.word	0x08005bd4

080001c8 <Delay_ms>:
	while((SysTick->CTRL & 0x00010000) == 0);
	return (0UL);                                                     /* Function successful */
}

__STATIC_INLINE uint32_t Delay_ms(volatile float ms)
{
 80001c8:	b480      	push	{r7}
 80001ca:	b085      	sub	sp, #20
 80001cc:	af00      	add	r7, sp, #0
 80001ce:	ed87 0a01 	vstr	s0, [r7, #4]
	unsigned long x =0x29040 * (ms);
 80001d2:	edd7 7a01 	vldr	s15, [r7, #4]
 80001d6:	ed9f 7a11 	vldr	s14, [pc, #68]	@ 800021c <Delay_ms+0x54>
 80001da:	ee67 7a87 	vmul.f32	s15, s15, s14
 80001de:	eefc 7ae7 	vcvt.u32.f32	s15, s15
 80001e2:	ee17 3a90 	vmov	r3, s15
 80001e6:	60fb      	str	r3, [r7, #12]
	SysTick->LOAD =  x ;
 80001e8:	4a0d      	ldr	r2, [pc, #52]	@ (8000220 <Delay_ms+0x58>)
 80001ea:	68fb      	ldr	r3, [r7, #12]
 80001ec:	6053      	str	r3, [r2, #4]
	SysTick->VAL = 0;
 80001ee:	4b0c      	ldr	r3, [pc, #48]	@ (8000220 <Delay_ms+0x58>)
 80001f0:	2200      	movs	r2, #0
 80001f2:	609a      	str	r2, [r3, #8]
	SysTick->CTRL |= 1;
 80001f4:	4b0a      	ldr	r3, [pc, #40]	@ (8000220 <Delay_ms+0x58>)
 80001f6:	681b      	ldr	r3, [r3, #0]
 80001f8:	4a09      	ldr	r2, [pc, #36]	@ (8000220 <Delay_ms+0x58>)
 80001fa:	f043 0301 	orr.w	r3, r3, #1
 80001fe:	6013      	str	r3, [r2, #0]
	while((SysTick->CTRL & 0x00010000) == 0);
 8000200:	bf00      	nop
 8000202:	4b07      	ldr	r3, [pc, #28]	@ (8000220 <Delay_ms+0x58>)
 8000204:	681b      	ldr	r3, [r3, #0]
 8000206:	f403 3380 	and.w	r3, r3, #65536	@ 0x10000
 800020a:	2b00      	cmp	r3, #0
 800020c:	d0f9      	beq.n	8000202 <Delay_ms+0x3a>
	return (0UL);                                                     /* Function successful */
 800020e:	2300      	movs	r3, #0
}
 8000210:	4618      	mov	r0, r3
 8000212:	3714      	adds	r7, #20
 8000214:	46bd      	mov	sp, r7
 8000216:	f85d 7b04 	ldr.w	r7, [sp], #4
 800021a:	4770      	bx	lr
 800021c:	48241000 	.word	0x48241000
 8000220:	e000e010 	.word	0xe000e010

08000224 <Delay_milli>:


__STATIC_INLINE uint32_t Delay_milli(float ms)
{
 8000224:	b580      	push	{r7, lr}
 8000226:	b082      	sub	sp, #8
 8000228:	af00      	add	r7, sp, #0
 800022a:	ed87 0a01 	vstr	s0, [r7, #4]
	for (; ms>0; ms--)
 800022e:	e00b      	b.n	8000248 <Delay_milli+0x24>
	{
		Delay_ms(1);
 8000230:	eeb7 0a00 	vmov.f32	s0, #112	@ 0x3f800000  1.0
 8000234:	f7ff ffc8 	bl	80001c8 <Delay_ms>
	for (; ms>0; ms--)
 8000238:	edd7 7a01 	vldr	s15, [r7, #4]
 800023c:	eeb7 7a00 	vmov.f32	s14, #112	@ 0x3f800000  1.0
 8000240:	ee77 7ac7 	vsub.f32	s15, s15, s14
 8000244:	edc7 7a01 	vstr	s15, [r7, #4]
 8000248:	edd7 7a01 	vldr	s15, [r7, #4]
 800024c:	eef5 7ac0 	vcmpe.f32	s15, #0.0
 8000250:	eef1 fa10 	vmrs	APSR_nzcv, fpscr
 8000254:	dcec      	bgt.n	8000230 <Delay_milli+0xc>
	}
	return ms;
 8000256:	edd7 7a01 	vldr	s15, [r7, #4]
 800025a:	eefc 7ae7 	vcvt.u32.f32	s15, s15
 800025e:	ee17 3a90 	vmov	r3, s15
}
 8000262:	4618      	mov	r0, r3
 8000264:	3708      	adds	r7, #8
 8000266:	46bd      	mov	sp, r7
 8000268:	bd80      	pop	{r7, pc}

0800026a <GPIO_Pin_Low>:
 * @brief  Sets a specific pin low.
 * @param  Port: Pointer to GPIO port base address.
 * @param  pin: Pin number to set low (0-15).
 */
__STATIC_INLINE  void GPIO_Pin_Low(GPIO_TypeDef *Port, int pin)
{
 800026a:	b480      	push	{r7}
 800026c:	b083      	sub	sp, #12
 800026e:	af00      	add	r7, sp, #0
 8000270:	6078      	str	r0, [r7, #4]
 8000272:	6039      	str	r1, [r7, #0]
	Port -> ODR &= ~(1 << pin);
 8000274:	687b      	ldr	r3, [r7, #4]
 8000276:	695b      	ldr	r3, [r3, #20]
 8000278:	2101      	movs	r1, #1
 800027a:	683a      	ldr	r2, [r7, #0]
 800027c:	fa01 f202 	lsl.w	r2, r1, r2
 8000280:	43d2      	mvns	r2, r2
 8000282:	401a      	ands	r2, r3
 8000284:	687b      	ldr	r3, [r7, #4]
 8000286:	615a      	str	r2, [r3, #20]
}
 8000288:	bf00      	nop
 800028a:	370c      	adds	r7, #12
 800028c:	46bd      	mov	sp, r7
 800028e:	f85d 7b04 	ldr.w	r7, [sp], #4
 8000292:	4770      	bx	lr

08000294 <GPIO_Pin_High>:
 * @brief  Sets a specific pin high.
 * @param  Port: Pointer to GPIO port base address.
 * @param  pin: Pin number to set high (0-15).
 */
__STATIC_INLINE  void GPIO_Pin_High(GPIO_TypeDef *Port, int pin)
{
 8000294:	b480      	push	{r7}
 8000296:	b083      	sub	sp, #12
 8000298:	af00      	add	r7, sp, #0
 800029a:	6078      	str	r0, [r7, #4]
 800029c:	6039      	str	r1, [r7, #0]
	Port -> ODR |= 1 << pin;
 800029e:	687b      	ldr	r3, [r7, #4]
 80002a0:	695b      	ldr	r3, [r3, #20]
 80002a2:	2101      	movs	r1, #1
 80002a4:	683a      	ldr	r2, [r7, #0]
 80002a6:	fa01 f202 	lsl.w	r2, r1, r2
 80002aa:	431a      	orrs	r2, r3
 80002ac:	687b      	ldr	r3, [r7, #4]
 80002ae:	615a      	str	r2, [r3, #20]
}
 80002b0:	bf00      	nop
 80002b2:	370c      	adds	r7, #12
 80002b4:	46bd      	mov	sp, r7
 80002b6:	f85d 7b04 	ldr.w	r7, [sp], #4
 80002ba:	4770      	bx	lr

080002bc <CS_L>:
 *      Author: kunal
 */

#include "GC9A01.h"

static  void CS_L(GC9A01_Config *config) { GPIO_Pin_Low(config->cs_port, config->cs_pin); }
 80002bc:	b580      	push	{r7, lr}
 80002be:	b082      	sub	sp, #8
 80002c0:	af00      	add	r7, sp, #0
 80002c2:	6078      	str	r0, [r7, #4]
 80002c4:	687b      	ldr	r3, [r7, #4]
 80002c6:	685a      	ldr	r2, [r3, #4]
 80002c8:	687b      	ldr	r3, [r7, #4]
 80002ca:	891b      	ldrh	r3, [r3, #8]
 80002cc:	4619      	mov	r1, r3
 80002ce:	4610      	mov	r0, r2
 80002d0:	f7ff ffcb 	bl	800026a <GPIO_Pin_Low>
 80002d4:	bf00      	nop
 80002d6:	3708      	adds	r7, #8
 80002d8:	46bd      	mov	sp, r7
 80002da:	bd80      	pop	{r7, pc}

080002dc <CS_H>:
static  void CS_H(GC9A01_Config *config) { GPIO_Pin_High(config->cs_port, config->cs_pin); }
 80002dc:	b580      	push	{r7, lr}
 80002de:	b082      	sub	sp, #8
 80002e0:	af00      	add	r7, sp, #0
 80002e2:	6078      	str	r0, [r7, #4]
 80002e4:	687b      	ldr	r3, [r7, #4]
 80002e6:	685a      	ldr	r2, [r3, #4]
 80002e8:	687b      	ldr	r3, [r7, #4]
 80002ea:	891b      	ldrh	r3, [r3, #8]
 80002ec:	4619      	mov	r1, r3
 80002ee:	4610      	mov	r0, r2
 80002f0:	f7ff ffd0 	bl	8000294 <GPIO_Pin_High>
 80002f4:	bf00      	nop
 80002f6:	3708      	adds	r7, #8
 80002f8:	46bd      	mov	sp, r7
 80002fa:	bd80      	pop	{r7, pc}

080002fc <DC_C>:

static  void DC_C(GC9A01_Config *config) { GPIO_Pin_Low(config->dc_port, config->dc_pin); }
 80002fc:	b580      	push	{r7, lr}
 80002fe:	b082      	sub	sp, #8
 8000300:	af00      	add	r7, sp, #0
 8000302:	6078      	str	r0, [r7, #4]
 8000304:	687b      	ldr	r3, [r7, #4]
 8000306:	68da      	ldr	r2, [r3, #12]
 8000308:	687b      	ldr	r3, [r7, #4]
 800030a:	8a1b      	ldrh	r3, [r3, #16]
 800030c:	4619      	mov	r1, r3
 800030e:	4610      	mov	r0, r2
 8000310:	f7ff ffab 	bl	800026a <GPIO_Pin_Low>
 8000314:	bf00      	nop
 8000316:	3708      	adds	r7, #8
 8000318:	46bd      	mov	sp, r7
 800031a:	bd80      	pop	{r7, pc}

0800031c <DC_D>:
static  void DC_D(GC9A01_Config *config) { GPIO_Pin_High(config->dc_port, config->dc_pin); }
 800031c:	b580      	push	{r7, lr}
 800031e:	b082      	sub	sp, #8
 8000320:	af00      	add	r7, sp, #0
 8000322:	6078      	str	r0, [r7, #4]
 8000324:	687b      	ldr	r3, [r7, #4]
 8000326:	68da      	ldr	r2, [r3, #12]
 8000328:	687b      	ldr	r3, [r7, #4]
 800032a:	8a1b      	ldrh	r3, [r3, #16]
 800032c:	4619      	mov	r1, r3
 800032e:	4610      	mov	r0, r2
 8000330:	f7ff ffb0 	bl	8000294 <GPIO_Pin_High>
 8000334:	bf00      	nop
 8000336:	3708      	adds	r7, #8
 8000338:	46bd      	mov	sp, r7
 800033a:	bd80      	pop	{r7, pc}

0800033c <RST_L>:

static  void RST_L(GC9A01_Config *config) { GPIO_Pin_Low(config->rst_port, config->rst_pin); }
 800033c:	b580      	push	{r7, lr}
 800033e:	b082      	sub	sp, #8
 8000340:	af00      	add	r7, sp, #0
 8000342:	6078      	str	r0, [r7, #4]
 8000344:	687b      	ldr	r3, [r7, #4]
 8000346:	695a      	ldr	r2, [r3, #20]
 8000348:	687b      	ldr	r3, [r7, #4]
 800034a:	8b1b      	ldrh	r3, [r3, #24]
 800034c:	4619      	mov	r1, r3
 800034e:	4610      	mov	r0, r2
 8000350:	f7ff ff8b 	bl	800026a <GPIO_Pin_Low>
 8000354:	bf00      	nop
 8000356:	3708      	adds	r7, #8
 8000358:	46bd      	mov	sp, r7
 800035a:	bd80      	pop	{r7, pc}

0800035c <RST_H>:
static  void RST_H(GC9A01_Config *config) { GPIO_Pin_High(config->rst_port, config->rst_pin); }
 800035c:	b580      	push	{r7, lr}
 800035e:	b082      	sub	sp, #8
 8000360:	af00      	add	r7, sp, #0
 8000362:	6078      	str	r0, [r7, #4]
 8000364:	687b      	ldr	r3, [r7, #4]
 8000366:	695a      	ldr	r2, [r3, #20]
 8000368:	687b      	ldr	r3, [r7, #4]
 800036a:	8b1b      	ldrh	r3, [r3, #24]
 800036c:	4619      	mov	r1, r3
 800036e:	4610      	mov	r0, r2
 8000370:	f7ff ff90 	bl	8000294 <GPIO_Pin_High>
 8000374:	bf00      	nop
 8000376:	3708      	adds	r7, #8
 8000378:	46bd      	mov	sp, r7
 800037a:	bd80      	pop	{r7, pc}

0800037c <write_command>:


static void write_command(GC9A01_Config *config, uint8_t cmd)
{
 800037c:	b580      	push	{r7, lr}
 800037e:	b082      	sub	sp, #8
 8000380:	af00      	add	r7, sp, #0
 8000382:	6078      	str	r0, [r7, #4]
 8000384:	460b      	mov	r3, r1
 8000386:	70fb      	strb	r3, [r7, #3]
	DC_C(config);
 8000388:	6878      	ldr	r0, [r7, #4]
 800038a:	f7ff ffb7 	bl	80002fc <DC_C>
	CS_L(config);
 800038e:	6878      	ldr	r0, [r7, #4]
 8000390:	f7ff ff94 	bl	80002bc <CS_L>
	CS_L(config);
 8000394:	6878      	ldr	r0, [r7, #4]
 8000396:	f7ff ff91 	bl	80002bc <CS_L>
	SPI_TRX_Byte(config->SPI_Port, cmd);
 800039a:	687b      	ldr	r3, [r7, #4]
 800039c:	681b      	ldr	r3, [r3, #0]
 800039e:	78fa      	ldrb	r2, [r7, #3]
 80003a0:	b292      	uxth	r2, r2
 80003a2:	4611      	mov	r1, r2
 80003a4:	4618      	mov	r0, r3
 80003a6:	f003 fdaf 	bl	8003f08 <SPI_TRX_Byte>
	CS_H(config);
 80003aa:	6878      	ldr	r0, [r7, #4]
 80003ac:	f7ff ff96 	bl	80002dc <CS_H>
}
 80003b0:	bf00      	nop
 80003b2:	3708      	adds	r7, #8
 80003b4:	46bd      	mov	sp, r7
 80003b6:	bd80      	pop	{r7, pc}

080003b8 <write_data>:

static void write_data(GC9A01_Config *config, uint8_t *data, size_t len)
{
 80003b8:	b580      	push	{r7, lr}
 80003ba:	b086      	sub	sp, #24
 80003bc:	af00      	add	r7, sp, #0
 80003be:	60f8      	str	r0, [r7, #12]
 80003c0:	60b9      	str	r1, [r7, #8]
 80003c2:	607a      	str	r2, [r7, #4]
	DC_D(config);
 80003c4:	68f8      	ldr	r0, [r7, #12]
 80003c6:	f7ff ffa9 	bl	800031c <DC_D>
	CS_L(config);
 80003ca:	68f8      	ldr	r0, [r7, #12]
 80003cc:	f7ff ff76 	bl	80002bc <CS_L>
	for(int i = 0; i < len; i++) SPI_TRX_Byte(config->SPI_Port, *data++);
 80003d0:	2300      	movs	r3, #0
 80003d2:	617b      	str	r3, [r7, #20]
 80003d4:	e00b      	b.n	80003ee <write_data+0x36>
 80003d6:	68fb      	ldr	r3, [r7, #12]
 80003d8:	6818      	ldr	r0, [r3, #0]
 80003da:	68bb      	ldr	r3, [r7, #8]
 80003dc:	1c5a      	adds	r2, r3, #1
 80003de:	60ba      	str	r2, [r7, #8]
 80003e0:	781b      	ldrb	r3, [r3, #0]
 80003e2:	4619      	mov	r1, r3
 80003e4:	f003 fd90 	bl	8003f08 <SPI_TRX_Byte>
 80003e8:	697b      	ldr	r3, [r7, #20]
 80003ea:	3301      	adds	r3, #1
 80003ec:	617b      	str	r3, [r7, #20]
 80003ee:	697b      	ldr	r3, [r7, #20]
 80003f0:	687a      	ldr	r2, [r7, #4]
 80003f2:	429a      	cmp	r2, r3
 80003f4:	d8ef      	bhi.n	80003d6 <write_data+0x1e>
	CS_H(config);
 80003f6:	68f8      	ldr	r0, [r7, #12]
 80003f8:	f7ff ff70 	bl	80002dc <CS_H>
}
 80003fc:	bf00      	nop
 80003fe:	3718      	adds	r7, #24
 8000400:	46bd      	mov	sp, r7
 8000402:	bd80      	pop	{r7, pc}

08000404 <GC9A01_write_byte>:

static inline void GC9A01_write_byte(GC9A01_Config *config,uint8_t val) {
 8000404:	b580      	push	{r7, lr}
 8000406:	b082      	sub	sp, #8
 8000408:	af00      	add	r7, sp, #0
 800040a:	6078      	str	r0, [r7, #4]
 800040c:	460b      	mov	r3, r1
 800040e:	70fb      	strb	r3, [r7, #3]
	write_data(config,&val, sizeof(val));
 8000410:	1cfb      	adds	r3, r7, #3
 8000412:	2201      	movs	r2, #1
 8000414:	4619      	mov	r1, r3
 8000416:	6878      	ldr	r0, [r7, #4]
 8000418:	f7ff ffce 	bl	80003b8 <write_data>
}
 800041c:	bf00      	nop
 800041e:	3708      	adds	r7, #8
 8000420:	46bd      	mov	sp, r7
 8000422:	bd80      	pop	{r7, pc}

08000424 <GC9A01_Write_Data>:


static void GC9A01_Write_Data(GC9A01_Config *config, uint8_t *data, uint32_t len)
{
 8000424:	b580      	push	{r7, lr}
 8000426:	b084      	sub	sp, #16
 8000428:	af00      	add	r7, sp, #0
 800042a:	60f8      	str	r0, [r7, #12]
 800042c:	60b9      	str	r1, [r7, #8]
 800042e:	607a      	str	r2, [r7, #4]
	DC_D(config);
 8000430:	68f8      	ldr	r0, [r7, #12]
 8000432:	f7ff ff73 	bl	800031c <DC_D>
	CS_L(config);
 8000436:	68f8      	ldr	r0, [r7, #12]
 8000438:	f7ff ff40 	bl	80002bc <CS_L>

	while(len--)
 800043c:	e008      	b.n	8000450 <GC9A01_Write_Data+0x2c>
	{
		SPI_TRX_Byte(config->SPI_Port, *data++);
 800043e:	68fb      	ldr	r3, [r7, #12]
 8000440:	6818      	ldr	r0, [r3, #0]
 8000442:	68bb      	ldr	r3, [r7, #8]
 8000444:	1c5a      	adds	r2, r3, #1
 8000446:	60ba      	str	r2, [r7, #8]
 8000448:	781b      	ldrb	r3, [r3, #0]
 800044a:	4619      	mov	r1, r3
 800044c:	f003 fd5c 	bl	8003f08 <SPI_TRX_Byte>
	while(len--)
 8000450:	687b      	ldr	r3, [r7, #4]
 8000452:	1e5a      	subs	r2, r3, #1
 8000454:	607a      	str	r2, [r7, #4]
 8000456:	2b00      	cmp	r3, #0
 8000458:	d1f1      	bne.n	800043e <GC9A01_Write_Data+0x1a>
	}
	CS_H(config);
 800045a:	68f8      	ldr	r0, [r7, #12]
 800045c:	f7ff ff3e 	bl	80002dc <CS_H>
}
 8000460:	bf00      	nop
 8000462:	3710      	adds	r7, #16
 8000464:	46bd      	mov	sp, r7
 8000466:	bd80      	pop	{r7, pc}

08000468 <GC9A01_Drite_Data16_Repeat>:

static void GC9A01_Drite_Data16_Repeat(GC9A01_Config *config, uint16_t color, uint32_t count)
{
 8000468:	b580      	push	{r7, lr}
 800046a:	b084      	sub	sp, #16
 800046c:	af00      	add	r7, sp, #0
 800046e:	60f8      	str	r0, [r7, #12]
 8000470:	460b      	mov	r3, r1
 8000472:	607a      	str	r2, [r7, #4]
 8000474:	817b      	strh	r3, [r7, #10]
	DC_D(config);
 8000476:	68f8      	ldr	r0, [r7, #12]
 8000478:	f7ff ff50 	bl	800031c <DC_D>
	CS_L(config);
 800047c:	68f8      	ldr	r0, [r7, #12]
 800047e:	f7ff ff1d 	bl	80002bc <CS_L>

	while(count--) {
 8000482:	e011      	b.n	80004a8 <GC9A01_Drite_Data16_Repeat+0x40>
		SPI_TRX_Byte(config->SPI_Port, color >> 8);
 8000484:	68fb      	ldr	r3, [r7, #12]
 8000486:	681a      	ldr	r2, [r3, #0]
 8000488:	897b      	ldrh	r3, [r7, #10]
 800048a:	0a1b      	lsrs	r3, r3, #8
 800048c:	b29b      	uxth	r3, r3
 800048e:	4619      	mov	r1, r3
 8000490:	4610      	mov	r0, r2
 8000492:	f003 fd39 	bl	8003f08 <SPI_TRX_Byte>
		SPI_TRX_Byte(config->SPI_Port, color & 0xFF);
 8000496:	68fb      	ldr	r3, [r7, #12]
 8000498:	681b      	ldr	r3, [r3, #0]
 800049a:	897a      	ldrh	r2, [r7, #10]
 800049c:	b2d2      	uxtb	r2, r2
 800049e:	b292      	uxth	r2, r2
 80004a0:	4611      	mov	r1, r2
 80004a2:	4618      	mov	r0, r3
 80004a4:	f003 fd30 	bl	8003f08 <SPI_TRX_Byte>
	while(count--) {
 80004a8:	687b      	ldr	r3, [r7, #4]
 80004aa:	1e5a      	subs	r2, r3, #1
 80004ac:	607a      	str	r2, [r7, #4]
 80004ae:	2b00      	cmp	r3, #0
 80004b0:	d1e8      	bne.n	8000484 <GC9A01_Drite_Data16_Repeat+0x1c>
	}
	CS_H(config);
 80004b2:	68f8      	ldr	r0, [r7, #12]
 80004b4:	f7ff ff12 	bl	80002dc <CS_H>
}
 80004b8:	bf00      	nop
 80004ba:	3710      	adds	r7, #16
 80004bc:	46bd      	mov	sp, r7
 80004be:	bd80      	pop	{r7, pc}

080004c0 <GC9A01_DrawPixelSafe>:

static inline void GC9A01_DrawPixelSafe(GC9A01_Config *cfg,
                                        int16_t x, int16_t y,
                                        uint16_t color)
{
 80004c0:	b580      	push	{r7, lr}
 80004c2:	b084      	sub	sp, #16
 80004c4:	af00      	add	r7, sp, #0
 80004c6:	60f8      	str	r0, [r7, #12]
 80004c8:	4608      	mov	r0, r1
 80004ca:	4611      	mov	r1, r2
 80004cc:	461a      	mov	r2, r3
 80004ce:	4603      	mov	r3, r0
 80004d0:	817b      	strh	r3, [r7, #10]
 80004d2:	460b      	mov	r3, r1
 80004d4:	813b      	strh	r3, [r7, #8]
 80004d6:	4613      	mov	r3, r2
 80004d8:	80fb      	strh	r3, [r7, #6]
    if ((uint16_t)x < GC9A01_WIDTH &&     /* same as 0 ≤ x < width  */
 80004da:	897b      	ldrh	r3, [r7, #10]
 80004dc:	2bef      	cmp	r3, #239	@ 0xef
 80004de:	d808      	bhi.n	80004f2 <GC9A01_DrawPixelSafe+0x32>
        (uint16_t)y < GC9A01_HEIGHT)      /*      0 ≤ y < height   */
 80004e0:	893b      	ldrh	r3, [r7, #8]
    if ((uint16_t)x < GC9A01_WIDTH &&     /* same as 0 ≤ x < width  */
 80004e2:	2bef      	cmp	r3, #239	@ 0xef
 80004e4:	d805      	bhi.n	80004f2 <GC9A01_DrawPixelSafe+0x32>
    {
        GC9A01_DrawPixel(cfg, (uint16_t)x, (uint16_t)y, color);
 80004e6:	8979      	ldrh	r1, [r7, #10]
 80004e8:	893a      	ldrh	r2, [r7, #8]
 80004ea:	88fb      	ldrh	r3, [r7, #6]
 80004ec:	68f8      	ldr	r0, [r7, #12]
 80004ee:	f000 fbb5 	bl	8000c5c <GC9A01_DrawPixel>
    }
}
 80004f2:	bf00      	nop
 80004f4:	3710      	adds	r7, #16
 80004f6:	46bd      	mov	sp, r7
 80004f8:	bd80      	pop	{r7, pc}
	...

080004fc <GC9A01_Init>:

/** Initialise GPIO, reset display, execute vendor init sequence */
void GC9A01_Init(GC9A01_Config *config)
{
 80004fc:	b5f0      	push	{r4, r5, r6, r7, lr}
 80004fe:	b087      	sub	sp, #28
 8000500:	af04      	add	r7, sp, #16
 8000502:	6078      	str	r0, [r7, #4]
	GPIO_Pin_Init(config->cs_port, config->cs_pin, GPIO_Configuration.Mode.General_Purpose_Output, GPIO_Configuration.Output_Type.Push_Pull, GPIO_Configuration.Speed.Very_High_Speed, GPIO_Configuration.Pull.Pull_Up, GPIO_Configuration.Alternate_Functions.None);
 8000504:	687b      	ldr	r3, [r7, #4]
 8000506:	6858      	ldr	r0, [r3, #4]
 8000508:	687b      	ldr	r3, [r7, #4]
 800050a:	891b      	ldrh	r3, [r3, #8]
 800050c:	b2d9      	uxtb	r1, r3
 800050e:	2501      	movs	r5, #1
 8000510:	2600      	movs	r6, #0
 8000512:	2303      	movs	r3, #3
 8000514:	2201      	movs	r2, #1
 8000516:	2400      	movs	r4, #0
 8000518:	9402      	str	r4, [sp, #8]
 800051a:	9201      	str	r2, [sp, #4]
 800051c:	9300      	str	r3, [sp, #0]
 800051e:	4633      	mov	r3, r6
 8000520:	462a      	mov	r2, r5
 8000522:	f002 fc6d 	bl	8002e00 <GPIO_Pin_Init>

	GPIO_Pin_Init(config->rst_port, config->rst_pin, GPIO_Configuration.Mode.General_Purpose_Output, GPIO_Configuration.Output_Type.Push_Pull, GPIO_Configuration.Speed.Very_High_Speed, GPIO_Configuration.Pull.Pull_Up, GPIO_Configuration.Alternate_Functions.None);
 8000526:	687b      	ldr	r3, [r7, #4]
 8000528:	6958      	ldr	r0, [r3, #20]
 800052a:	687b      	ldr	r3, [r7, #4]
 800052c:	8b1b      	ldrh	r3, [r3, #24]
 800052e:	b2d9      	uxtb	r1, r3
 8000530:	2501      	movs	r5, #1
 8000532:	2600      	movs	r6, #0
 8000534:	2303      	movs	r3, #3
 8000536:	2201      	movs	r2, #1
 8000538:	2400      	movs	r4, #0
 800053a:	9402      	str	r4, [sp, #8]
 800053c:	9201      	str	r2, [sp, #4]
 800053e:	9300      	str	r3, [sp, #0]
 8000540:	4633      	mov	r3, r6
 8000542:	462a      	mov	r2, r5
 8000544:	f002 fc5c 	bl	8002e00 <GPIO_Pin_Init>

	GPIO_Pin_Init(config->dc_port, config->dc_pin, GPIO_Configuration.Mode.General_Purpose_Output, GPIO_Configuration.Output_Type.Push_Pull, GPIO_Configuration.Speed.Very_High_Speed, GPIO_Configuration.Pull.Pull_Up, GPIO_Configuration.Alternate_Functions.None);
 8000548:	687b      	ldr	r3, [r7, #4]
 800054a:	68d8      	ldr	r0, [r3, #12]
 800054c:	687b      	ldr	r3, [r7, #4]
 800054e:	8a1b      	ldrh	r3, [r3, #16]
 8000550:	b2d9      	uxtb	r1, r3
 8000552:	2501      	movs	r5, #1
 8000554:	2600      	movs	r6, #0
 8000556:	2303      	movs	r3, #3
 8000558:	2201      	movs	r2, #1
 800055a:	2400      	movs	r4, #0
 800055c:	9402      	str	r4, [sp, #8]
 800055e:	9201      	str	r2, [sp, #4]
 8000560:	9300      	str	r3, [sp, #0]
 8000562:	4633      	mov	r3, r6
 8000564:	462a      	mov	r2, r5
 8000566:	f002 fc4b 	bl	8002e00 <GPIO_Pin_Init>

	CS_H(config);
 800056a:	6878      	ldr	r0, [r7, #4]
 800056c:	f7ff feb6 	bl	80002dc <CS_H>


	SPI_Init(config->SPI_Port);
 8000570:	687b      	ldr	r3, [r7, #4]
 8000572:	681b      	ldr	r3, [r3, #0]
 8000574:	4618      	mov	r0, r3
 8000576:	f003 faa3 	bl	8003ac0 <SPI_Init>
	SPI_Enable(config->SPI_Port);
 800057a:	687b      	ldr	r3, [r7, #4]
 800057c:	681b      	ldr	r3, [r3, #0]
 800057e:	4618      	mov	r0, r3
 8000580:	f003 fcb0 	bl	8003ee4 <SPI_Enable>


	CS_H(config);
 8000584:	6878      	ldr	r0, [r7, #4]
 8000586:	f7ff fea9 	bl	80002dc <CS_H>
	Delay_milli(150);
 800058a:	ed9f 0acc 	vldr	s0, [pc, #816]	@ 80008bc <GC9A01_Init+0x3c0>
 800058e:	f7ff fe49 	bl	8000224 <Delay_milli>
	RST_L(config);
 8000592:	6878      	ldr	r0, [r7, #4]
 8000594:	f7ff fed2 	bl	800033c <RST_L>
	Delay_milli(150);
 8000598:	ed9f 0ac8 	vldr	s0, [pc, #800]	@ 80008bc <GC9A01_Init+0x3c0>
 800059c:	f7ff fe42 	bl	8000224 <Delay_milli>
	RST_H(config);
 80005a0:	6878      	ldr	r0, [r7, #4]
 80005a2:	f7ff fedb 	bl	800035c <RST_H>
	Delay_milli(150);
 80005a6:	ed9f 0ac5 	vldr	s0, [pc, #788]	@ 80008bc <GC9A01_Init+0x3c0>
 80005aa:	f7ff fe3b 	bl	8000224 <Delay_milli>

	write_command(config,0xEF);
 80005ae:	21ef      	movs	r1, #239	@ 0xef
 80005b0:	6878      	ldr	r0, [r7, #4]
 80005b2:	f7ff fee3 	bl	800037c <write_command>

	write_command(config,0xEB);
 80005b6:	21eb      	movs	r1, #235	@ 0xeb
 80005b8:	6878      	ldr	r0, [r7, #4]
 80005ba:	f7ff fedf 	bl	800037c <write_command>
	GC9A01_write_byte(config,0x14);
 80005be:	2114      	movs	r1, #20
 80005c0:	6878      	ldr	r0, [r7, #4]
 80005c2:	f7ff ff1f 	bl	8000404 <GC9A01_write_byte>

	write_command(config,0xFE);
 80005c6:	21fe      	movs	r1, #254	@ 0xfe
 80005c8:	6878      	ldr	r0, [r7, #4]
 80005ca:	f7ff fed7 	bl	800037c <write_command>
	write_command(config,0xEF);
 80005ce:	21ef      	movs	r1, #239	@ 0xef
 80005d0:	6878      	ldr	r0, [r7, #4]
 80005d2:	f7ff fed3 	bl	800037c <write_command>

	write_command(config,0xEB);
 80005d6:	21eb      	movs	r1, #235	@ 0xeb
 80005d8:	6878      	ldr	r0, [r7, #4]
 80005da:	f7ff fecf 	bl	800037c <write_command>
	GC9A01_write_byte(config,0x14);
 80005de:	2114      	movs	r1, #20
 80005e0:	6878      	ldr	r0, [r7, #4]
 80005e2:	f7ff ff0f 	bl	8000404 <GC9A01_write_byte>

	write_command(config,0x84);
 80005e6:	2184      	movs	r1, #132	@ 0x84
 80005e8:	6878      	ldr	r0, [r7, #4]
 80005ea:	f7ff fec7 	bl	800037c <write_command>
	GC9A01_write_byte(config,0x40);
 80005ee:	2140      	movs	r1, #64	@ 0x40
 80005f0:	6878      	ldr	r0, [r7, #4]
 80005f2:	f7ff ff07 	bl	8000404 <GC9A01_write_byte>

	write_command(config,0x85);
 80005f6:	2185      	movs	r1, #133	@ 0x85
 80005f8:	6878      	ldr	r0, [r7, #4]
 80005fa:	f7ff febf 	bl	800037c <write_command>
	GC9A01_write_byte(config,0xFF);
 80005fe:	21ff      	movs	r1, #255	@ 0xff
 8000600:	6878      	ldr	r0, [r7, #4]
 8000602:	f7ff feff 	bl	8000404 <GC9A01_write_byte>

	write_command(config,0x86);
 8000606:	2186      	movs	r1, #134	@ 0x86
 8000608:	6878      	ldr	r0, [r7, #4]
 800060a:	f7ff feb7 	bl	800037c <write_command>
	GC9A01_write_byte(config,0xFF);
 800060e:	21ff      	movs	r1, #255	@ 0xff
 8000610:	6878      	ldr	r0, [r7, #4]
 8000612:	f7ff fef7 	bl	8000404 <GC9A01_write_byte>

	write_command(config,0x87);
 8000616:	2187      	movs	r1, #135	@ 0x87
 8000618:	6878      	ldr	r0, [r7, #4]
 800061a:	f7ff feaf 	bl	800037c <write_command>
	GC9A01_write_byte(config,0xFF);
 800061e:	21ff      	movs	r1, #255	@ 0xff
 8000620:	6878      	ldr	r0, [r7, #4]
 8000622:	f7ff feef 	bl	8000404 <GC9A01_write_byte>

	write_command(config,0x88);
 8000626:	2188      	movs	r1, #136	@ 0x88
 8000628:	6878      	ldr	r0, [r7, #4]
 800062a:	f7ff fea7 	bl	800037c <write_command>
	GC9A01_write_byte(config,0x0A);
 800062e:	210a      	movs	r1, #10
 8000630:	6878      	ldr	r0, [r7, #4]
 8000632:	f7ff fee7 	bl	8000404 <GC9A01_write_byte>

	write_command(config,0x89);
 8000636:	2189      	movs	r1, #137	@ 0x89
 8000638:	6878      	ldr	r0, [r7, #4]
 800063a:	f7ff fe9f 	bl	800037c <write_command>
	GC9A01_write_byte(config,0x21);
 800063e:	2121      	movs	r1, #33	@ 0x21
 8000640:	6878      	ldr	r0, [r7, #4]
 8000642:	f7ff fedf 	bl	8000404 <GC9A01_write_byte>

	write_command(config,0x8A);
 8000646:	218a      	movs	r1, #138	@ 0x8a
 8000648:	6878      	ldr	r0, [r7, #4]
 800064a:	f7ff fe97 	bl	800037c <write_command>
	GC9A01_write_byte(config,0x00);
 800064e:	2100      	movs	r1, #0
 8000650:	6878      	ldr	r0, [r7, #4]
 8000652:	f7ff fed7 	bl	8000404 <GC9A01_write_byte>

	write_command(config,0x8B);
 8000656:	218b      	movs	r1, #139	@ 0x8b
 8000658:	6878      	ldr	r0, [r7, #4]
 800065a:	f7ff fe8f 	bl	800037c <write_command>
	GC9A01_write_byte(config,0x80);
 800065e:	2180      	movs	r1, #128	@ 0x80
 8000660:	6878      	ldr	r0, [r7, #4]
 8000662:	f7ff fecf 	bl	8000404 <GC9A01_write_byte>

	write_command(config,0x8C);
 8000666:	218c      	movs	r1, #140	@ 0x8c
 8000668:	6878      	ldr	r0, [r7, #4]
 800066a:	f7ff fe87 	bl	800037c <write_command>
	GC9A01_write_byte(config,0x01);
 800066e:	2101      	movs	r1, #1
 8000670:	6878      	ldr	r0, [r7, #4]
 8000672:	f7ff fec7 	bl	8000404 <GC9A01_write_byte>

	write_command(config,0x8D);
 8000676:	218d      	movs	r1, #141	@ 0x8d
 8000678:	6878      	ldr	r0, [r7, #4]
 800067a:	f7ff fe7f 	bl	800037c <write_command>
	GC9A01_write_byte(config,0x01);
 800067e:	2101      	movs	r1, #1
 8000680:	6878      	ldr	r0, [r7, #4]
 8000682:	f7ff febf 	bl	8000404 <GC9A01_write_byte>

	write_command(config,0x8E);
 8000686:	218e      	movs	r1, #142	@ 0x8e
 8000688:	6878      	ldr	r0, [r7, #4]
 800068a:	f7ff fe77 	bl	800037c <write_command>
	GC9A01_write_byte(config,0xFF);
 800068e:	21ff      	movs	r1, #255	@ 0xff
 8000690:	6878      	ldr	r0, [r7, #4]
 8000692:	f7ff feb7 	bl	8000404 <GC9A01_write_byte>

	write_command(config,0x8F);
 8000696:	218f      	movs	r1, #143	@ 0x8f
 8000698:	6878      	ldr	r0, [r7, #4]
 800069a:	f7ff fe6f 	bl	800037c <write_command>
	GC9A01_write_byte(config,0xFF);
 800069e:	21ff      	movs	r1, #255	@ 0xff
 80006a0:	6878      	ldr	r0, [r7, #4]
 80006a2:	f7ff feaf 	bl	8000404 <GC9A01_write_byte>


	write_command(config,0xB6);
 80006a6:	21b6      	movs	r1, #182	@ 0xb6
 80006a8:	6878      	ldr	r0, [r7, #4]
 80006aa:	f7ff fe67 	bl	800037c <write_command>
	GC9A01_write_byte(config,0x00);
 80006ae:	2100      	movs	r1, #0
 80006b0:	6878      	ldr	r0, [r7, #4]
 80006b2:	f7ff fea7 	bl	8000404 <GC9A01_write_byte>
	GC9A01_write_byte(config,0x00);
 80006b6:	2100      	movs	r1, #0
 80006b8:	6878      	ldr	r0, [r7, #4]
 80006ba:	f7ff fea3 	bl	8000404 <GC9A01_write_byte>

	write_command(config,0x36);
 80006be:	2136      	movs	r1, #54	@ 0x36
 80006c0:	6878      	ldr	r0, [r7, #4]
 80006c2:	f7ff fe5b 	bl	800037c <write_command>

	GC9A01_write_byte(config,0x18);
 80006c6:	2118      	movs	r1, #24
 80006c8:	6878      	ldr	r0, [r7, #4]
 80006ca:	f7ff fe9b 	bl	8000404 <GC9A01_write_byte>

	write_command(config,0x3A);
 80006ce:	213a      	movs	r1, #58	@ 0x3a
 80006d0:	6878      	ldr	r0, [r7, #4]
 80006d2:	f7ff fe53 	bl	800037c <write_command>
	GC9A01_write_byte(config,0x05);
 80006d6:	2105      	movs	r1, #5
 80006d8:	6878      	ldr	r0, [r7, #4]
 80006da:	f7ff fe93 	bl	8000404 <GC9A01_write_byte>

	write_command(config,0x90);
 80006de:	2190      	movs	r1, #144	@ 0x90
 80006e0:	6878      	ldr	r0, [r7, #4]
 80006e2:	f7ff fe4b 	bl	800037c <write_command>
	GC9A01_write_byte(config,0x08);
 80006e6:	2108      	movs	r1, #8
 80006e8:	6878      	ldr	r0, [r7, #4]
 80006ea:	f7ff fe8b 	bl	8000404 <GC9A01_write_byte>
	GC9A01_write_byte(config,0x08);
 80006ee:	2108      	movs	r1, #8
 80006f0:	6878      	ldr	r0, [r7, #4]
 80006f2:	f7ff fe87 	bl	8000404 <GC9A01_write_byte>
	GC9A01_write_byte(config,0x08);
 80006f6:	2108      	movs	r1, #8
 80006f8:	6878      	ldr	r0, [r7, #4]
 80006fa:	f7ff fe83 	bl	8000404 <GC9A01_write_byte>
	GC9A01_write_byte(config,0x08);
 80006fe:	2108      	movs	r1, #8
 8000700:	6878      	ldr	r0, [r7, #4]
 8000702:	f7ff fe7f 	bl	8000404 <GC9A01_write_byte>

	write_command(config,0xBD);
 8000706:	21bd      	movs	r1, #189	@ 0xbd
 8000708:	6878      	ldr	r0, [r7, #4]
 800070a:	f7ff fe37 	bl	800037c <write_command>
	GC9A01_write_byte(config,0x06);
 800070e:	2106      	movs	r1, #6
 8000710:	6878      	ldr	r0, [r7, #4]
 8000712:	f7ff fe77 	bl	8000404 <GC9A01_write_byte>

	write_command(config,0xBC);
 8000716:	21bc      	movs	r1, #188	@ 0xbc
 8000718:	6878      	ldr	r0, [r7, #4]
 800071a:	f7ff fe2f 	bl	800037c <write_command>
	GC9A01_write_byte(config,0x00);
 800071e:	2100      	movs	r1, #0
 8000720:	6878      	ldr	r0, [r7, #4]
 8000722:	f7ff fe6f 	bl	8000404 <GC9A01_write_byte>

	write_command(config,0xFF);
 8000726:	21ff      	movs	r1, #255	@ 0xff
 8000728:	6878      	ldr	r0, [r7, #4]
 800072a:	f7ff fe27 	bl	800037c <write_command>
	GC9A01_write_byte(config,0x60);
 800072e:	2160      	movs	r1, #96	@ 0x60
 8000730:	6878      	ldr	r0, [r7, #4]
 8000732:	f7ff fe67 	bl	8000404 <GC9A01_write_byte>
	GC9A01_write_byte(config,0x01);
 8000736:	2101      	movs	r1, #1
 8000738:	6878      	ldr	r0, [r7, #4]
 800073a:	f7ff fe63 	bl	8000404 <GC9A01_write_byte>
	GC9A01_write_byte(config,0x04);
 800073e:	2104      	movs	r1, #4
 8000740:	6878      	ldr	r0, [r7, #4]
 8000742:	f7ff fe5f 	bl	8000404 <GC9A01_write_byte>

	write_command(config,0xC3);
 8000746:	21c3      	movs	r1, #195	@ 0xc3
 8000748:	6878      	ldr	r0, [r7, #4]
 800074a:	f7ff fe17 	bl	800037c <write_command>
	GC9A01_write_byte(config,0x13);
 800074e:	2113      	movs	r1, #19
 8000750:	6878      	ldr	r0, [r7, #4]
 8000752:	f7ff fe57 	bl	8000404 <GC9A01_write_byte>
	write_command(config,0xC4);
 8000756:	21c4      	movs	r1, #196	@ 0xc4
 8000758:	6878      	ldr	r0, [r7, #4]
 800075a:	f7ff fe0f 	bl	800037c <write_command>
	GC9A01_write_byte(config,0x13);
 800075e:	2113      	movs	r1, #19
 8000760:	6878      	ldr	r0, [r7, #4]
 8000762:	f7ff fe4f 	bl	8000404 <GC9A01_write_byte>

	write_command(config,0xC9);
 8000766:	21c9      	movs	r1, #201	@ 0xc9
 8000768:	6878      	ldr	r0, [r7, #4]
 800076a:	f7ff fe07 	bl	800037c <write_command>
	GC9A01_write_byte(config,0x22);
 800076e:	2122      	movs	r1, #34	@ 0x22
 8000770:	6878      	ldr	r0, [r7, #4]
 8000772:	f7ff fe47 	bl	8000404 <GC9A01_write_byte>

	write_command(config,0xBE);
 8000776:	21be      	movs	r1, #190	@ 0xbe
 8000778:	6878      	ldr	r0, [r7, #4]
 800077a:	f7ff fdff 	bl	800037c <write_command>
	GC9A01_write_byte(config,0x11);
 800077e:	2111      	movs	r1, #17
 8000780:	6878      	ldr	r0, [r7, #4]
 8000782:	f7ff fe3f 	bl	8000404 <GC9A01_write_byte>

	write_command(config,0xE1);
 8000786:	21e1      	movs	r1, #225	@ 0xe1
 8000788:	6878      	ldr	r0, [r7, #4]
 800078a:	f7ff fdf7 	bl	800037c <write_command>
	GC9A01_write_byte(config,0x10);
 800078e:	2110      	movs	r1, #16
 8000790:	6878      	ldr	r0, [r7, #4]
 8000792:	f7ff fe37 	bl	8000404 <GC9A01_write_byte>
	GC9A01_write_byte(config,0x0E);
 8000796:	210e      	movs	r1, #14
 8000798:	6878      	ldr	r0, [r7, #4]
 800079a:	f7ff fe33 	bl	8000404 <GC9A01_write_byte>

	write_command(config,0xDF);
 800079e:	21df      	movs	r1, #223	@ 0xdf
 80007a0:	6878      	ldr	r0, [r7, #4]
 80007a2:	f7ff fdeb 	bl	800037c <write_command>
	GC9A01_write_byte(config,0x21);
 80007a6:	2121      	movs	r1, #33	@ 0x21
 80007a8:	6878      	ldr	r0, [r7, #4]
 80007aa:	f7ff fe2b 	bl	8000404 <GC9A01_write_byte>
	GC9A01_write_byte(config,0x0c);
 80007ae:	210c      	movs	r1, #12
 80007b0:	6878      	ldr	r0, [r7, #4]
 80007b2:	f7ff fe27 	bl	8000404 <GC9A01_write_byte>
	GC9A01_write_byte(config,0x02);
 80007b6:	2102      	movs	r1, #2
 80007b8:	6878      	ldr	r0, [r7, #4]
 80007ba:	f7ff fe23 	bl	8000404 <GC9A01_write_byte>

	write_command(config,0xF0);
 80007be:	21f0      	movs	r1, #240	@ 0xf0
 80007c0:	6878      	ldr	r0, [r7, #4]
 80007c2:	f7ff fddb 	bl	800037c <write_command>
	GC9A01_write_byte(config,0x45);
 80007c6:	2145      	movs	r1, #69	@ 0x45
 80007c8:	6878      	ldr	r0, [r7, #4]
 80007ca:	f7ff fe1b 	bl	8000404 <GC9A01_write_byte>
	GC9A01_write_byte(config,0x09);
 80007ce:	2109      	movs	r1, #9
 80007d0:	6878      	ldr	r0, [r7, #4]
 80007d2:	f7ff fe17 	bl	8000404 <GC9A01_write_byte>
	GC9A01_write_byte(config,0x08);
 80007d6:	2108      	movs	r1, #8
 80007d8:	6878      	ldr	r0, [r7, #4]
 80007da:	f7ff fe13 	bl	8000404 <GC9A01_write_byte>
	GC9A01_write_byte(config,0x08);
 80007de:	2108      	movs	r1, #8
 80007e0:	6878      	ldr	r0, [r7, #4]
 80007e2:	f7ff fe0f 	bl	8000404 <GC9A01_write_byte>
	GC9A01_write_byte(config,0x26);
 80007e6:	2126      	movs	r1, #38	@ 0x26
 80007e8:	6878      	ldr	r0, [r7, #4]
 80007ea:	f7ff fe0b 	bl	8000404 <GC9A01_write_byte>
	GC9A01_write_byte(config,0x2A);
 80007ee:	212a      	movs	r1, #42	@ 0x2a
 80007f0:	6878      	ldr	r0, [r7, #4]
 80007f2:	f7ff fe07 	bl	8000404 <GC9A01_write_byte>

	write_command(config,0xF1);
 80007f6:	21f1      	movs	r1, #241	@ 0xf1
 80007f8:	6878      	ldr	r0, [r7, #4]
 80007fa:	f7ff fdbf 	bl	800037c <write_command>
	GC9A01_write_byte(config,0x43);
 80007fe:	2143      	movs	r1, #67	@ 0x43
 8000800:	6878      	ldr	r0, [r7, #4]
 8000802:	f7ff fdff 	bl	8000404 <GC9A01_write_byte>
	GC9A01_write_byte(config,0x70);
 8000806:	2170      	movs	r1, #112	@ 0x70
 8000808:	6878      	ldr	r0, [r7, #4]
 800080a:	f7ff fdfb 	bl	8000404 <GC9A01_write_byte>
	GC9A01_write_byte(config,0x72);
 800080e:	2172      	movs	r1, #114	@ 0x72
 8000810:	6878      	ldr	r0, [r7, #4]
 8000812:	f7ff fdf7 	bl	8000404 <GC9A01_write_byte>
	GC9A01_write_byte(config,0x36);
 8000816:	2136      	movs	r1, #54	@ 0x36
 8000818:	6878      	ldr	r0, [r7, #4]
 800081a:	f7ff fdf3 	bl	8000404 <GC9A01_write_byte>
	GC9A01_write_byte(config,0x37);
 800081e:	2137      	movs	r1, #55	@ 0x37
 8000820:	6878      	ldr	r0, [r7, #4]
 8000822:	f7ff fdef 	bl	8000404 <GC9A01_write_byte>
	GC9A01_write_byte(config,0x6F);
 8000826:	216f      	movs	r1, #111	@ 0x6f
 8000828:	6878      	ldr	r0, [r7, #4]
 800082a:	f7ff fdeb 	bl	8000404 <GC9A01_write_byte>

	write_command(config,0xF2);
 800082e:	21f2      	movs	r1, #242	@ 0xf2
 8000830:	6878      	ldr	r0, [r7, #4]
 8000832:	f7ff fda3 	bl	800037c <write_command>
	GC9A01_write_byte(config,0x45);
 8000836:	2145      	movs	r1, #69	@ 0x45
 8000838:	6878      	ldr	r0, [r7, #4]
 800083a:	f7ff fde3 	bl	8000404 <GC9A01_write_byte>
	GC9A01_write_byte(config,0x09);
 800083e:	2109      	movs	r1, #9
 8000840:	6878      	ldr	r0, [r7, #4]
 8000842:	f7ff fddf 	bl	8000404 <GC9A01_write_byte>
	GC9A01_write_byte(config,0x08);
 8000846:	2108      	movs	r1, #8
 8000848:	6878      	ldr	r0, [r7, #4]
 800084a:	f7ff fddb 	bl	8000404 <GC9A01_write_byte>
	GC9A01_write_byte(config,0x08);
 800084e:	2108      	movs	r1, #8
 8000850:	6878      	ldr	r0, [r7, #4]
 8000852:	f7ff fdd7 	bl	8000404 <GC9A01_write_byte>
	GC9A01_write_byte(config,0x26);
 8000856:	2126      	movs	r1, #38	@ 0x26
 8000858:	6878      	ldr	r0, [r7, #4]
 800085a:	f7ff fdd3 	bl	8000404 <GC9A01_write_byte>
	GC9A01_write_byte(config,0x2A);
 800085e:	212a      	movs	r1, #42	@ 0x2a
 8000860:	6878      	ldr	r0, [r7, #4]
 8000862:	f7ff fdcf 	bl	8000404 <GC9A01_write_byte>

	write_command(config,0xF3);
 8000866:	21f3      	movs	r1, #243	@ 0xf3
 8000868:	6878      	ldr	r0, [r7, #4]
 800086a:	f7ff fd87 	bl	800037c <write_command>
	GC9A01_write_byte(config,0x43);
 800086e:	2143      	movs	r1, #67	@ 0x43
 8000870:	6878      	ldr	r0, [r7, #4]
 8000872:	f7ff fdc7 	bl	8000404 <GC9A01_write_byte>
	GC9A01_write_byte(config,0x70);
 8000876:	2170      	movs	r1, #112	@ 0x70
 8000878:	6878      	ldr	r0, [r7, #4]
 800087a:	f7ff fdc3 	bl	8000404 <GC9A01_write_byte>
	GC9A01_write_byte(config,0x72);
 800087e:	2172      	movs	r1, #114	@ 0x72
 8000880:	6878      	ldr	r0, [r7, #4]
 8000882:	f7ff fdbf 	bl	8000404 <GC9A01_write_byte>
	GC9A01_write_byte(config,0x36);
 8000886:	2136      	movs	r1, #54	@ 0x36
 8000888:	6878      	ldr	r0, [r7, #4]
 800088a:	f7ff fdbb 	bl	8000404 <GC9A01_write_byte>
	GC9A01_write_byte(config,0x37);
 800088e:	2137      	movs	r1, #55	@ 0x37
 8000890:	6878      	ldr	r0, [r7, #4]
 8000892:	f7ff fdb7 	bl	8000404 <GC9A01_write_byte>
	GC9A01_write_byte(config,0x6F);
 8000896:	216f      	movs	r1, #111	@ 0x6f
 8000898:	6878      	ldr	r0, [r7, #4]
 800089a:	f7ff fdb3 	bl	8000404 <GC9A01_write_byte>

	write_command(config,0xED);
 800089e:	21ed      	movs	r1, #237	@ 0xed
 80008a0:	6878      	ldr	r0, [r7, #4]
 80008a2:	f7ff fd6b 	bl	800037c <write_command>
	GC9A01_write_byte(config,0x1B);
 80008a6:	211b      	movs	r1, #27
 80008a8:	6878      	ldr	r0, [r7, #4]
 80008aa:	f7ff fdab 	bl	8000404 <GC9A01_write_byte>
	GC9A01_write_byte(config,0x0B);
 80008ae:	210b      	movs	r1, #11
 80008b0:	6878      	ldr	r0, [r7, #4]
 80008b2:	f7ff fda7 	bl	8000404 <GC9A01_write_byte>

	write_command(config,0xAE);
 80008b6:	21ae      	movs	r1, #174	@ 0xae
 80008b8:	6878      	ldr	r0, [r7, #4]
 80008ba:	e003      	b.n	80008c4 <GC9A01_Init+0x3c8>
 80008bc:	43160000 	.word	0x43160000
 80008c0:	42f00000 	.word	0x42f00000
 80008c4:	f7ff fd5a 	bl	800037c <write_command>
	GC9A01_write_byte(config,0x77);
 80008c8:	2177      	movs	r1, #119	@ 0x77
 80008ca:	6878      	ldr	r0, [r7, #4]
 80008cc:	f7ff fd9a 	bl	8000404 <GC9A01_write_byte>

	write_command(config,0xCD);
 80008d0:	21cd      	movs	r1, #205	@ 0xcd
 80008d2:	6878      	ldr	r0, [r7, #4]
 80008d4:	f7ff fd52 	bl	800037c <write_command>
	GC9A01_write_byte(config,0x63);
 80008d8:	2163      	movs	r1, #99	@ 0x63
 80008da:	6878      	ldr	r0, [r7, #4]
 80008dc:	f7ff fd92 	bl	8000404 <GC9A01_write_byte>

	write_command(config,0x70);
 80008e0:	2170      	movs	r1, #112	@ 0x70
 80008e2:	6878      	ldr	r0, [r7, #4]
 80008e4:	f7ff fd4a 	bl	800037c <write_command>
	GC9A01_write_byte(config,0x07);
 80008e8:	2107      	movs	r1, #7
 80008ea:	6878      	ldr	r0, [r7, #4]
 80008ec:	f7ff fd8a 	bl	8000404 <GC9A01_write_byte>
	GC9A01_write_byte(config,0x07);
 80008f0:	2107      	movs	r1, #7
 80008f2:	6878      	ldr	r0, [r7, #4]
 80008f4:	f7ff fd86 	bl	8000404 <GC9A01_write_byte>
	GC9A01_write_byte(config,0x04);
 80008f8:	2104      	movs	r1, #4
 80008fa:	6878      	ldr	r0, [r7, #4]
 80008fc:	f7ff fd82 	bl	8000404 <GC9A01_write_byte>
	GC9A01_write_byte(config,0x0E);
 8000900:	210e      	movs	r1, #14
 8000902:	6878      	ldr	r0, [r7, #4]
 8000904:	f7ff fd7e 	bl	8000404 <GC9A01_write_byte>
	GC9A01_write_byte(config,0x0F);
 8000908:	210f      	movs	r1, #15
 800090a:	6878      	ldr	r0, [r7, #4]
 800090c:	f7ff fd7a 	bl	8000404 <GC9A01_write_byte>
	GC9A01_write_byte(config,0x09);
 8000910:	2109      	movs	r1, #9
 8000912:	6878      	ldr	r0, [r7, #4]
 8000914:	f7ff fd76 	bl	8000404 <GC9A01_write_byte>
	GC9A01_write_byte(config,0x07);
 8000918:	2107      	movs	r1, #7
 800091a:	6878      	ldr	r0, [r7, #4]
 800091c:	f7ff fd72 	bl	8000404 <GC9A01_write_byte>
	GC9A01_write_byte(config,0x08);
 8000920:	2108      	movs	r1, #8
 8000922:	6878      	ldr	r0, [r7, #4]
 8000924:	f7ff fd6e 	bl	8000404 <GC9A01_write_byte>
	GC9A01_write_byte(config,0x03);
 8000928:	2103      	movs	r1, #3
 800092a:	6878      	ldr	r0, [r7, #4]
 800092c:	f7ff fd6a 	bl	8000404 <GC9A01_write_byte>

	write_command(config,0xE8);
 8000930:	21e8      	movs	r1, #232	@ 0xe8
 8000932:	6878      	ldr	r0, [r7, #4]
 8000934:	f7ff fd22 	bl	800037c <write_command>
	GC9A01_write_byte(config,0x34);
 8000938:	2134      	movs	r1, #52	@ 0x34
 800093a:	6878      	ldr	r0, [r7, #4]
 800093c:	f7ff fd62 	bl	8000404 <GC9A01_write_byte>

	write_command(config,0x62);
 8000940:	2162      	movs	r1, #98	@ 0x62
 8000942:	6878      	ldr	r0, [r7, #4]
 8000944:	f7ff fd1a 	bl	800037c <write_command>
	GC9A01_write_byte(config,0x18);
 8000948:	2118      	movs	r1, #24
 800094a:	6878      	ldr	r0, [r7, #4]
 800094c:	f7ff fd5a 	bl	8000404 <GC9A01_write_byte>
	GC9A01_write_byte(config,0x0D);
 8000950:	210d      	movs	r1, #13
 8000952:	6878      	ldr	r0, [r7, #4]
 8000954:	f7ff fd56 	bl	8000404 <GC9A01_write_byte>
	GC9A01_write_byte(config,0x71);
 8000958:	2171      	movs	r1, #113	@ 0x71
 800095a:	6878      	ldr	r0, [r7, #4]
 800095c:	f7ff fd52 	bl	8000404 <GC9A01_write_byte>
	GC9A01_write_byte(config,0xED);
 8000960:	21ed      	movs	r1, #237	@ 0xed
 8000962:	6878      	ldr	r0, [r7, #4]
 8000964:	f7ff fd4e 	bl	8000404 <GC9A01_write_byte>
	GC9A01_write_byte(config,0x70);
 8000968:	2170      	movs	r1, #112	@ 0x70
 800096a:	6878      	ldr	r0, [r7, #4]
 800096c:	f7ff fd4a 	bl	8000404 <GC9A01_write_byte>
	GC9A01_write_byte(config,0x70);
 8000970:	2170      	movs	r1, #112	@ 0x70
 8000972:	6878      	ldr	r0, [r7, #4]
 8000974:	f7ff fd46 	bl	8000404 <GC9A01_write_byte>
	GC9A01_write_byte(config,0x18);
 8000978:	2118      	movs	r1, #24
 800097a:	6878      	ldr	r0, [r7, #4]
 800097c:	f7ff fd42 	bl	8000404 <GC9A01_write_byte>
	GC9A01_write_byte(config,0x0F);
 8000980:	210f      	movs	r1, #15
 8000982:	6878      	ldr	r0, [r7, #4]
 8000984:	f7ff fd3e 	bl	8000404 <GC9A01_write_byte>
	GC9A01_write_byte(config,0x71);
 8000988:	2171      	movs	r1, #113	@ 0x71
 800098a:	6878      	ldr	r0, [r7, #4]
 800098c:	f7ff fd3a 	bl	8000404 <GC9A01_write_byte>
	GC9A01_write_byte(config,0xEF);
 8000990:	21ef      	movs	r1, #239	@ 0xef
 8000992:	6878      	ldr	r0, [r7, #4]
 8000994:	f7ff fd36 	bl	8000404 <GC9A01_write_byte>
	GC9A01_write_byte(config,0x70);
 8000998:	2170      	movs	r1, #112	@ 0x70
 800099a:	6878      	ldr	r0, [r7, #4]
 800099c:	f7ff fd32 	bl	8000404 <GC9A01_write_byte>
	GC9A01_write_byte(config,0x70);
 80009a0:	2170      	movs	r1, #112	@ 0x70
 80009a2:	6878      	ldr	r0, [r7, #4]
 80009a4:	f7ff fd2e 	bl	8000404 <GC9A01_write_byte>

	write_command(config,0x63);
 80009a8:	2163      	movs	r1, #99	@ 0x63
 80009aa:	6878      	ldr	r0, [r7, #4]
 80009ac:	f7ff fce6 	bl	800037c <write_command>
	GC9A01_write_byte(config,0x18);
 80009b0:	2118      	movs	r1, #24
 80009b2:	6878      	ldr	r0, [r7, #4]
 80009b4:	f7ff fd26 	bl	8000404 <GC9A01_write_byte>
	GC9A01_write_byte(config,0x11);
 80009b8:	2111      	movs	r1, #17
 80009ba:	6878      	ldr	r0, [r7, #4]
 80009bc:	f7ff fd22 	bl	8000404 <GC9A01_write_byte>
	GC9A01_write_byte(config,0x71);
 80009c0:	2171      	movs	r1, #113	@ 0x71
 80009c2:	6878      	ldr	r0, [r7, #4]
 80009c4:	f7ff fd1e 	bl	8000404 <GC9A01_write_byte>
	GC9A01_write_byte(config,0xF1);
 80009c8:	21f1      	movs	r1, #241	@ 0xf1
 80009ca:	6878      	ldr	r0, [r7, #4]
 80009cc:	f7ff fd1a 	bl	8000404 <GC9A01_write_byte>
	GC9A01_write_byte(config,0x70);
 80009d0:	2170      	movs	r1, #112	@ 0x70
 80009d2:	6878      	ldr	r0, [r7, #4]
 80009d4:	f7ff fd16 	bl	8000404 <GC9A01_write_byte>
	GC9A01_write_byte(config,0x70);
 80009d8:	2170      	movs	r1, #112	@ 0x70
 80009da:	6878      	ldr	r0, [r7, #4]
 80009dc:	f7ff fd12 	bl	8000404 <GC9A01_write_byte>
	GC9A01_write_byte(config,0x18);
 80009e0:	2118      	movs	r1, #24
 80009e2:	6878      	ldr	r0, [r7, #4]
 80009e4:	f7ff fd0e 	bl	8000404 <GC9A01_write_byte>
	GC9A01_write_byte(config,0x13);
 80009e8:	2113      	movs	r1, #19
 80009ea:	6878      	ldr	r0, [r7, #4]
 80009ec:	f7ff fd0a 	bl	8000404 <GC9A01_write_byte>
	GC9A01_write_byte(config,0x71);
 80009f0:	2171      	movs	r1, #113	@ 0x71
 80009f2:	6878      	ldr	r0, [r7, #4]
 80009f4:	f7ff fd06 	bl	8000404 <GC9A01_write_byte>
	GC9A01_write_byte(config,0xF3);
 80009f8:	21f3      	movs	r1, #243	@ 0xf3
 80009fa:	6878      	ldr	r0, [r7, #4]
 80009fc:	f7ff fd02 	bl	8000404 <GC9A01_write_byte>
	GC9A01_write_byte(config,0x70);
 8000a00:	2170      	movs	r1, #112	@ 0x70
 8000a02:	6878      	ldr	r0, [r7, #4]
 8000a04:	f7ff fcfe 	bl	8000404 <GC9A01_write_byte>
	GC9A01_write_byte(config,0x70);
 8000a08:	2170      	movs	r1, #112	@ 0x70
 8000a0a:	6878      	ldr	r0, [r7, #4]
 8000a0c:	f7ff fcfa 	bl	8000404 <GC9A01_write_byte>

	write_command(config,0x64);
 8000a10:	2164      	movs	r1, #100	@ 0x64
 8000a12:	6878      	ldr	r0, [r7, #4]
 8000a14:	f7ff fcb2 	bl	800037c <write_command>
	GC9A01_write_byte(config,0x28);
 8000a18:	2128      	movs	r1, #40	@ 0x28
 8000a1a:	6878      	ldr	r0, [r7, #4]
 8000a1c:	f7ff fcf2 	bl	8000404 <GC9A01_write_byte>
	GC9A01_write_byte(config,0x29);
 8000a20:	2129      	movs	r1, #41	@ 0x29
 8000a22:	6878      	ldr	r0, [r7, #4]
 8000a24:	f7ff fcee 	bl	8000404 <GC9A01_write_byte>
	GC9A01_write_byte(config,0xF1);
 8000a28:	21f1      	movs	r1, #241	@ 0xf1
 8000a2a:	6878      	ldr	r0, [r7, #4]
 8000a2c:	f7ff fcea 	bl	8000404 <GC9A01_write_byte>
	GC9A01_write_byte(config,0x01);
 8000a30:	2101      	movs	r1, #1
 8000a32:	6878      	ldr	r0, [r7, #4]
 8000a34:	f7ff fce6 	bl	8000404 <GC9A01_write_byte>
	GC9A01_write_byte(config,0xF1);
 8000a38:	21f1      	movs	r1, #241	@ 0xf1
 8000a3a:	6878      	ldr	r0, [r7, #4]
 8000a3c:	f7ff fce2 	bl	8000404 <GC9A01_write_byte>
	GC9A01_write_byte(config,0x00);
 8000a40:	2100      	movs	r1, #0
 8000a42:	6878      	ldr	r0, [r7, #4]
 8000a44:	f7ff fcde 	bl	8000404 <GC9A01_write_byte>
	GC9A01_write_byte(config,0x07);
 8000a48:	2107      	movs	r1, #7
 8000a4a:	6878      	ldr	r0, [r7, #4]
 8000a4c:	f7ff fcda 	bl	8000404 <GC9A01_write_byte>

	write_command(config,0x66);
 8000a50:	2166      	movs	r1, #102	@ 0x66
 8000a52:	6878      	ldr	r0, [r7, #4]
 8000a54:	f7ff fc92 	bl	800037c <write_command>
	GC9A01_write_byte(config,0x3C);
 8000a58:	213c      	movs	r1, #60	@ 0x3c
 8000a5a:	6878      	ldr	r0, [r7, #4]
 8000a5c:	f7ff fcd2 	bl	8000404 <GC9A01_write_byte>
	GC9A01_write_byte(config,0x00);
 8000a60:	2100      	movs	r1, #0
 8000a62:	6878      	ldr	r0, [r7, #4]
 8000a64:	f7ff fcce 	bl	8000404 <GC9A01_write_byte>
	GC9A01_write_byte(config,0xCD);
 8000a68:	21cd      	movs	r1, #205	@ 0xcd
 8000a6a:	6878      	ldr	r0, [r7, #4]
 8000a6c:	f7ff fcca 	bl	8000404 <GC9A01_write_byte>
	GC9A01_write_byte(config,0x67);
 8000a70:	2167      	movs	r1, #103	@ 0x67
 8000a72:	6878      	ldr	r0, [r7, #4]
 8000a74:	f7ff fcc6 	bl	8000404 <GC9A01_write_byte>
	GC9A01_write_byte(config,0x45);
 8000a78:	2145      	movs	r1, #69	@ 0x45
 8000a7a:	6878      	ldr	r0, [r7, #4]
 8000a7c:	f7ff fcc2 	bl	8000404 <GC9A01_write_byte>
	GC9A01_write_byte(config,0x45);
 8000a80:	2145      	movs	r1, #69	@ 0x45
 8000a82:	6878      	ldr	r0, [r7, #4]
 8000a84:	f7ff fcbe 	bl	8000404 <GC9A01_write_byte>
	GC9A01_write_byte(config,0x10);
 8000a88:	2110      	movs	r1, #16
 8000a8a:	6878      	ldr	r0, [r7, #4]
 8000a8c:	f7ff fcba 	bl	8000404 <GC9A01_write_byte>
	GC9A01_write_byte(config,0x00);
 8000a90:	2100      	movs	r1, #0
 8000a92:	6878      	ldr	r0, [r7, #4]
 8000a94:	f7ff fcb6 	bl	8000404 <GC9A01_write_byte>
	GC9A01_write_byte(config,0x00);
 8000a98:	2100      	movs	r1, #0
 8000a9a:	6878      	ldr	r0, [r7, #4]
 8000a9c:	f7ff fcb2 	bl	8000404 <GC9A01_write_byte>
	GC9A01_write_byte(config,0x00);
 8000aa0:	2100      	movs	r1, #0
 8000aa2:	6878      	ldr	r0, [r7, #4]
 8000aa4:	f7ff fcae 	bl	8000404 <GC9A01_write_byte>

	write_command(config,0x67);
 8000aa8:	2167      	movs	r1, #103	@ 0x67
 8000aaa:	6878      	ldr	r0, [r7, #4]
 8000aac:	f7ff fc66 	bl	800037c <write_command>
	GC9A01_write_byte(config,0x00);
 8000ab0:	2100      	movs	r1, #0
 8000ab2:	6878      	ldr	r0, [r7, #4]
 8000ab4:	f7ff fca6 	bl	8000404 <GC9A01_write_byte>
	GC9A01_write_byte(config,0x3C);
 8000ab8:	213c      	movs	r1, #60	@ 0x3c
 8000aba:	6878      	ldr	r0, [r7, #4]
 8000abc:	f7ff fca2 	bl	8000404 <GC9A01_write_byte>
	GC9A01_write_byte(config,0x00);
 8000ac0:	2100      	movs	r1, #0
 8000ac2:	6878      	ldr	r0, [r7, #4]
 8000ac4:	f7ff fc9e 	bl	8000404 <GC9A01_write_byte>
	GC9A01_write_byte(config,0x00);
 8000ac8:	2100      	movs	r1, #0
 8000aca:	6878      	ldr	r0, [r7, #4]
 8000acc:	f7ff fc9a 	bl	8000404 <GC9A01_write_byte>
	GC9A01_write_byte(config,0x00);
 8000ad0:	2100      	movs	r1, #0
 8000ad2:	6878      	ldr	r0, [r7, #4]
 8000ad4:	f7ff fc96 	bl	8000404 <GC9A01_write_byte>
	GC9A01_write_byte(config,0x01);
 8000ad8:	2101      	movs	r1, #1
 8000ada:	6878      	ldr	r0, [r7, #4]
 8000adc:	f7ff fc92 	bl	8000404 <GC9A01_write_byte>
	GC9A01_write_byte(config,0x54);
 8000ae0:	2154      	movs	r1, #84	@ 0x54
 8000ae2:	6878      	ldr	r0, [r7, #4]
 8000ae4:	f7ff fc8e 	bl	8000404 <GC9A01_write_byte>
	GC9A01_write_byte(config,0x10);
 8000ae8:	2110      	movs	r1, #16
 8000aea:	6878      	ldr	r0, [r7, #4]
 8000aec:	f7ff fc8a 	bl	8000404 <GC9A01_write_byte>
	GC9A01_write_byte(config,0x32);
 8000af0:	2132      	movs	r1, #50	@ 0x32
 8000af2:	6878      	ldr	r0, [r7, #4]
 8000af4:	f7ff fc86 	bl	8000404 <GC9A01_write_byte>
	GC9A01_write_byte(config,0x98);
 8000af8:	2198      	movs	r1, #152	@ 0x98
 8000afa:	6878      	ldr	r0, [r7, #4]
 8000afc:	f7ff fc82 	bl	8000404 <GC9A01_write_byte>

	write_command(config,0x74);
 8000b00:	2174      	movs	r1, #116	@ 0x74
 8000b02:	6878      	ldr	r0, [r7, #4]
 8000b04:	f7ff fc3a 	bl	800037c <write_command>
	GC9A01_write_byte(config,0x10);
 8000b08:	2110      	movs	r1, #16
 8000b0a:	6878      	ldr	r0, [r7, #4]
 8000b0c:	f7ff fc7a 	bl	8000404 <GC9A01_write_byte>
	GC9A01_write_byte(config,0x85);
 8000b10:	2185      	movs	r1, #133	@ 0x85
 8000b12:	6878      	ldr	r0, [r7, #4]
 8000b14:	f7ff fc76 	bl	8000404 <GC9A01_write_byte>
	GC9A01_write_byte(config,0x80);
 8000b18:	2180      	movs	r1, #128	@ 0x80
 8000b1a:	6878      	ldr	r0, [r7, #4]
 8000b1c:	f7ff fc72 	bl	8000404 <GC9A01_write_byte>
	GC9A01_write_byte(config,0x00);
 8000b20:	2100      	movs	r1, #0
 8000b22:	6878      	ldr	r0, [r7, #4]
 8000b24:	f7ff fc6e 	bl	8000404 <GC9A01_write_byte>
	GC9A01_write_byte(config,0x00);
 8000b28:	2100      	movs	r1, #0
 8000b2a:	6878      	ldr	r0, [r7, #4]
 8000b2c:	f7ff fc6a 	bl	8000404 <GC9A01_write_byte>
	GC9A01_write_byte(config,0x4E);
 8000b30:	214e      	movs	r1, #78	@ 0x4e
 8000b32:	6878      	ldr	r0, [r7, #4]
 8000b34:	f7ff fc66 	bl	8000404 <GC9A01_write_byte>
	GC9A01_write_byte(config,0x00);
 8000b38:	2100      	movs	r1, #0
 8000b3a:	6878      	ldr	r0, [r7, #4]
 8000b3c:	f7ff fc62 	bl	8000404 <GC9A01_write_byte>

	write_command(config,0x98);
 8000b40:	2198      	movs	r1, #152	@ 0x98
 8000b42:	6878      	ldr	r0, [r7, #4]
 8000b44:	f7ff fc1a 	bl	800037c <write_command>
	GC9A01_write_byte(config,0x3e);
 8000b48:	213e      	movs	r1, #62	@ 0x3e
 8000b4a:	6878      	ldr	r0, [r7, #4]
 8000b4c:	f7ff fc5a 	bl	8000404 <GC9A01_write_byte>
	GC9A01_write_byte(config,0x07);
 8000b50:	2107      	movs	r1, #7
 8000b52:	6878      	ldr	r0, [r7, #4]
 8000b54:	f7ff fc56 	bl	8000404 <GC9A01_write_byte>

	write_command(config,0x35);
 8000b58:	2135      	movs	r1, #53	@ 0x35
 8000b5a:	6878      	ldr	r0, [r7, #4]
 8000b5c:	f7ff fc0e 	bl	800037c <write_command>
	write_command(config,0x21);
 8000b60:	2121      	movs	r1, #33	@ 0x21
 8000b62:	6878      	ldr	r0, [r7, #4]
 8000b64:	f7ff fc0a 	bl	800037c <write_command>

	write_command(config,0x11);
 8000b68:	2111      	movs	r1, #17
 8000b6a:	6878      	ldr	r0, [r7, #4]
 8000b6c:	f7ff fc06 	bl	800037c <write_command>
    Delay_milli(120);
 8000b70:	ed1f 0aad 	vldr	s0, [pc, #-692]	@ 80008c0 <GC9A01_Init+0x3c4>
 8000b74:	f7ff fb56 	bl	8000224 <Delay_milli>
    write_command(config,0x29);
 8000b78:	2129      	movs	r1, #41	@ 0x29
 8000b7a:	6878      	ldr	r0, [r7, #4]
 8000b7c:	f7ff fbfe 	bl	800037c <write_command>
    Delay_milli(20);
 8000b80:	eeb3 0a04 	vmov.f32	s0, #52	@ 0x41a00000  20.0
 8000b84:	f7ff fb4e 	bl	8000224 <Delay_milli>




}
 8000b88:	bf00      	nop
 8000b8a:	370c      	adds	r7, #12
 8000b8c:	46bd      	mov	sp, r7
 8000b8e:	bdf0      	pop	{r4, r5, r6, r7, pc}

08000b90 <GC9A01_SetAddressWindow>:

/** Set an address window (inclusive X0..X1, Y0..Y1) ready for RAM write */
void GC9A01_SetAddressWindow(GC9A01_Config *config,
		uint16_t x0, uint16_t y0,
		uint16_t x1, uint16_t y1)
{
 8000b90:	b580      	push	{r7, lr}
 8000b92:	b086      	sub	sp, #24
 8000b94:	af00      	add	r7, sp, #0
 8000b96:	60f8      	str	r0, [r7, #12]
 8000b98:	4608      	mov	r0, r1
 8000b9a:	4611      	mov	r1, r2
 8000b9c:	461a      	mov	r2, r3
 8000b9e:	4603      	mov	r3, r0
 8000ba0:	817b      	strh	r3, [r7, #10]
 8000ba2:	460b      	mov	r3, r1
 8000ba4:	813b      	strh	r3, [r7, #8]
 8000ba6:	4613      	mov	r3, r2
 8000ba8:	80fb      	strh	r3, [r7, #6]
	uint8_t buf[4];
	write_command(config, 0x2A);           // CASET
 8000baa:	212a      	movs	r1, #42	@ 0x2a
 8000bac:	68f8      	ldr	r0, [r7, #12]
 8000bae:	f7ff fbe5 	bl	800037c <write_command>
	buf[0] = x0 >> 8; buf[1] = x0 & 0xFF;
 8000bb2:	897b      	ldrh	r3, [r7, #10]
 8000bb4:	0a1b      	lsrs	r3, r3, #8
 8000bb6:	b29b      	uxth	r3, r3
 8000bb8:	b2db      	uxtb	r3, r3
 8000bba:	753b      	strb	r3, [r7, #20]
 8000bbc:	897b      	ldrh	r3, [r7, #10]
 8000bbe:	b2db      	uxtb	r3, r3
 8000bc0:	757b      	strb	r3, [r7, #21]
	buf[2] = x1 >> 8; buf[3] = x1 & 0xFF;
 8000bc2:	88fb      	ldrh	r3, [r7, #6]
 8000bc4:	0a1b      	lsrs	r3, r3, #8
 8000bc6:	b29b      	uxth	r3, r3
 8000bc8:	b2db      	uxtb	r3, r3
 8000bca:	75bb      	strb	r3, [r7, #22]
 8000bcc:	88fb      	ldrh	r3, [r7, #6]
 8000bce:	b2db      	uxtb	r3, r3
 8000bd0:	75fb      	strb	r3, [r7, #23]
	GC9A01_Write_Data(config, buf, 4);
 8000bd2:	f107 0314 	add.w	r3, r7, #20
 8000bd6:	2204      	movs	r2, #4
 8000bd8:	4619      	mov	r1, r3
 8000bda:	68f8      	ldr	r0, [r7, #12]
 8000bdc:	f7ff fc22 	bl	8000424 <GC9A01_Write_Data>

	write_command(config, 0x2B);           // RASET
 8000be0:	212b      	movs	r1, #43	@ 0x2b
 8000be2:	68f8      	ldr	r0, [r7, #12]
 8000be4:	f7ff fbca 	bl	800037c <write_command>
	buf[0] = y0 >> 8; buf[1] = y0 & 0xFF;
 8000be8:	893b      	ldrh	r3, [r7, #8]
 8000bea:	0a1b      	lsrs	r3, r3, #8
 8000bec:	b29b      	uxth	r3, r3
 8000bee:	b2db      	uxtb	r3, r3
 8000bf0:	753b      	strb	r3, [r7, #20]
 8000bf2:	893b      	ldrh	r3, [r7, #8]
 8000bf4:	b2db      	uxtb	r3, r3
 8000bf6:	757b      	strb	r3, [r7, #21]
	buf[2] = y1 >> 8; buf[3] = y1 & 0xFF;
 8000bf8:	8c3b      	ldrh	r3, [r7, #32]
 8000bfa:	0a1b      	lsrs	r3, r3, #8
 8000bfc:	b29b      	uxth	r3, r3
 8000bfe:	b2db      	uxtb	r3, r3
 8000c00:	75bb      	strb	r3, [r7, #22]
 8000c02:	8c3b      	ldrh	r3, [r7, #32]
 8000c04:	b2db      	uxtb	r3, r3
 8000c06:	75fb      	strb	r3, [r7, #23]
	GC9A01_Write_Data(config, buf, 4);
 8000c08:	f107 0314 	add.w	r3, r7, #20
 8000c0c:	2204      	movs	r2, #4
 8000c0e:	4619      	mov	r1, r3
 8000c10:	68f8      	ldr	r0, [r7, #12]
 8000c12:	f7ff fc07 	bl	8000424 <GC9A01_Write_Data>

	write_command(config, 0x2C);           // RAMWR
 8000c16:	212c      	movs	r1, #44	@ 0x2c
 8000c18:	68f8      	ldr	r0, [r7, #12]
 8000c1a:	f7ff fbaf 	bl	800037c <write_command>
}
 8000c1e:	bf00      	nop
 8000c20:	3718      	adds	r7, #24
 8000c22:	46bd      	mov	sp, r7
 8000c24:	bd80      	pop	{r7, pc}

08000c26 <GC9A01_PushColor>:

/** Push one RGB565 pixel.  _Must_ be preceded by SetAddressWindow */
void GC9A01_PushColor(GC9A01_Config *config, uint16_t rgb565)
{
 8000c26:	b580      	push	{r7, lr}
 8000c28:	b084      	sub	sp, #16
 8000c2a:	af00      	add	r7, sp, #0
 8000c2c:	6078      	str	r0, [r7, #4]
 8000c2e:	460b      	mov	r3, r1
 8000c30:	807b      	strh	r3, [r7, #2]

	uint8_t hi = rgb565 >> 8, lo = rgb565 & 0xFF;
 8000c32:	887b      	ldrh	r3, [r7, #2]
 8000c34:	0a1b      	lsrs	r3, r3, #8
 8000c36:	b29b      	uxth	r3, r3
 8000c38:	73fb      	strb	r3, [r7, #15]
 8000c3a:	887b      	ldrh	r3, [r7, #2]
 8000c3c:	73bb      	strb	r3, [r7, #14]
	uint8_t buf[2] = {hi, lo};
 8000c3e:	7bfb      	ldrb	r3, [r7, #15]
 8000c40:	733b      	strb	r3, [r7, #12]
 8000c42:	7bbb      	ldrb	r3, [r7, #14]
 8000c44:	737b      	strb	r3, [r7, #13]
	GC9A01_Write_Data(config, buf, 2);
 8000c46:	f107 030c 	add.w	r3, r7, #12
 8000c4a:	2202      	movs	r2, #2
 8000c4c:	4619      	mov	r1, r3
 8000c4e:	6878      	ldr	r0, [r7, #4]
 8000c50:	f7ff fbe8 	bl	8000424 <GC9A01_Write_Data>
}
 8000c54:	bf00      	nop
 8000c56:	3710      	adds	r7, #16
 8000c58:	46bd      	mov	sp, r7
 8000c5a:	bd80      	pop	{r7, pc}

08000c5c <GC9A01_DrawPixel>:

/** Convenience helpers */
void GC9A01_DrawPixel(GC9A01_Config *config, uint16_t x, uint16_t y, uint16_t rgb)
{
 8000c5c:	b580      	push	{r7, lr}
 8000c5e:	b086      	sub	sp, #24
 8000c60:	af02      	add	r7, sp, #8
 8000c62:	60f8      	str	r0, [r7, #12]
 8000c64:	4608      	mov	r0, r1
 8000c66:	4611      	mov	r1, r2
 8000c68:	461a      	mov	r2, r3
 8000c6a:	4603      	mov	r3, r0
 8000c6c:	817b      	strh	r3, [r7, #10]
 8000c6e:	460b      	mov	r3, r1
 8000c70:	813b      	strh	r3, [r7, #8]
 8000c72:	4613      	mov	r3, r2
 8000c74:	80fb      	strh	r3, [r7, #6]
	if(x >= GC9A01_WIDTH || y >= GC9A01_HEIGHT) return;
 8000c76:	897b      	ldrh	r3, [r7, #10]
 8000c78:	2bef      	cmp	r3, #239	@ 0xef
 8000c7a:	d811      	bhi.n	8000ca0 <GC9A01_DrawPixel+0x44>
 8000c7c:	893b      	ldrh	r3, [r7, #8]
 8000c7e:	2bef      	cmp	r3, #239	@ 0xef
 8000c80:	d80e      	bhi.n	8000ca0 <GC9A01_DrawPixel+0x44>
	GC9A01_SetAddressWindow(config, x, y, x, y);
 8000c82:	8978      	ldrh	r0, [r7, #10]
 8000c84:	893a      	ldrh	r2, [r7, #8]
 8000c86:	8979      	ldrh	r1, [r7, #10]
 8000c88:	893b      	ldrh	r3, [r7, #8]
 8000c8a:	9300      	str	r3, [sp, #0]
 8000c8c:	4603      	mov	r3, r0
 8000c8e:	68f8      	ldr	r0, [r7, #12]
 8000c90:	f7ff ff7e 	bl	8000b90 <GC9A01_SetAddressWindow>
	GC9A01_PushColor(config, rgb);
 8000c94:	88fb      	ldrh	r3, [r7, #6]
 8000c96:	4619      	mov	r1, r3
 8000c98:	68f8      	ldr	r0, [r7, #12]
 8000c9a:	f7ff ffc4 	bl	8000c26 <GC9A01_PushColor>
 8000c9e:	e000      	b.n	8000ca2 <GC9A01_DrawPixel+0x46>
	if(x >= GC9A01_WIDTH || y >= GC9A01_HEIGHT) return;
 8000ca0:	bf00      	nop
}
 8000ca2:	3710      	adds	r7, #16
 8000ca4:	46bd      	mov	sp, r7
 8000ca6:	bd80      	pop	{r7, pc}

08000ca8 <GC9A01_Fill>:

void GC9A01_Fill(GC9A01_Config *config, uint16_t rgb)
{
 8000ca8:	b580      	push	{r7, lr}
 8000caa:	b084      	sub	sp, #16
 8000cac:	af02      	add	r7, sp, #8
 8000cae:	6078      	str	r0, [r7, #4]
 8000cb0:	460b      	mov	r3, r1
 8000cb2:	807b      	strh	r3, [r7, #2]
	GC9A01_SetAddressWindow(config, 0, 0, GC9A01_WIDTH-1, GC9A01_HEIGHT-1);
 8000cb4:	23ef      	movs	r3, #239	@ 0xef
 8000cb6:	9300      	str	r3, [sp, #0]
 8000cb8:	23ef      	movs	r3, #239	@ 0xef
 8000cba:	2200      	movs	r2, #0
 8000cbc:	2100      	movs	r1, #0
 8000cbe:	6878      	ldr	r0, [r7, #4]
 8000cc0:	f7ff ff66 	bl	8000b90 <GC9A01_SetAddressWindow>
	GC9A01_Drite_Data16_Repeat(config, rgb, (uint32_t)GC9A01_WIDTH * GC9A01_HEIGHT);
 8000cc4:	887b      	ldrh	r3, [r7, #2]
 8000cc6:	f44f 4261 	mov.w	r2, #57600	@ 0xe100
 8000cca:	4619      	mov	r1, r3
 8000ccc:	6878      	ldr	r0, [r7, #4]
 8000cce:	f7ff fbcb 	bl	8000468 <GC9A01_Drite_Data16_Repeat>
}
 8000cd2:	bf00      	nop
 8000cd4:	3708      	adds	r7, #8
 8000cd6:	46bd      	mov	sp, r7
 8000cd8:	bd80      	pop	{r7, pc}

08000cda <GC9A01_DrawCircle>:
 }

 void GC9A01_DrawCircle(GC9A01_Config *cfg,
                        int16_t xc, int16_t yc,
                        int16_t r,  uint16_t color)
 {
 8000cda:	b580      	push	{r7, lr}
 8000cdc:	b086      	sub	sp, #24
 8000cde:	af00      	add	r7, sp, #0
 8000ce0:	60f8      	str	r0, [r7, #12]
 8000ce2:	4608      	mov	r0, r1
 8000ce4:	4611      	mov	r1, r2
 8000ce6:	461a      	mov	r2, r3
 8000ce8:	4603      	mov	r3, r0
 8000cea:	817b      	strh	r3, [r7, #10]
 8000cec:	460b      	mov	r3, r1
 8000cee:	813b      	strh	r3, [r7, #8]
 8000cf0:	4613      	mov	r3, r2
 8000cf2:	80fb      	strh	r3, [r7, #6]
     if (r <= 0) return;
 8000cf4:	f9b7 3006 	ldrsh.w	r3, [r7, #6]
 8000cf8:	2b00      	cmp	r3, #0
 8000cfa:	f340 809f 	ble.w	8000e3c <GC9A01_DrawCircle+0x162>

     int32_t d = 1 - r;          /* error term                 */
 8000cfe:	f9b7 3006 	ldrsh.w	r3, [r7, #6]
 8000d02:	f1c3 0301 	rsb	r3, r3, #1
 8000d06:	617b      	str	r3, [r7, #20]
     int16_t x = 0;
 8000d08:	2300      	movs	r3, #0
 8000d0a:	827b      	strh	r3, [r7, #18]
     int16_t y = r;
 8000d0c:	88fb      	ldrh	r3, [r7, #6]
 8000d0e:	823b      	strh	r3, [r7, #16]

     while (x <= y)
 8000d10:	e08c      	b.n	8000e2c <GC9A01_DrawCircle+0x152>
     {
         /* 8‑way symmetry points */
         GC9A01_DrawPixelSafe(cfg, xc + x, yc + y, color);
 8000d12:	897a      	ldrh	r2, [r7, #10]
 8000d14:	8a7b      	ldrh	r3, [r7, #18]
 8000d16:	4413      	add	r3, r2
 8000d18:	b29b      	uxth	r3, r3
 8000d1a:	b219      	sxth	r1, r3
 8000d1c:	893a      	ldrh	r2, [r7, #8]
 8000d1e:	8a3b      	ldrh	r3, [r7, #16]
 8000d20:	4413      	add	r3, r2
 8000d22:	b29b      	uxth	r3, r3
 8000d24:	b21a      	sxth	r2, r3
 8000d26:	8c3b      	ldrh	r3, [r7, #32]
 8000d28:	68f8      	ldr	r0, [r7, #12]
 8000d2a:	f7ff fbc9 	bl	80004c0 <GC9A01_DrawPixelSafe>
         GC9A01_DrawPixelSafe(cfg, xc - x, yc + y, color);
 8000d2e:	897a      	ldrh	r2, [r7, #10]
 8000d30:	8a7b      	ldrh	r3, [r7, #18]
 8000d32:	1ad3      	subs	r3, r2, r3
 8000d34:	b29b      	uxth	r3, r3
 8000d36:	b219      	sxth	r1, r3
 8000d38:	893a      	ldrh	r2, [r7, #8]
 8000d3a:	8a3b      	ldrh	r3, [r7, #16]
 8000d3c:	4413      	add	r3, r2
 8000d3e:	b29b      	uxth	r3, r3
 8000d40:	b21a      	sxth	r2, r3
 8000d42:	8c3b      	ldrh	r3, [r7, #32]
 8000d44:	68f8      	ldr	r0, [r7, #12]
 8000d46:	f7ff fbbb 	bl	80004c0 <GC9A01_DrawPixelSafe>
         GC9A01_DrawPixelSafe(cfg, xc + x, yc - y, color);
 8000d4a:	897a      	ldrh	r2, [r7, #10]
 8000d4c:	8a7b      	ldrh	r3, [r7, #18]
 8000d4e:	4413      	add	r3, r2
 8000d50:	b29b      	uxth	r3, r3
 8000d52:	b219      	sxth	r1, r3
 8000d54:	893a      	ldrh	r2, [r7, #8]
 8000d56:	8a3b      	ldrh	r3, [r7, #16]
 8000d58:	1ad3      	subs	r3, r2, r3
 8000d5a:	b29b      	uxth	r3, r3
 8000d5c:	b21a      	sxth	r2, r3
 8000d5e:	8c3b      	ldrh	r3, [r7, #32]
 8000d60:	68f8      	ldr	r0, [r7, #12]
 8000d62:	f7ff fbad 	bl	80004c0 <GC9A01_DrawPixelSafe>
         GC9A01_DrawPixelSafe(cfg, xc - x, yc - y, color);
 8000d66:	897a      	ldrh	r2, [r7, #10]
 8000d68:	8a7b      	ldrh	r3, [r7, #18]
 8000d6a:	1ad3      	subs	r3, r2, r3
 8000d6c:	b29b      	uxth	r3, r3
 8000d6e:	b219      	sxth	r1, r3
 8000d70:	893a      	ldrh	r2, [r7, #8]
 8000d72:	8a3b      	ldrh	r3, [r7, #16]
 8000d74:	1ad3      	subs	r3, r2, r3
 8000d76:	b29b      	uxth	r3, r3
 8000d78:	b21a      	sxth	r2, r3
 8000d7a:	8c3b      	ldrh	r3, [r7, #32]
 8000d7c:	68f8      	ldr	r0, [r7, #12]
 8000d7e:	f7ff fb9f 	bl	80004c0 <GC9A01_DrawPixelSafe>
         GC9A01_DrawPixelSafe(cfg, xc + y, yc + x, color);
 8000d82:	897a      	ldrh	r2, [r7, #10]
 8000d84:	8a3b      	ldrh	r3, [r7, #16]
 8000d86:	4413      	add	r3, r2
 8000d88:	b29b      	uxth	r3, r3
 8000d8a:	b219      	sxth	r1, r3
 8000d8c:	893a      	ldrh	r2, [r7, #8]
 8000d8e:	8a7b      	ldrh	r3, [r7, #18]
 8000d90:	4413      	add	r3, r2
 8000d92:	b29b      	uxth	r3, r3
 8000d94:	b21a      	sxth	r2, r3
 8000d96:	8c3b      	ldrh	r3, [r7, #32]
 8000d98:	68f8      	ldr	r0, [r7, #12]
 8000d9a:	f7ff fb91 	bl	80004c0 <GC9A01_DrawPixelSafe>
         GC9A01_DrawPixelSafe(cfg, xc - y, yc + x, color);
 8000d9e:	897a      	ldrh	r2, [r7, #10]
 8000da0:	8a3b      	ldrh	r3, [r7, #16]
 8000da2:	1ad3      	subs	r3, r2, r3
 8000da4:	b29b      	uxth	r3, r3
 8000da6:	b219      	sxth	r1, r3
 8000da8:	893a      	ldrh	r2, [r7, #8]
 8000daa:	8a7b      	ldrh	r3, [r7, #18]
 8000dac:	4413      	add	r3, r2
 8000dae:	b29b      	uxth	r3, r3
 8000db0:	b21a      	sxth	r2, r3
 8000db2:	8c3b      	ldrh	r3, [r7, #32]
 8000db4:	68f8      	ldr	r0, [r7, #12]
 8000db6:	f7ff fb83 	bl	80004c0 <GC9A01_DrawPixelSafe>
         GC9A01_DrawPixelSafe(cfg, xc + y, yc - x, color);
 8000dba:	897a      	ldrh	r2, [r7, #10]
 8000dbc:	8a3b      	ldrh	r3, [r7, #16]
 8000dbe:	4413      	add	r3, r2
 8000dc0:	b29b      	uxth	r3, r3
 8000dc2:	b219      	sxth	r1, r3
 8000dc4:	893a      	ldrh	r2, [r7, #8]
 8000dc6:	8a7b      	ldrh	r3, [r7, #18]
 8000dc8:	1ad3      	subs	r3, r2, r3
 8000dca:	b29b      	uxth	r3, r3
 8000dcc:	b21a      	sxth	r2, r3
 8000dce:	8c3b      	ldrh	r3, [r7, #32]
 8000dd0:	68f8      	ldr	r0, [r7, #12]
 8000dd2:	f7ff fb75 	bl	80004c0 <GC9A01_DrawPixelSafe>
         GC9A01_DrawPixelSafe(cfg, xc - y, yc - x, color);
 8000dd6:	897a      	ldrh	r2, [r7, #10]
 8000dd8:	8a3b      	ldrh	r3, [r7, #16]
 8000dda:	1ad3      	subs	r3, r2, r3
 8000ddc:	b29b      	uxth	r3, r3
 8000dde:	b219      	sxth	r1, r3
 8000de0:	893a      	ldrh	r2, [r7, #8]
 8000de2:	8a7b      	ldrh	r3, [r7, #18]
 8000de4:	1ad3      	subs	r3, r2, r3
 8000de6:	b29b      	uxth	r3, r3
 8000de8:	b21a      	sxth	r2, r3
 8000dea:	8c3b      	ldrh	r3, [r7, #32]
 8000dec:	68f8      	ldr	r0, [r7, #12]
 8000dee:	f7ff fb67 	bl	80004c0 <GC9A01_DrawPixelSafe>

         /* update error term */
         if (d < 0) {
 8000df2:	697b      	ldr	r3, [r7, #20]
 8000df4:	2b00      	cmp	r3, #0
 8000df6:	da07      	bge.n	8000e08 <GC9A01_DrawCircle+0x12e>
             d += (x << 1) + 3;           /* choose E            */
 8000df8:	f9b7 3012 	ldrsh.w	r3, [r7, #18]
 8000dfc:	005b      	lsls	r3, r3, #1
 8000dfe:	3303      	adds	r3, #3
 8000e00:	697a      	ldr	r2, [r7, #20]
 8000e02:	4413      	add	r3, r2
 8000e04:	617b      	str	r3, [r7, #20]
 8000e06:	e00d      	b.n	8000e24 <GC9A01_DrawCircle+0x14a>
         } else {
             d += ((x - y) << 1) + 5;     /* choose SE, y‑‑      */
 8000e08:	f9b7 2012 	ldrsh.w	r2, [r7, #18]
 8000e0c:	f9b7 3010 	ldrsh.w	r3, [r7, #16]
 8000e10:	1ad3      	subs	r3, r2, r3
 8000e12:	005b      	lsls	r3, r3, #1
 8000e14:	3305      	adds	r3, #5
 8000e16:	697a      	ldr	r2, [r7, #20]
 8000e18:	4413      	add	r3, r2
 8000e1a:	617b      	str	r3, [r7, #20]
             --y;
 8000e1c:	8a3b      	ldrh	r3, [r7, #16]
 8000e1e:	3b01      	subs	r3, #1
 8000e20:	b29b      	uxth	r3, r3
 8000e22:	823b      	strh	r3, [r7, #16]
         }
         ++x;
 8000e24:	8a7b      	ldrh	r3, [r7, #18]
 8000e26:	3301      	adds	r3, #1
 8000e28:	b29b      	uxth	r3, r3
 8000e2a:	827b      	strh	r3, [r7, #18]
     while (x <= y)
 8000e2c:	f9b7 2012 	ldrsh.w	r2, [r7, #18]
 8000e30:	f9b7 3010 	ldrsh.w	r3, [r7, #16]
 8000e34:	429a      	cmp	r2, r3
 8000e36:	f77f af6c 	ble.w	8000d12 <GC9A01_DrawCircle+0x38>
 8000e3a:	e000      	b.n	8000e3e <GC9A01_DrawCircle+0x164>
     if (r <= 0) return;
 8000e3c:	bf00      	nop
     }
 }
 8000e3e:	3718      	adds	r7, #24
 8000e40:	46bd      	mov	sp, r7
 8000e42:	bd80      	pop	{r7, pc}

08000e44 <GC9A01_DrawCircleStroke>:

 void GC9A01_DrawCircleStroke(GC9A01_Config *cfg,
                              int16_t xc, int16_t yc,
                              int16_t r, int16_t thickness,
                              uint16_t color)
 {
 8000e44:	b580      	push	{r7, lr}
 8000e46:	b088      	sub	sp, #32
 8000e48:	af02      	add	r7, sp, #8
 8000e4a:	60f8      	str	r0, [r7, #12]
 8000e4c:	4608      	mov	r0, r1
 8000e4e:	4611      	mov	r1, r2
 8000e50:	461a      	mov	r2, r3
 8000e52:	4603      	mov	r3, r0
 8000e54:	817b      	strh	r3, [r7, #10]
 8000e56:	460b      	mov	r3, r1
 8000e58:	813b      	strh	r3, [r7, #8]
 8000e5a:	4613      	mov	r3, r2
 8000e5c:	80fb      	strh	r3, [r7, #6]
     if (thickness <= 0 || r <= 0) return;
 8000e5e:	f9b7 3020 	ldrsh.w	r3, [r7, #32]
 8000e62:	2b00      	cmp	r3, #0
 8000e64:	dd28      	ble.n	8000eb8 <GC9A01_DrawCircleStroke+0x74>
 8000e66:	f9b7 3006 	ldrsh.w	r3, [r7, #6]
 8000e6a:	2b00      	cmp	r3, #0
 8000e6c:	dd24      	ble.n	8000eb8 <GC9A01_DrawCircleStroke+0x74>
     if (thickness > r) thickness = r;
 8000e6e:	f9b7 2020 	ldrsh.w	r2, [r7, #32]
 8000e72:	f9b7 3006 	ldrsh.w	r3, [r7, #6]
 8000e76:	429a      	cmp	r2, r3
 8000e78:	dd01      	ble.n	8000e7e <GC9A01_DrawCircleStroke+0x3a>
 8000e7a:	88fb      	ldrh	r3, [r7, #6]
 8000e7c:	843b      	strh	r3, [r7, #32]

     for (int16_t t = 0; t < thickness; ++t)
 8000e7e:	2300      	movs	r3, #0
 8000e80:	82fb      	strh	r3, [r7, #22]
 8000e82:	e012      	b.n	8000eaa <GC9A01_DrawCircleStroke+0x66>
         GC9A01_DrawCircle(cfg, xc, yc, r - t, color);
 8000e84:	88fa      	ldrh	r2, [r7, #6]
 8000e86:	8afb      	ldrh	r3, [r7, #22]
 8000e88:	1ad3      	subs	r3, r2, r3
 8000e8a:	b29b      	uxth	r3, r3
 8000e8c:	b218      	sxth	r0, r3
 8000e8e:	f9b7 2008 	ldrsh.w	r2, [r7, #8]
 8000e92:	f9b7 100a 	ldrsh.w	r1, [r7, #10]
 8000e96:	8cbb      	ldrh	r3, [r7, #36]	@ 0x24
 8000e98:	9300      	str	r3, [sp, #0]
 8000e9a:	4603      	mov	r3, r0
 8000e9c:	68f8      	ldr	r0, [r7, #12]
 8000e9e:	f7ff ff1c 	bl	8000cda <GC9A01_DrawCircle>
     for (int16_t t = 0; t < thickness; ++t)
 8000ea2:	8afb      	ldrh	r3, [r7, #22]
 8000ea4:	3301      	adds	r3, #1
 8000ea6:	b29b      	uxth	r3, r3
 8000ea8:	82fb      	strh	r3, [r7, #22]
 8000eaa:	f9b7 2016 	ldrsh.w	r2, [r7, #22]
 8000eae:	f9b7 3020 	ldrsh.w	r3, [r7, #32]
 8000eb2:	429a      	cmp	r2, r3
 8000eb4:	dbe6      	blt.n	8000e84 <GC9A01_DrawCircleStroke+0x40>
 8000eb6:	e000      	b.n	8000eba <GC9A01_DrawCircleStroke+0x76>
     if (thickness <= 0 || r <= 0) return;
 8000eb8:	bf00      	nop
 }
 8000eba:	3718      	adds	r7, #24
 8000ebc:	46bd      	mov	sp, r7
 8000ebe:	bd80      	pop	{r7, pc}

08000ec0 <GC9A01_DrawArcStroke>:

 void GC9A01_DrawArcStroke(GC9A01_Config *cfg,
	                          int16_t xc, int16_t yc, int16_t r,
	                          uint16_t start_deg, uint16_t end_deg,
	                          int16_t thickness, uint16_t color)
	 {
 8000ec0:	b580      	push	{r7, lr}
 8000ec2:	b08a      	sub	sp, #40	@ 0x28
 8000ec4:	af00      	add	r7, sp, #0
 8000ec6:	60f8      	str	r0, [r7, #12]
 8000ec8:	4608      	mov	r0, r1
 8000eca:	4611      	mov	r1, r2
 8000ecc:	461a      	mov	r2, r3
 8000ece:	4603      	mov	r3, r0
 8000ed0:	817b      	strh	r3, [r7, #10]
 8000ed2:	460b      	mov	r3, r1
 8000ed4:	813b      	strh	r3, [r7, #8]
 8000ed6:	4613      	mov	r3, r2
 8000ed8:	80fb      	strh	r3, [r7, #6]
	     if (r <= 0 || thickness <= 0) return;
 8000eda:	f9b7 3006 	ldrsh.w	r3, [r7, #6]
 8000ede:	2b00      	cmp	r3, #0
 8000ee0:	f340 80ac 	ble.w	800103c <GC9A01_DrawArcStroke+0x17c>
 8000ee4:	f9b7 3038 	ldrsh.w	r3, [r7, #56]	@ 0x38
 8000ee8:	2b00      	cmp	r3, #0
 8000eea:	f340 80a7 	ble.w	800103c <GC9A01_DrawArcStroke+0x17c>
	     if (thickness > r) thickness = r;
 8000eee:	f9b7 2038 	ldrsh.w	r2, [r7, #56]	@ 0x38
 8000ef2:	f9b7 3006 	ldrsh.w	r3, [r7, #6]
 8000ef6:	429a      	cmp	r2, r3
 8000ef8:	dd01      	ble.n	8000efe <GC9A01_DrawArcStroke+0x3e>
 8000efa:	88fb      	ldrh	r3, [r7, #6]
 8000efc:	873b      	strh	r3, [r7, #56]	@ 0x38

	     float step = 0.5f;                               /* 0.5° resolution */
 8000efe:	f04f 537c 	mov.w	r3, #1056964608	@ 0x3f000000
 8000f02:	61fb      	str	r3, [r7, #28]
	     for (float a = start_deg; ; a += step)
 8000f04:	8e3b      	ldrh	r3, [r7, #48]	@ 0x30
 8000f06:	ee07 3a90 	vmov	s15, r3
 8000f0a:	eef8 7a67 	vcvt.f32.u32	s15, s15
 8000f0e:	edc7 7a09 	vstr	s15, [r7, #36]	@ 0x24
	     {
	         if (a >= 360.0f) a -= 360.0f;
 8000f12:	edd7 7a09 	vldr	s15, [r7, #36]	@ 0x24
 8000f16:	ed9f 7a4c 	vldr	s14, [pc, #304]	@ 8001048 <GC9A01_DrawArcStroke+0x188>
 8000f1a:	eef4 7ac7 	vcmpe.f32	s15, s14
 8000f1e:	eef1 fa10 	vmrs	APSR_nzcv, fpscr
 8000f22:	db07      	blt.n	8000f34 <GC9A01_DrawArcStroke+0x74>
 8000f24:	edd7 7a09 	vldr	s15, [r7, #36]	@ 0x24
 8000f28:	ed9f 7a47 	vldr	s14, [pc, #284]	@ 8001048 <GC9A01_DrawArcStroke+0x188>
 8000f2c:	ee77 7ac7 	vsub.f32	s15, s15, s14
 8000f30:	edc7 7a09 	vstr	s15, [r7, #36]	@ 0x24
	         if (((int)(a*2+0.5f)) == (int)(end_deg*2+0.5f)) break; /* stop at end */
 8000f34:	edd7 7a09 	vldr	s15, [r7, #36]	@ 0x24
 8000f38:	ee77 7aa7 	vadd.f32	s15, s15, s15
 8000f3c:	eeb6 7a00 	vmov.f32	s14, #96	@ 0x3f000000  0.5
 8000f40:	ee77 7a87 	vadd.f32	s15, s15, s14
 8000f44:	eefd 7ae7 	vcvt.s32.f32	s15, s15
 8000f48:	ee17 2a90 	vmov	r2, s15
 8000f4c:	8ebb      	ldrh	r3, [r7, #52]	@ 0x34
 8000f4e:	005b      	lsls	r3, r3, #1
 8000f50:	ee07 3a90 	vmov	s15, r3
 8000f54:	eef8 7ae7 	vcvt.f32.s32	s15, s15
 8000f58:	eeb6 7a00 	vmov.f32	s14, #96	@ 0x3f000000  0.5
 8000f5c:	ee77 7a87 	vadd.f32	s15, s15, s14
 8000f60:	eefd 7ae7 	vcvt.s32.f32	s15, s15
 8000f64:	ee17 3a90 	vmov	r3, s15
 8000f68:	429a      	cmp	r2, r3
 8000f6a:	d069      	beq.n	8001040 <GC9A01_DrawArcStroke+0x180>

	         float rad = a * (float)M_PI / 180.0f;
 8000f6c:	edd7 7a09 	vldr	s15, [r7, #36]	@ 0x24
 8000f70:	ed9f 7a36 	vldr	s14, [pc, #216]	@ 800104c <GC9A01_DrawArcStroke+0x18c>
 8000f74:	ee27 7a87 	vmul.f32	s14, s15, s14
 8000f78:	eddf 6a35 	vldr	s13, [pc, #212]	@ 8001050 <GC9A01_DrawArcStroke+0x190>
 8000f7c:	eec7 7a26 	vdiv.f32	s15, s14, s13
 8000f80:	edc7 7a06 	vstr	s15, [r7, #24]
	         float s = sinf(rad), c = cosf(rad);
 8000f84:	ed97 0a06 	vldr	s0, [r7, #24]
 8000f88:	f004 f8f2 	bl	8005170 <sinf>
 8000f8c:	ed87 0a05 	vstr	s0, [r7, #20]
 8000f90:	ed97 0a06 	vldr	s0, [r7, #24]
 8000f94:	f004 f8a0 	bl	80050d8 <cosf>
 8000f98:	ed87 0a04 	vstr	s0, [r7, #16]

	         for (int16_t t = 0; t < thickness; ++t)
 8000f9c:	2300      	movs	r3, #0
 8000f9e:	847b      	strh	r3, [r7, #34]	@ 0x22
 8000fa0:	e03d      	b.n	800101e <GC9A01_DrawArcStroke+0x15e>
	             GC9A01_DrawPixelSafe(cfg,
	                 xc + (int16_t)((r - t) * c + 0.5f),
 8000fa2:	f9b7 2006 	ldrsh.w	r2, [r7, #6]
 8000fa6:	f9b7 3022 	ldrsh.w	r3, [r7, #34]	@ 0x22
 8000faa:	1ad3      	subs	r3, r2, r3
 8000fac:	ee07 3a90 	vmov	s15, r3
 8000fb0:	eeb8 7ae7 	vcvt.f32.s32	s14, s15
 8000fb4:	edd7 7a04 	vldr	s15, [r7, #16]
 8000fb8:	ee67 7a27 	vmul.f32	s15, s14, s15
 8000fbc:	eeb6 7a00 	vmov.f32	s14, #96	@ 0x3f000000  0.5
 8000fc0:	ee77 7a87 	vadd.f32	s15, s15, s14
 8000fc4:	eefd 7ae7 	vcvt.s32.f32	s15, s15
 8000fc8:	ee17 3a90 	vmov	r3, s15
 8000fcc:	b21b      	sxth	r3, r3
 8000fce:	b29a      	uxth	r2, r3
 8000fd0:	897b      	ldrh	r3, [r7, #10]
 8000fd2:	4413      	add	r3, r2
 8000fd4:	b29b      	uxth	r3, r3
	             GC9A01_DrawPixelSafe(cfg,
 8000fd6:	b219      	sxth	r1, r3
	                 yc + (int16_t)((r - t) * s + 0.5f),
 8000fd8:	f9b7 2006 	ldrsh.w	r2, [r7, #6]
 8000fdc:	f9b7 3022 	ldrsh.w	r3, [r7, #34]	@ 0x22
 8000fe0:	1ad3      	subs	r3, r2, r3
 8000fe2:	ee07 3a90 	vmov	s15, r3
 8000fe6:	eeb8 7ae7 	vcvt.f32.s32	s14, s15
 8000fea:	edd7 7a05 	vldr	s15, [r7, #20]
 8000fee:	ee67 7a27 	vmul.f32	s15, s14, s15
 8000ff2:	eeb6 7a00 	vmov.f32	s14, #96	@ 0x3f000000  0.5
 8000ff6:	ee77 7a87 	vadd.f32	s15, s15, s14
 8000ffa:	eefd 7ae7 	vcvt.s32.f32	s15, s15
 8000ffe:	ee17 3a90 	vmov	r3, s15
 8001002:	b21b      	sxth	r3, r3
 8001004:	b29a      	uxth	r2, r3
 8001006:	893b      	ldrh	r3, [r7, #8]
 8001008:	4413      	add	r3, r2
 800100a:	b29b      	uxth	r3, r3
	             GC9A01_DrawPixelSafe(cfg,
 800100c:	b21a      	sxth	r2, r3
 800100e:	8fbb      	ldrh	r3, [r7, #60]	@ 0x3c
 8001010:	68f8      	ldr	r0, [r7, #12]
 8001012:	f7ff fa55 	bl	80004c0 <GC9A01_DrawPixelSafe>
	         for (int16_t t = 0; t < thickness; ++t)
 8001016:	8c7b      	ldrh	r3, [r7, #34]	@ 0x22
 8001018:	3301      	adds	r3, #1
 800101a:	b29b      	uxth	r3, r3
 800101c:	847b      	strh	r3, [r7, #34]	@ 0x22
 800101e:	f9b7 2022 	ldrsh.w	r2, [r7, #34]	@ 0x22
 8001022:	f9b7 3038 	ldrsh.w	r3, [r7, #56]	@ 0x38
 8001026:	429a      	cmp	r2, r3
 8001028:	dbbb      	blt.n	8000fa2 <GC9A01_DrawArcStroke+0xe2>
	     for (float a = start_deg; ; a += step)
 800102a:	ed97 7a09 	vldr	s14, [r7, #36]	@ 0x24
 800102e:	edd7 7a07 	vldr	s15, [r7, #28]
 8001032:	ee77 7a27 	vadd.f32	s15, s14, s15
 8001036:	edc7 7a09 	vstr	s15, [r7, #36]	@ 0x24
	     {
 800103a:	e76a      	b.n	8000f12 <GC9A01_DrawArcStroke+0x52>
	     if (r <= 0 || thickness <= 0) return;
 800103c:	bf00      	nop
 800103e:	e000      	b.n	8001042 <GC9A01_DrawArcStroke+0x182>
	         if (((int)(a*2+0.5f)) == (int)(end_deg*2+0.5f)) break; /* stop at end */
 8001040:	bf00      	nop
	                 color);
	     }
	 }
 8001042:	3728      	adds	r7, #40	@ 0x28
 8001044:	46bd      	mov	sp, r7
 8001046:	bd80      	pop	{r7, pc}
 8001048:	43b40000 	.word	0x43b40000
 800104c:	40490fdb 	.word	0x40490fdb
 8001050:	43340000 	.word	0x43340000

08001054 <__NVIC_EnableIRQ>:
  \details Enables a device specific interrupt in the NVIC interrupt controller.
  \param [in]      IRQn  Device specific interrupt number.
  \note    IRQn must not be negative.
 */
__STATIC_INLINE void __NVIC_EnableIRQ(IRQn_Type IRQn)
{
 8001054:	b480      	push	{r7}
 8001056:	b083      	sub	sp, #12
 8001058:	af00      	add	r7, sp, #0
 800105a:	4603      	mov	r3, r0
 800105c:	71fb      	strb	r3, [r7, #7]
  if ((int32_t)(IRQn) >= 0)
 800105e:	f997 3007 	ldrsb.w	r3, [r7, #7]
 8001062:	2b00      	cmp	r3, #0
 8001064:	db0b      	blt.n	800107e <__NVIC_EnableIRQ+0x2a>
  {
    __COMPILER_BARRIER();
    NVIC->ISER[(((uint32_t)IRQn) >> 5UL)] = (uint32_t)(1UL << (((uint32_t)IRQn) & 0x1FUL));
 8001066:	79fb      	ldrb	r3, [r7, #7]
 8001068:	f003 021f 	and.w	r2, r3, #31
 800106c:	4907      	ldr	r1, [pc, #28]	@ (800108c <__NVIC_EnableIRQ+0x38>)
 800106e:	f997 3007 	ldrsb.w	r3, [r7, #7]
 8001072:	095b      	lsrs	r3, r3, #5
 8001074:	2001      	movs	r0, #1
 8001076:	fa00 f202 	lsl.w	r2, r0, r2
 800107a:	f841 2023 	str.w	r2, [r1, r3, lsl #2]
    __COMPILER_BARRIER();
  }
}
 800107e:	bf00      	nop
 8001080:	370c      	adds	r7, #12
 8001082:	46bd      	mov	sp, r7
 8001084:	f85d 7b04 	ldr.w	r7, [sp], #4
 8001088:	4770      	bx	lr
 800108a:	bf00      	nop
 800108c:	e000e100 	.word	0xe000e100

08001090 <DMA1_Stream0_IRQHandler>:
volatile uint32_t DMA_LISR = 0;
volatile uint32_t DMA_HISR = 0;


void DMA1_Stream0_IRQHandler(void)
{
 8001090:	b580      	push	{r7, lr}
 8001092:	af00      	add	r7, sp, #0
	DMA_LISR = DMA1 -> LISR;
 8001094:	4b60      	ldr	r3, [pc, #384]	@ (8001218 <DMA1_Stream0_IRQHandler+0x188>)
 8001096:	681b      	ldr	r3, [r3, #0]
 8001098:	4a60      	ldr	r2, [pc, #384]	@ (800121c <DMA1_Stream0_IRQHandler+0x18c>)
 800109a:	6013      	str	r3, [r2, #0]

	if(DMA_LISR & DMA_LISR_FEIF0)
 800109c:	4b5f      	ldr	r3, [pc, #380]	@ (800121c <DMA1_Stream0_IRQHandler+0x18c>)
 800109e:	681b      	ldr	r3, [r3, #0]
 80010a0:	f003 0301 	and.w	r3, r3, #1
 80010a4:	2b00      	cmp	r3, #0
 80010a6:	d015      	beq.n	80010d4 <DMA1_Stream0_IRQHandler+0x44>
	{

		if(__DMA1_Stream0_Config__->interrupts & DMA_Configuration.DMA_Interrupts.Fifo_Error)
 80010a8:	4b5d      	ldr	r3, [pc, #372]	@ (8001220 <DMA1_Stream0_IRQHandler+0x190>)
 80010aa:	681b      	ldr	r3, [r3, #0]
 80010ac:	69db      	ldr	r3, [r3, #28]
 80010ae:	2280      	movs	r2, #128	@ 0x80
 80010b0:	4013      	ands	r3, r2
 80010b2:	2b00      	cmp	r3, #0
 80010b4:	d00e      	beq.n	80010d4 <DMA1_Stream0_IRQHandler+0x44>
		{
			if (__DMA1_Stream0_Config__ -> ISR_Routines.FIFO_Error_ISR)
 80010b6:	4b5a      	ldr	r3, [pc, #360]	@ (8001220 <DMA1_Stream0_IRQHandler+0x190>)
 80010b8:	681b      	ldr	r3, [r3, #0]
 80010ba:	6bdb      	ldr	r3, [r3, #60]	@ 0x3c
 80010bc:	2b00      	cmp	r3, #0
 80010be:	d009      	beq.n	80010d4 <DMA1_Stream0_IRQHandler+0x44>
			{
				__DMA1_Stream0_Config__ ->ISR_Routines.FIFO_Error_ISR();
 80010c0:	4b57      	ldr	r3, [pc, #348]	@ (8001220 <DMA1_Stream0_IRQHandler+0x190>)
 80010c2:	681b      	ldr	r3, [r3, #0]
 80010c4:	6bdb      	ldr	r3, [r3, #60]	@ 0x3c
 80010c6:	4798      	blx	r3
				DMA1 -> LIFCR |= DMA_LIFCR_CFEIF0;
 80010c8:	4b53      	ldr	r3, [pc, #332]	@ (8001218 <DMA1_Stream0_IRQHandler+0x188>)
 80010ca:	689b      	ldr	r3, [r3, #8]
 80010cc:	4a52      	ldr	r2, [pc, #328]	@ (8001218 <DMA1_Stream0_IRQHandler+0x188>)
 80010ce:	f043 0301 	orr.w	r3, r3, #1
 80010d2:	6093      	str	r3, [r2, #8]
			}
		}
	}

	if(DMA_LISR & DMA_LISR_DMEIF0)
 80010d4:	4b51      	ldr	r3, [pc, #324]	@ (800121c <DMA1_Stream0_IRQHandler+0x18c>)
 80010d6:	681b      	ldr	r3, [r3, #0]
 80010d8:	f003 0304 	and.w	r3, r3, #4
 80010dc:	2b00      	cmp	r3, #0
 80010de:	d015      	beq.n	800110c <DMA1_Stream0_IRQHandler+0x7c>
	{
		if(__DMA1_Stream0_Config__->interrupts & DMA_Configuration.DMA_Interrupts.Direct_Mode_Error)
 80010e0:	4b4f      	ldr	r3, [pc, #316]	@ (8001220 <DMA1_Stream0_IRQHandler+0x190>)
 80010e2:	681b      	ldr	r3, [r3, #0]
 80010e4:	69db      	ldr	r3, [r3, #28]
 80010e6:	2202      	movs	r2, #2
 80010e8:	4013      	ands	r3, r2
 80010ea:	2b00      	cmp	r3, #0
 80010ec:	d00e      	beq.n	800110c <DMA1_Stream0_IRQHandler+0x7c>
		{
			if (__DMA1_Stream0_Config__ -> ISR_Routines.Direct_Mode_Error_ISR)
 80010ee:	4b4c      	ldr	r3, [pc, #304]	@ (8001220 <DMA1_Stream0_IRQHandler+0x190>)
 80010f0:	681b      	ldr	r3, [r3, #0]
 80010f2:	6c1b      	ldr	r3, [r3, #64]	@ 0x40
 80010f4:	2b00      	cmp	r3, #0
 80010f6:	d009      	beq.n	800110c <DMA1_Stream0_IRQHandler+0x7c>
			{
				__DMA1_Stream0_Config__ ->ISR_Routines.Direct_Mode_Error_ISR();
 80010f8:	4b49      	ldr	r3, [pc, #292]	@ (8001220 <DMA1_Stream0_IRQHandler+0x190>)
 80010fa:	681b      	ldr	r3, [r3, #0]
 80010fc:	6c1b      	ldr	r3, [r3, #64]	@ 0x40
 80010fe:	4798      	blx	r3
				DMA1 -> LIFCR |= DMA_LIFCR_CDMEIF0;
 8001100:	4b45      	ldr	r3, [pc, #276]	@ (8001218 <DMA1_Stream0_IRQHandler+0x188>)
 8001102:	689b      	ldr	r3, [r3, #8]
 8001104:	4a44      	ldr	r2, [pc, #272]	@ (8001218 <DMA1_Stream0_IRQHandler+0x188>)
 8001106:	f043 0304 	orr.w	r3, r3, #4
 800110a:	6093      	str	r3, [r2, #8]
			}
		}
	}

	if(DMA_LISR & DMA_LISR_TEIF0)
 800110c:	4b43      	ldr	r3, [pc, #268]	@ (800121c <DMA1_Stream0_IRQHandler+0x18c>)
 800110e:	681b      	ldr	r3, [r3, #0]
 8001110:	f003 0308 	and.w	r3, r3, #8
 8001114:	2b00      	cmp	r3, #0
 8001116:	d015      	beq.n	8001144 <DMA1_Stream0_IRQHandler+0xb4>
	{
		if(__DMA1_Stream0_Config__->interrupts & DMA_Configuration.DMA_Interrupts.Transfer_Error)
 8001118:	4b41      	ldr	r3, [pc, #260]	@ (8001220 <DMA1_Stream0_IRQHandler+0x190>)
 800111a:	681b      	ldr	r3, [r3, #0]
 800111c:	69db      	ldr	r3, [r3, #28]
 800111e:	2204      	movs	r2, #4
 8001120:	4013      	ands	r3, r2
 8001122:	2b00      	cmp	r3, #0
 8001124:	d00e      	beq.n	8001144 <DMA1_Stream0_IRQHandler+0xb4>
		{
			if (__DMA1_Stream0_Config__ -> ISR_Routines.Transfer_Error_ISR)
 8001126:	4b3e      	ldr	r3, [pc, #248]	@ (8001220 <DMA1_Stream0_IRQHandler+0x190>)
 8001128:	681b      	ldr	r3, [r3, #0]
 800112a:	6c5b      	ldr	r3, [r3, #68]	@ 0x44
 800112c:	2b00      	cmp	r3, #0
 800112e:	d009      	beq.n	8001144 <DMA1_Stream0_IRQHandler+0xb4>
			{
				__DMA1_Stream0_Config__ ->ISR_Routines.Transfer_Error_ISR();
 8001130:	4b3b      	ldr	r3, [pc, #236]	@ (8001220 <DMA1_Stream0_IRQHandler+0x190>)
 8001132:	681b      	ldr	r3, [r3, #0]
 8001134:	6c5b      	ldr	r3, [r3, #68]	@ 0x44
 8001136:	4798      	blx	r3
				DMA1 -> LIFCR |= DMA_LIFCR_CTEIF0;
 8001138:	4b37      	ldr	r3, [pc, #220]	@ (8001218 <DMA1_Stream0_IRQHandler+0x188>)
 800113a:	689b      	ldr	r3, [r3, #8]
 800113c:	4a36      	ldr	r2, [pc, #216]	@ (8001218 <DMA1_Stream0_IRQHandler+0x188>)
 800113e:	f043 0308 	orr.w	r3, r3, #8
 8001142:	6093      	str	r3, [r2, #8]
			}
		}
	}

	if(DMA_LISR & DMA_LISR_HTIF0)
 8001144:	4b35      	ldr	r3, [pc, #212]	@ (800121c <DMA1_Stream0_IRQHandler+0x18c>)
 8001146:	681b      	ldr	r3, [r3, #0]
 8001148:	f003 0310 	and.w	r3, r3, #16
 800114c:	2b00      	cmp	r3, #0
 800114e:	d02d      	beq.n	80011ac <DMA1_Stream0_IRQHandler+0x11c>
	{
		if(__DMA1_Stream0_Config__->interrupts & DMA_Configuration.DMA_Interrupts.Half_Transfer_Complete)
 8001150:	4b33      	ldr	r3, [pc, #204]	@ (8001220 <DMA1_Stream0_IRQHandler+0x190>)
 8001152:	681b      	ldr	r3, [r3, #0]
 8001154:	69db      	ldr	r3, [r3, #28]
 8001156:	2208      	movs	r2, #8
 8001158:	4013      	ands	r3, r2
 800115a:	2b00      	cmp	r3, #0
 800115c:	d026      	beq.n	80011ac <DMA1_Stream0_IRQHandler+0x11c>
		{
			if (__DMA1_Stream0_Config__ -> ISR_Routines.Half_Transfer_Complete_ISR)
 800115e:	4b30      	ldr	r3, [pc, #192]	@ (8001220 <DMA1_Stream0_IRQHandler+0x190>)
 8001160:	681b      	ldr	r3, [r3, #0]
 8001162:	6c9b      	ldr	r3, [r3, #72]	@ 0x48
 8001164:	2b00      	cmp	r3, #0
 8001166:	d021      	beq.n	80011ac <DMA1_Stream0_IRQHandler+0x11c>
			{
				__DMA1_Stream0_Config__ ->ISR_Routines.Half_Transfer_Complete_ISR();
 8001168:	4b2d      	ldr	r3, [pc, #180]	@ (8001220 <DMA1_Stream0_IRQHandler+0x190>)
 800116a:	681b      	ldr	r3, [r3, #0]
 800116c:	6c9b      	ldr	r3, [r3, #72]	@ 0x48
 800116e:	4798      	blx	r3
				DMA1 -> LIFCR |= DMA_LIFCR_CHTIF0;
 8001170:	4b29      	ldr	r3, [pc, #164]	@ (8001218 <DMA1_Stream0_IRQHandler+0x188>)
 8001172:	689b      	ldr	r3, [r3, #8]
 8001174:	4a28      	ldr	r2, [pc, #160]	@ (8001218 <DMA1_Stream0_IRQHandler+0x188>)
 8001176:	f043 0310 	orr.w	r3, r3, #16
 800117a:	6093      	str	r3, [r2, #8]

				if(__DMA1_Stream0_Config__->double_buffer_mode == DMA_Configuration.Double_Buffer_Mode.Enable )
 800117c:	4b28      	ldr	r3, [pc, #160]	@ (8001220 <DMA1_Stream0_IRQHandler+0x190>)
 800117e:	681b      	ldr	r3, [r3, #0]
 8001180:	6b9b      	ldr	r3, [r3, #56]	@ 0x38
 8001182:	f44f 2280 	mov.w	r2, #262144	@ 0x40000
 8001186:	4293      	cmp	r3, r2
 8001188:	d110      	bne.n	80011ac <DMA1_Stream0_IRQHandler+0x11c>
				{
					if((__DMA1_Stream0_Config__->Request.Stream->CR & DMA_SxCR_DBM_Msk) != 0)
 800118a:	4b25      	ldr	r3, [pc, #148]	@ (8001220 <DMA1_Stream0_IRQHandler+0x190>)
 800118c:	681b      	ldr	r3, [r3, #0]
 800118e:	685b      	ldr	r3, [r3, #4]
 8001190:	681b      	ldr	r3, [r3, #0]
 8001192:	f403 2380 	and.w	r3, r3, #262144	@ 0x40000
 8001196:	2b00      	cmp	r3, #0
 8001198:	d004      	beq.n	80011a4 <DMA1_Stream0_IRQHandler+0x114>
					{
						__DMA1_Stream0_Config__ -> ISR_Routines.Double_Buffer_Mode_Target_1_ISR();
 800119a:	4b21      	ldr	r3, [pc, #132]	@ (8001220 <DMA1_Stream0_IRQHandler+0x190>)
 800119c:	681b      	ldr	r3, [r3, #0]
 800119e:	6d1b      	ldr	r3, [r3, #80]	@ 0x50
 80011a0:	4798      	blx	r3
 80011a2:	e003      	b.n	80011ac <DMA1_Stream0_IRQHandler+0x11c>
					}
					else
					{
						__DMA1_Stream0_Config__ -> ISR_Routines.Double_Buffer_Mode_Target_2_ISR();
 80011a4:	4b1e      	ldr	r3, [pc, #120]	@ (8001220 <DMA1_Stream0_IRQHandler+0x190>)
 80011a6:	681b      	ldr	r3, [r3, #0]
 80011a8:	6d5b      	ldr	r3, [r3, #84]	@ 0x54
 80011aa:	4798      	blx	r3
				}
			}
		}
	}

	if(DMA_LISR & DMA_LISR_TCIF0)
 80011ac:	4b1b      	ldr	r3, [pc, #108]	@ (800121c <DMA1_Stream0_IRQHandler+0x18c>)
 80011ae:	681b      	ldr	r3, [r3, #0]
 80011b0:	f003 0320 	and.w	r3, r3, #32
 80011b4:	2b00      	cmp	r3, #0
 80011b6:	d02d      	beq.n	8001214 <DMA1_Stream0_IRQHandler+0x184>
	{
		if(__DMA1_Stream0_Config__->interrupts & DMA_Configuration.DMA_Interrupts.Transfer_Complete)
 80011b8:	4b19      	ldr	r3, [pc, #100]	@ (8001220 <DMA1_Stream0_IRQHandler+0x190>)
 80011ba:	681b      	ldr	r3, [r3, #0]
 80011bc:	69db      	ldr	r3, [r3, #28]
 80011be:	2210      	movs	r2, #16
 80011c0:	4013      	ands	r3, r2
 80011c2:	2b00      	cmp	r3, #0
 80011c4:	d026      	beq.n	8001214 <DMA1_Stream0_IRQHandler+0x184>
		{
			if (__DMA1_Stream0_Config__ -> ISR_Routines.Full_Transfer_Commplete_ISR)
 80011c6:	4b16      	ldr	r3, [pc, #88]	@ (8001220 <DMA1_Stream0_IRQHandler+0x190>)
 80011c8:	681b      	ldr	r3, [r3, #0]
 80011ca:	6cdb      	ldr	r3, [r3, #76]	@ 0x4c
 80011cc:	2b00      	cmp	r3, #0
 80011ce:	d021      	beq.n	8001214 <DMA1_Stream0_IRQHandler+0x184>
			{
				__DMA1_Stream0_Config__ ->ISR_Routines.Half_Transfer_Complete_ISR();
 80011d0:	4b13      	ldr	r3, [pc, #76]	@ (8001220 <DMA1_Stream0_IRQHandler+0x190>)
 80011d2:	681b      	ldr	r3, [r3, #0]
 80011d4:	6c9b      	ldr	r3, [r3, #72]	@ 0x48
 80011d6:	4798      	blx	r3
				DMA1 -> LIFCR |= DMA_LIFCR_CTCIF0;
 80011d8:	4b0f      	ldr	r3, [pc, #60]	@ (8001218 <DMA1_Stream0_IRQHandler+0x188>)
 80011da:	689b      	ldr	r3, [r3, #8]
 80011dc:	4a0e      	ldr	r2, [pc, #56]	@ (8001218 <DMA1_Stream0_IRQHandler+0x188>)
 80011de:	f043 0320 	orr.w	r3, r3, #32
 80011e2:	6093      	str	r3, [r2, #8]

				if(__DMA1_Stream0_Config__->double_buffer_mode == DMA_Configuration.Double_Buffer_Mode.Enable )
 80011e4:	4b0e      	ldr	r3, [pc, #56]	@ (8001220 <DMA1_Stream0_IRQHandler+0x190>)
 80011e6:	681b      	ldr	r3, [r3, #0]
 80011e8:	6b9b      	ldr	r3, [r3, #56]	@ 0x38
 80011ea:	f44f 2280 	mov.w	r2, #262144	@ 0x40000
 80011ee:	4293      	cmp	r3, r2
 80011f0:	d110      	bne.n	8001214 <DMA1_Stream0_IRQHandler+0x184>
				{
					if((__DMA1_Stream0_Config__->Request.Stream->CR & DMA_SxCR_DBM_Msk) != 0)
 80011f2:	4b0b      	ldr	r3, [pc, #44]	@ (8001220 <DMA1_Stream0_IRQHandler+0x190>)
 80011f4:	681b      	ldr	r3, [r3, #0]
 80011f6:	685b      	ldr	r3, [r3, #4]
 80011f8:	681b      	ldr	r3, [r3, #0]
 80011fa:	f403 2380 	and.w	r3, r3, #262144	@ 0x40000
 80011fe:	2b00      	cmp	r3, #0
 8001200:	d004      	beq.n	800120c <DMA1_Stream0_IRQHandler+0x17c>
					{
						__DMA1_Stream0_Config__ -> ISR_Routines.Double_Buffer_Mode_Target_1_ISR();
 8001202:	4b07      	ldr	r3, [pc, #28]	@ (8001220 <DMA1_Stream0_IRQHandler+0x190>)
 8001204:	681b      	ldr	r3, [r3, #0]
 8001206:	6d1b      	ldr	r3, [r3, #80]	@ 0x50
 8001208:	4798      	blx	r3
				}
			}
		}

	}
}
 800120a:	e003      	b.n	8001214 <DMA1_Stream0_IRQHandler+0x184>
						__DMA1_Stream0_Config__ -> ISR_Routines.Double_Buffer_Mode_Target_2_ISR();
 800120c:	4b04      	ldr	r3, [pc, #16]	@ (8001220 <DMA1_Stream0_IRQHandler+0x190>)
 800120e:	681b      	ldr	r3, [r3, #0]
 8001210:	6d5b      	ldr	r3, [r3, #84]	@ 0x54
 8001212:	4798      	blx	r3
}
 8001214:	bf00      	nop
 8001216:	bd80      	pop	{r7, pc}
 8001218:	40026000 	.word	0x40026000
 800121c:	20000060 	.word	0x20000060
 8001220:	20000020 	.word	0x20000020

08001224 <DMA1_Stream1_IRQHandler>:

void DMA1_Stream1_IRQHandler(void)
{
 8001224:	b580      	push	{r7, lr}
 8001226:	af00      	add	r7, sp, #0
	DMA_LISR = DMA1 -> LISR;
 8001228:	4b60      	ldr	r3, [pc, #384]	@ (80013ac <DMA1_Stream1_IRQHandler+0x188>)
 800122a:	681b      	ldr	r3, [r3, #0]
 800122c:	4a60      	ldr	r2, [pc, #384]	@ (80013b0 <DMA1_Stream1_IRQHandler+0x18c>)
 800122e:	6013      	str	r3, [r2, #0]

	if(DMA_LISR & DMA_LISR_FEIF1)
 8001230:	4b5f      	ldr	r3, [pc, #380]	@ (80013b0 <DMA1_Stream1_IRQHandler+0x18c>)
 8001232:	681b      	ldr	r3, [r3, #0]
 8001234:	f003 0340 	and.w	r3, r3, #64	@ 0x40
 8001238:	2b00      	cmp	r3, #0
 800123a:	d015      	beq.n	8001268 <DMA1_Stream1_IRQHandler+0x44>
	{
		if(__DMA1_Stream1_Config__->interrupts & DMA_Configuration.DMA_Interrupts.Fifo_Error)
 800123c:	4b5d      	ldr	r3, [pc, #372]	@ (80013b4 <DMA1_Stream1_IRQHandler+0x190>)
 800123e:	681b      	ldr	r3, [r3, #0]
 8001240:	69db      	ldr	r3, [r3, #28]
 8001242:	2280      	movs	r2, #128	@ 0x80
 8001244:	4013      	ands	r3, r2
 8001246:	2b00      	cmp	r3, #0
 8001248:	d00e      	beq.n	8001268 <DMA1_Stream1_IRQHandler+0x44>
		{
			if (__DMA1_Stream1_Config__ -> ISR_Routines.FIFO_Error_ISR)
 800124a:	4b5a      	ldr	r3, [pc, #360]	@ (80013b4 <DMA1_Stream1_IRQHandler+0x190>)
 800124c:	681b      	ldr	r3, [r3, #0]
 800124e:	6bdb      	ldr	r3, [r3, #60]	@ 0x3c
 8001250:	2b00      	cmp	r3, #0
 8001252:	d009      	beq.n	8001268 <DMA1_Stream1_IRQHandler+0x44>
			{
				__DMA1_Stream1_Config__ ->ISR_Routines.FIFO_Error_ISR();
 8001254:	4b57      	ldr	r3, [pc, #348]	@ (80013b4 <DMA1_Stream1_IRQHandler+0x190>)
 8001256:	681b      	ldr	r3, [r3, #0]
 8001258:	6bdb      	ldr	r3, [r3, #60]	@ 0x3c
 800125a:	4798      	blx	r3
				DMA1 -> LIFCR |= DMA_LIFCR_CFEIF1;
 800125c:	4b53      	ldr	r3, [pc, #332]	@ (80013ac <DMA1_Stream1_IRQHandler+0x188>)
 800125e:	689b      	ldr	r3, [r3, #8]
 8001260:	4a52      	ldr	r2, [pc, #328]	@ (80013ac <DMA1_Stream1_IRQHandler+0x188>)
 8001262:	f043 0340 	orr.w	r3, r3, #64	@ 0x40
 8001266:	6093      	str	r3, [r2, #8]
			}
		}
	}

	if(DMA_LISR & DMA_LISR_DMEIF1)
 8001268:	4b51      	ldr	r3, [pc, #324]	@ (80013b0 <DMA1_Stream1_IRQHandler+0x18c>)
 800126a:	681b      	ldr	r3, [r3, #0]
 800126c:	f403 7380 	and.w	r3, r3, #256	@ 0x100
 8001270:	2b00      	cmp	r3, #0
 8001272:	d015      	beq.n	80012a0 <DMA1_Stream1_IRQHandler+0x7c>
	{
		if(__DMA1_Stream1_Config__->interrupts & DMA_Configuration.DMA_Interrupts.Direct_Mode_Error)
 8001274:	4b4f      	ldr	r3, [pc, #316]	@ (80013b4 <DMA1_Stream1_IRQHandler+0x190>)
 8001276:	681b      	ldr	r3, [r3, #0]
 8001278:	69db      	ldr	r3, [r3, #28]
 800127a:	2202      	movs	r2, #2
 800127c:	4013      	ands	r3, r2
 800127e:	2b00      	cmp	r3, #0
 8001280:	d00e      	beq.n	80012a0 <DMA1_Stream1_IRQHandler+0x7c>
		{
			if (__DMA1_Stream1_Config__ -> ISR_Routines.Direct_Mode_Error_ISR)
 8001282:	4b4c      	ldr	r3, [pc, #304]	@ (80013b4 <DMA1_Stream1_IRQHandler+0x190>)
 8001284:	681b      	ldr	r3, [r3, #0]
 8001286:	6c1b      	ldr	r3, [r3, #64]	@ 0x40
 8001288:	2b00      	cmp	r3, #0
 800128a:	d009      	beq.n	80012a0 <DMA1_Stream1_IRQHandler+0x7c>
			{
				__DMA1_Stream1_Config__ ->ISR_Routines.Direct_Mode_Error_ISR();
 800128c:	4b49      	ldr	r3, [pc, #292]	@ (80013b4 <DMA1_Stream1_IRQHandler+0x190>)
 800128e:	681b      	ldr	r3, [r3, #0]
 8001290:	6c1b      	ldr	r3, [r3, #64]	@ 0x40
 8001292:	4798      	blx	r3
				DMA1 -> LIFCR |= DMA_LIFCR_CDMEIF1;
 8001294:	4b45      	ldr	r3, [pc, #276]	@ (80013ac <DMA1_Stream1_IRQHandler+0x188>)
 8001296:	689b      	ldr	r3, [r3, #8]
 8001298:	4a44      	ldr	r2, [pc, #272]	@ (80013ac <DMA1_Stream1_IRQHandler+0x188>)
 800129a:	f443 7380 	orr.w	r3, r3, #256	@ 0x100
 800129e:	6093      	str	r3, [r2, #8]
			}
		}
	}

	if(DMA_LISR & DMA_LISR_TEIF1)
 80012a0:	4b43      	ldr	r3, [pc, #268]	@ (80013b0 <DMA1_Stream1_IRQHandler+0x18c>)
 80012a2:	681b      	ldr	r3, [r3, #0]
 80012a4:	f403 7300 	and.w	r3, r3, #512	@ 0x200
 80012a8:	2b00      	cmp	r3, #0
 80012aa:	d015      	beq.n	80012d8 <DMA1_Stream1_IRQHandler+0xb4>
	{
		if(__DMA1_Stream1_Config__->interrupts & DMA_Configuration.DMA_Interrupts.Transfer_Error)
 80012ac:	4b41      	ldr	r3, [pc, #260]	@ (80013b4 <DMA1_Stream1_IRQHandler+0x190>)
 80012ae:	681b      	ldr	r3, [r3, #0]
 80012b0:	69db      	ldr	r3, [r3, #28]
 80012b2:	2204      	movs	r2, #4
 80012b4:	4013      	ands	r3, r2
 80012b6:	2b00      	cmp	r3, #0
 80012b8:	d00e      	beq.n	80012d8 <DMA1_Stream1_IRQHandler+0xb4>
		{
			if (__DMA1_Stream1_Config__ -> ISR_Routines.Transfer_Error_ISR)
 80012ba:	4b3e      	ldr	r3, [pc, #248]	@ (80013b4 <DMA1_Stream1_IRQHandler+0x190>)
 80012bc:	681b      	ldr	r3, [r3, #0]
 80012be:	6c5b      	ldr	r3, [r3, #68]	@ 0x44
 80012c0:	2b00      	cmp	r3, #0
 80012c2:	d009      	beq.n	80012d8 <DMA1_Stream1_IRQHandler+0xb4>
			{
				__DMA1_Stream1_Config__ ->ISR_Routines.Transfer_Error_ISR();
 80012c4:	4b3b      	ldr	r3, [pc, #236]	@ (80013b4 <DMA1_Stream1_IRQHandler+0x190>)
 80012c6:	681b      	ldr	r3, [r3, #0]
 80012c8:	6c5b      	ldr	r3, [r3, #68]	@ 0x44
 80012ca:	4798      	blx	r3
				DMA1 -> LIFCR |= DMA_LIFCR_CTEIF1;
 80012cc:	4b37      	ldr	r3, [pc, #220]	@ (80013ac <DMA1_Stream1_IRQHandler+0x188>)
 80012ce:	689b      	ldr	r3, [r3, #8]
 80012d0:	4a36      	ldr	r2, [pc, #216]	@ (80013ac <DMA1_Stream1_IRQHandler+0x188>)
 80012d2:	f443 7300 	orr.w	r3, r3, #512	@ 0x200
 80012d6:	6093      	str	r3, [r2, #8]
			}
		}
	}

	if(DMA_LISR & DMA_LISR_HTIF1)
 80012d8:	4b35      	ldr	r3, [pc, #212]	@ (80013b0 <DMA1_Stream1_IRQHandler+0x18c>)
 80012da:	681b      	ldr	r3, [r3, #0]
 80012dc:	f403 6380 	and.w	r3, r3, #1024	@ 0x400
 80012e0:	2b00      	cmp	r3, #0
 80012e2:	d02d      	beq.n	8001340 <DMA1_Stream1_IRQHandler+0x11c>
	{
		if(__DMA1_Stream1_Config__->interrupts & DMA_Configuration.DMA_Interrupts.Half_Transfer_Complete)
 80012e4:	4b33      	ldr	r3, [pc, #204]	@ (80013b4 <DMA1_Stream1_IRQHandler+0x190>)
 80012e6:	681b      	ldr	r3, [r3, #0]
 80012e8:	69db      	ldr	r3, [r3, #28]
 80012ea:	2208      	movs	r2, #8
 80012ec:	4013      	ands	r3, r2
 80012ee:	2b00      	cmp	r3, #0
 80012f0:	d026      	beq.n	8001340 <DMA1_Stream1_IRQHandler+0x11c>
		{
			if (__DMA1_Stream1_Config__ -> ISR_Routines.Half_Transfer_Complete_ISR)
 80012f2:	4b30      	ldr	r3, [pc, #192]	@ (80013b4 <DMA1_Stream1_IRQHandler+0x190>)
 80012f4:	681b      	ldr	r3, [r3, #0]
 80012f6:	6c9b      	ldr	r3, [r3, #72]	@ 0x48
 80012f8:	2b00      	cmp	r3, #0
 80012fa:	d021      	beq.n	8001340 <DMA1_Stream1_IRQHandler+0x11c>
			{
				__DMA1_Stream1_Config__ ->ISR_Routines.Half_Transfer_Complete_ISR();
 80012fc:	4b2d      	ldr	r3, [pc, #180]	@ (80013b4 <DMA1_Stream1_IRQHandler+0x190>)
 80012fe:	681b      	ldr	r3, [r3, #0]
 8001300:	6c9b      	ldr	r3, [r3, #72]	@ 0x48
 8001302:	4798      	blx	r3
				DMA1 -> LIFCR |= DMA_LIFCR_CHTIF1;
 8001304:	4b29      	ldr	r3, [pc, #164]	@ (80013ac <DMA1_Stream1_IRQHandler+0x188>)
 8001306:	689b      	ldr	r3, [r3, #8]
 8001308:	4a28      	ldr	r2, [pc, #160]	@ (80013ac <DMA1_Stream1_IRQHandler+0x188>)
 800130a:	f443 6380 	orr.w	r3, r3, #1024	@ 0x400
 800130e:	6093      	str	r3, [r2, #8]

				if(__DMA1_Stream1_Config__->double_buffer_mode == DMA_Configuration.Double_Buffer_Mode.Enable )
 8001310:	4b28      	ldr	r3, [pc, #160]	@ (80013b4 <DMA1_Stream1_IRQHandler+0x190>)
 8001312:	681b      	ldr	r3, [r3, #0]
 8001314:	6b9b      	ldr	r3, [r3, #56]	@ 0x38
 8001316:	f44f 2280 	mov.w	r2, #262144	@ 0x40000
 800131a:	4293      	cmp	r3, r2
 800131c:	d110      	bne.n	8001340 <DMA1_Stream1_IRQHandler+0x11c>
				{
					if((__DMA1_Stream1_Config__->Request.Stream->CR & DMA_SxCR_DBM_Msk) != 0)
 800131e:	4b25      	ldr	r3, [pc, #148]	@ (80013b4 <DMA1_Stream1_IRQHandler+0x190>)
 8001320:	681b      	ldr	r3, [r3, #0]
 8001322:	685b      	ldr	r3, [r3, #4]
 8001324:	681b      	ldr	r3, [r3, #0]
 8001326:	f403 2380 	and.w	r3, r3, #262144	@ 0x40000
 800132a:	2b00      	cmp	r3, #0
 800132c:	d004      	beq.n	8001338 <DMA1_Stream1_IRQHandler+0x114>
					{
						__DMA1_Stream1_Config__ -> ISR_Routines.Double_Buffer_Mode_Target_1_ISR();
 800132e:	4b21      	ldr	r3, [pc, #132]	@ (80013b4 <DMA1_Stream1_IRQHandler+0x190>)
 8001330:	681b      	ldr	r3, [r3, #0]
 8001332:	6d1b      	ldr	r3, [r3, #80]	@ 0x50
 8001334:	4798      	blx	r3
 8001336:	e003      	b.n	8001340 <DMA1_Stream1_IRQHandler+0x11c>
					}
					else
					{
						__DMA1_Stream1_Config__ -> ISR_Routines.Double_Buffer_Mode_Target_2_ISR();
 8001338:	4b1e      	ldr	r3, [pc, #120]	@ (80013b4 <DMA1_Stream1_IRQHandler+0x190>)
 800133a:	681b      	ldr	r3, [r3, #0]
 800133c:	6d5b      	ldr	r3, [r3, #84]	@ 0x54
 800133e:	4798      	blx	r3
				}
			}
		}
	}

	if(DMA_LISR & DMA_LISR_TCIF1)
 8001340:	4b1b      	ldr	r3, [pc, #108]	@ (80013b0 <DMA1_Stream1_IRQHandler+0x18c>)
 8001342:	681b      	ldr	r3, [r3, #0]
 8001344:	f403 6300 	and.w	r3, r3, #2048	@ 0x800
 8001348:	2b00      	cmp	r3, #0
 800134a:	d02d      	beq.n	80013a8 <DMA1_Stream1_IRQHandler+0x184>
	{
		if(__DMA1_Stream1_Config__->interrupts & DMA_Configuration.DMA_Interrupts.Transfer_Complete)
 800134c:	4b19      	ldr	r3, [pc, #100]	@ (80013b4 <DMA1_Stream1_IRQHandler+0x190>)
 800134e:	681b      	ldr	r3, [r3, #0]
 8001350:	69db      	ldr	r3, [r3, #28]
 8001352:	2210      	movs	r2, #16
 8001354:	4013      	ands	r3, r2
 8001356:	2b00      	cmp	r3, #0
 8001358:	d026      	beq.n	80013a8 <DMA1_Stream1_IRQHandler+0x184>
		{
			if (__DMA1_Stream1_Config__ -> ISR_Routines.Full_Transfer_Commplete_ISR)
 800135a:	4b16      	ldr	r3, [pc, #88]	@ (80013b4 <DMA1_Stream1_IRQHandler+0x190>)
 800135c:	681b      	ldr	r3, [r3, #0]
 800135e:	6cdb      	ldr	r3, [r3, #76]	@ 0x4c
 8001360:	2b00      	cmp	r3, #0
 8001362:	d021      	beq.n	80013a8 <DMA1_Stream1_IRQHandler+0x184>
			{
				__DMA1_Stream1_Config__ ->ISR_Routines.Half_Transfer_Complete_ISR();
 8001364:	4b13      	ldr	r3, [pc, #76]	@ (80013b4 <DMA1_Stream1_IRQHandler+0x190>)
 8001366:	681b      	ldr	r3, [r3, #0]
 8001368:	6c9b      	ldr	r3, [r3, #72]	@ 0x48
 800136a:	4798      	blx	r3
				DMA1 -> LIFCR |= DMA_LIFCR_CTCIF1;
 800136c:	4b0f      	ldr	r3, [pc, #60]	@ (80013ac <DMA1_Stream1_IRQHandler+0x188>)
 800136e:	689b      	ldr	r3, [r3, #8]
 8001370:	4a0e      	ldr	r2, [pc, #56]	@ (80013ac <DMA1_Stream1_IRQHandler+0x188>)
 8001372:	f443 6300 	orr.w	r3, r3, #2048	@ 0x800
 8001376:	6093      	str	r3, [r2, #8]

				if(__DMA1_Stream1_Config__->double_buffer_mode == DMA_Configuration.Double_Buffer_Mode.Enable )
 8001378:	4b0e      	ldr	r3, [pc, #56]	@ (80013b4 <DMA1_Stream1_IRQHandler+0x190>)
 800137a:	681b      	ldr	r3, [r3, #0]
 800137c:	6b9b      	ldr	r3, [r3, #56]	@ 0x38
 800137e:	f44f 2280 	mov.w	r2, #262144	@ 0x40000
 8001382:	4293      	cmp	r3, r2
 8001384:	d110      	bne.n	80013a8 <DMA1_Stream1_IRQHandler+0x184>
				{
					if((__DMA1_Stream1_Config__->Request.Stream->CR & DMA_SxCR_DBM_Msk) != 0)
 8001386:	4b0b      	ldr	r3, [pc, #44]	@ (80013b4 <DMA1_Stream1_IRQHandler+0x190>)
 8001388:	681b      	ldr	r3, [r3, #0]
 800138a:	685b      	ldr	r3, [r3, #4]
 800138c:	681b      	ldr	r3, [r3, #0]
 800138e:	f403 2380 	and.w	r3, r3, #262144	@ 0x40000
 8001392:	2b00      	cmp	r3, #0
 8001394:	d004      	beq.n	80013a0 <DMA1_Stream1_IRQHandler+0x17c>
					{
						__DMA1_Stream1_Config__ -> ISR_Routines.Double_Buffer_Mode_Target_1_ISR();
 8001396:	4b07      	ldr	r3, [pc, #28]	@ (80013b4 <DMA1_Stream1_IRQHandler+0x190>)
 8001398:	681b      	ldr	r3, [r3, #0]
 800139a:	6d1b      	ldr	r3, [r3, #80]	@ 0x50
 800139c:	4798      	blx	r3
					}
				}
			}
		}
	}
}
 800139e:	e003      	b.n	80013a8 <DMA1_Stream1_IRQHandler+0x184>
						__DMA1_Stream1_Config__ -> ISR_Routines.Double_Buffer_Mode_Target_2_ISR();
 80013a0:	4b04      	ldr	r3, [pc, #16]	@ (80013b4 <DMA1_Stream1_IRQHandler+0x190>)
 80013a2:	681b      	ldr	r3, [r3, #0]
 80013a4:	6d5b      	ldr	r3, [r3, #84]	@ 0x54
 80013a6:	4798      	blx	r3
}
 80013a8:	bf00      	nop
 80013aa:	bd80      	pop	{r7, pc}
 80013ac:	40026000 	.word	0x40026000
 80013b0:	20000060 	.word	0x20000060
 80013b4:	20000024 	.word	0x20000024

080013b8 <DMA1_Stream2_IRQHandler>:


void DMA1_Stream2_IRQHandler(void)
{
 80013b8:	b580      	push	{r7, lr}
 80013ba:	af00      	add	r7, sp, #0
	DMA_LISR = DMA1 -> LISR;
 80013bc:	4b64      	ldr	r3, [pc, #400]	@ (8001550 <DMA1_Stream2_IRQHandler+0x198>)
 80013be:	681b      	ldr	r3, [r3, #0]
 80013c0:	4a64      	ldr	r2, [pc, #400]	@ (8001554 <DMA1_Stream2_IRQHandler+0x19c>)
 80013c2:	6013      	str	r3, [r2, #0]

	if(DMA_LISR & DMA_LISR_FEIF2)
 80013c4:	4b63      	ldr	r3, [pc, #396]	@ (8001554 <DMA1_Stream2_IRQHandler+0x19c>)
 80013c6:	681b      	ldr	r3, [r3, #0]
 80013c8:	f403 3380 	and.w	r3, r3, #65536	@ 0x10000
 80013cc:	2b00      	cmp	r3, #0
 80013ce:	d015      	beq.n	80013fc <DMA1_Stream2_IRQHandler+0x44>
	{
		if(__DMA1_Stream2_Config__->interrupts & DMA_Configuration.DMA_Interrupts.Fifo_Error)
 80013d0:	4b61      	ldr	r3, [pc, #388]	@ (8001558 <DMA1_Stream2_IRQHandler+0x1a0>)
 80013d2:	681b      	ldr	r3, [r3, #0]
 80013d4:	69db      	ldr	r3, [r3, #28]
 80013d6:	2280      	movs	r2, #128	@ 0x80
 80013d8:	4013      	ands	r3, r2
 80013da:	2b00      	cmp	r3, #0
 80013dc:	d00e      	beq.n	80013fc <DMA1_Stream2_IRQHandler+0x44>
		{
			if (__DMA1_Stream2_Config__ -> ISR_Routines.FIFO_Error_ISR)
 80013de:	4b5e      	ldr	r3, [pc, #376]	@ (8001558 <DMA1_Stream2_IRQHandler+0x1a0>)
 80013e0:	681b      	ldr	r3, [r3, #0]
 80013e2:	6bdb      	ldr	r3, [r3, #60]	@ 0x3c
 80013e4:	2b00      	cmp	r3, #0
 80013e6:	d009      	beq.n	80013fc <DMA1_Stream2_IRQHandler+0x44>
			{
				__DMA1_Stream2_Config__ ->ISR_Routines.FIFO_Error_ISR();
 80013e8:	4b5b      	ldr	r3, [pc, #364]	@ (8001558 <DMA1_Stream2_IRQHandler+0x1a0>)
 80013ea:	681b      	ldr	r3, [r3, #0]
 80013ec:	6bdb      	ldr	r3, [r3, #60]	@ 0x3c
 80013ee:	4798      	blx	r3
				DMA1 -> LIFCR |= DMA_LIFCR_CFEIF2;
 80013f0:	4b57      	ldr	r3, [pc, #348]	@ (8001550 <DMA1_Stream2_IRQHandler+0x198>)
 80013f2:	689b      	ldr	r3, [r3, #8]
 80013f4:	4a56      	ldr	r2, [pc, #344]	@ (8001550 <DMA1_Stream2_IRQHandler+0x198>)
 80013f6:	f443 3380 	orr.w	r3, r3, #65536	@ 0x10000
 80013fa:	6093      	str	r3, [r2, #8]
			}
		}
	}

	if(DMA_LISR & DMA_LISR_DMEIF2)
 80013fc:	4b55      	ldr	r3, [pc, #340]	@ (8001554 <DMA1_Stream2_IRQHandler+0x19c>)
 80013fe:	681b      	ldr	r3, [r3, #0]
 8001400:	f403 2380 	and.w	r3, r3, #262144	@ 0x40000
 8001404:	2b00      	cmp	r3, #0
 8001406:	d015      	beq.n	8001434 <DMA1_Stream2_IRQHandler+0x7c>
	{
		if(__DMA1_Stream2_Config__->interrupts & DMA_Configuration.DMA_Interrupts.Direct_Mode_Error)
 8001408:	4b53      	ldr	r3, [pc, #332]	@ (8001558 <DMA1_Stream2_IRQHandler+0x1a0>)
 800140a:	681b      	ldr	r3, [r3, #0]
 800140c:	69db      	ldr	r3, [r3, #28]
 800140e:	2202      	movs	r2, #2
 8001410:	4013      	ands	r3, r2
 8001412:	2b00      	cmp	r3, #0
 8001414:	d00e      	beq.n	8001434 <DMA1_Stream2_IRQHandler+0x7c>
		{
			if (__DMA1_Stream2_Config__ -> ISR_Routines.Direct_Mode_Error_ISR)
 8001416:	4b50      	ldr	r3, [pc, #320]	@ (8001558 <DMA1_Stream2_IRQHandler+0x1a0>)
 8001418:	681b      	ldr	r3, [r3, #0]
 800141a:	6c1b      	ldr	r3, [r3, #64]	@ 0x40
 800141c:	2b00      	cmp	r3, #0
 800141e:	d009      	beq.n	8001434 <DMA1_Stream2_IRQHandler+0x7c>
			{
				__DMA1_Stream2_Config__ ->ISR_Routines.Direct_Mode_Error_ISR();
 8001420:	4b4d      	ldr	r3, [pc, #308]	@ (8001558 <DMA1_Stream2_IRQHandler+0x1a0>)
 8001422:	681b      	ldr	r3, [r3, #0]
 8001424:	6c1b      	ldr	r3, [r3, #64]	@ 0x40
 8001426:	4798      	blx	r3
				DMA1 -> LIFCR |= DMA_LIFCR_CDMEIF2;
 8001428:	4b49      	ldr	r3, [pc, #292]	@ (8001550 <DMA1_Stream2_IRQHandler+0x198>)
 800142a:	689b      	ldr	r3, [r3, #8]
 800142c:	4a48      	ldr	r2, [pc, #288]	@ (8001550 <DMA1_Stream2_IRQHandler+0x198>)
 800142e:	f443 2380 	orr.w	r3, r3, #262144	@ 0x40000
 8001432:	6093      	str	r3, [r2, #8]
			}
		}
	}

	if(DMA_LISR & DMA_LISR_TEIF2)
 8001434:	4b47      	ldr	r3, [pc, #284]	@ (8001554 <DMA1_Stream2_IRQHandler+0x19c>)
 8001436:	681b      	ldr	r3, [r3, #0]
 8001438:	f403 2300 	and.w	r3, r3, #524288	@ 0x80000
 800143c:	2b00      	cmp	r3, #0
 800143e:	d01c      	beq.n	800147a <DMA1_Stream2_IRQHandler+0xc2>
	{
		if(__DMA1_Stream2_Config__->interrupts & DMA_Configuration.DMA_Interrupts.Transfer_Error)
 8001440:	4b45      	ldr	r3, [pc, #276]	@ (8001558 <DMA1_Stream2_IRQHandler+0x1a0>)
 8001442:	681b      	ldr	r3, [r3, #0]
 8001444:	69db      	ldr	r3, [r3, #28]
 8001446:	2204      	movs	r2, #4
 8001448:	4013      	ands	r3, r2
 800144a:	2b00      	cmp	r3, #0
 800144c:	d015      	beq.n	800147a <DMA1_Stream2_IRQHandler+0xc2>
		{
			if(__DMA1_Stream2_Config__->interrupts & DMA_Configuration.DMA_Interrupts.Transfer_Error)
 800144e:	4b42      	ldr	r3, [pc, #264]	@ (8001558 <DMA1_Stream2_IRQHandler+0x1a0>)
 8001450:	681b      	ldr	r3, [r3, #0]
 8001452:	69db      	ldr	r3, [r3, #28]
 8001454:	2204      	movs	r2, #4
 8001456:	4013      	ands	r3, r2
 8001458:	2b00      	cmp	r3, #0
 800145a:	d00e      	beq.n	800147a <DMA1_Stream2_IRQHandler+0xc2>
			{
				if (__DMA1_Stream2_Config__ -> ISR_Routines.Transfer_Error_ISR)
 800145c:	4b3e      	ldr	r3, [pc, #248]	@ (8001558 <DMA1_Stream2_IRQHandler+0x1a0>)
 800145e:	681b      	ldr	r3, [r3, #0]
 8001460:	6c5b      	ldr	r3, [r3, #68]	@ 0x44
 8001462:	2b00      	cmp	r3, #0
 8001464:	d009      	beq.n	800147a <DMA1_Stream2_IRQHandler+0xc2>
				{
					__DMA1_Stream2_Config__ ->ISR_Routines.Transfer_Error_ISR();
 8001466:	4b3c      	ldr	r3, [pc, #240]	@ (8001558 <DMA1_Stream2_IRQHandler+0x1a0>)
 8001468:	681b      	ldr	r3, [r3, #0]
 800146a:	6c5b      	ldr	r3, [r3, #68]	@ 0x44
 800146c:	4798      	blx	r3
					DMA1 -> LIFCR |= DMA_LIFCR_CTEIF2;
 800146e:	4b38      	ldr	r3, [pc, #224]	@ (8001550 <DMA1_Stream2_IRQHandler+0x198>)
 8001470:	689b      	ldr	r3, [r3, #8]
 8001472:	4a37      	ldr	r2, [pc, #220]	@ (8001550 <DMA1_Stream2_IRQHandler+0x198>)
 8001474:	f443 2300 	orr.w	r3, r3, #524288	@ 0x80000
 8001478:	6093      	str	r3, [r2, #8]
				}
			}
		}
	}

	if(DMA_LISR & DMA_LISR_HTIF2)
 800147a:	4b36      	ldr	r3, [pc, #216]	@ (8001554 <DMA1_Stream2_IRQHandler+0x19c>)
 800147c:	681b      	ldr	r3, [r3, #0]
 800147e:	f403 1380 	and.w	r3, r3, #1048576	@ 0x100000
 8001482:	2b00      	cmp	r3, #0
 8001484:	d02d      	beq.n	80014e2 <DMA1_Stream2_IRQHandler+0x12a>
	{
		if(__DMA1_Stream2_Config__->interrupts & DMA_Configuration.DMA_Interrupts.Half_Transfer_Complete)
 8001486:	4b34      	ldr	r3, [pc, #208]	@ (8001558 <DMA1_Stream2_IRQHandler+0x1a0>)
 8001488:	681b      	ldr	r3, [r3, #0]
 800148a:	69db      	ldr	r3, [r3, #28]
 800148c:	2208      	movs	r2, #8
 800148e:	4013      	ands	r3, r2
 8001490:	2b00      	cmp	r3, #0
 8001492:	d026      	beq.n	80014e2 <DMA1_Stream2_IRQHandler+0x12a>
		{
			if (__DMA1_Stream2_Config__ -> ISR_Routines.Half_Transfer_Complete_ISR)
 8001494:	4b30      	ldr	r3, [pc, #192]	@ (8001558 <DMA1_Stream2_IRQHandler+0x1a0>)
 8001496:	681b      	ldr	r3, [r3, #0]
 8001498:	6c9b      	ldr	r3, [r3, #72]	@ 0x48
 800149a:	2b00      	cmp	r3, #0
 800149c:	d021      	beq.n	80014e2 <DMA1_Stream2_IRQHandler+0x12a>
			{
				__DMA1_Stream2_Config__ ->ISR_Routines.Half_Transfer_Complete_ISR();
 800149e:	4b2e      	ldr	r3, [pc, #184]	@ (8001558 <DMA1_Stream2_IRQHandler+0x1a0>)
 80014a0:	681b      	ldr	r3, [r3, #0]
 80014a2:	6c9b      	ldr	r3, [r3, #72]	@ 0x48
 80014a4:	4798      	blx	r3
				DMA1 -> LIFCR |= DMA_LIFCR_CHTIF2;
 80014a6:	4b2a      	ldr	r3, [pc, #168]	@ (8001550 <DMA1_Stream2_IRQHandler+0x198>)
 80014a8:	689b      	ldr	r3, [r3, #8]
 80014aa:	4a29      	ldr	r2, [pc, #164]	@ (8001550 <DMA1_Stream2_IRQHandler+0x198>)
 80014ac:	f443 1380 	orr.w	r3, r3, #1048576	@ 0x100000
 80014b0:	6093      	str	r3, [r2, #8]

				if(__DMA1_Stream2_Config__->double_buffer_mode == DMA_Configuration.Double_Buffer_Mode.Enable )
 80014b2:	4b29      	ldr	r3, [pc, #164]	@ (8001558 <DMA1_Stream2_IRQHandler+0x1a0>)
 80014b4:	681b      	ldr	r3, [r3, #0]
 80014b6:	6b9b      	ldr	r3, [r3, #56]	@ 0x38
 80014b8:	f44f 2280 	mov.w	r2, #262144	@ 0x40000
 80014bc:	4293      	cmp	r3, r2
 80014be:	d110      	bne.n	80014e2 <DMA1_Stream2_IRQHandler+0x12a>
				{
					if((__DMA1_Stream2_Config__->Request.Stream->CR & DMA_SxCR_DBM_Msk) != 0)
 80014c0:	4b25      	ldr	r3, [pc, #148]	@ (8001558 <DMA1_Stream2_IRQHandler+0x1a0>)
 80014c2:	681b      	ldr	r3, [r3, #0]
 80014c4:	685b      	ldr	r3, [r3, #4]
 80014c6:	681b      	ldr	r3, [r3, #0]
 80014c8:	f403 2380 	and.w	r3, r3, #262144	@ 0x40000
 80014cc:	2b00      	cmp	r3, #0
 80014ce:	d004      	beq.n	80014da <DMA1_Stream2_IRQHandler+0x122>
					{
						__DMA1_Stream2_Config__ -> ISR_Routines.Double_Buffer_Mode_Target_1_ISR();
 80014d0:	4b21      	ldr	r3, [pc, #132]	@ (8001558 <DMA1_Stream2_IRQHandler+0x1a0>)
 80014d2:	681b      	ldr	r3, [r3, #0]
 80014d4:	6d1b      	ldr	r3, [r3, #80]	@ 0x50
 80014d6:	4798      	blx	r3
 80014d8:	e003      	b.n	80014e2 <DMA1_Stream2_IRQHandler+0x12a>
					}
					else
					{
						__DMA1_Stream2_Config__ -> ISR_Routines.Double_Buffer_Mode_Target_2_ISR();
 80014da:	4b1f      	ldr	r3, [pc, #124]	@ (8001558 <DMA1_Stream2_IRQHandler+0x1a0>)
 80014dc:	681b      	ldr	r3, [r3, #0]
 80014de:	6d5b      	ldr	r3, [r3, #84]	@ 0x54
 80014e0:	4798      	blx	r3
				}
			}
		}
	}

	if(DMA_LISR & DMA_LISR_TCIF2)
 80014e2:	4b1c      	ldr	r3, [pc, #112]	@ (8001554 <DMA1_Stream2_IRQHandler+0x19c>)
 80014e4:	681b      	ldr	r3, [r3, #0]
 80014e6:	f403 1300 	and.w	r3, r3, #2097152	@ 0x200000
 80014ea:	2b00      	cmp	r3, #0
 80014ec:	d02d      	beq.n	800154a <DMA1_Stream2_IRQHandler+0x192>
	{
		if(__DMA1_Stream2_Config__->interrupts & DMA_Configuration.DMA_Interrupts.Half_Transfer_Complete)
 80014ee:	4b1a      	ldr	r3, [pc, #104]	@ (8001558 <DMA1_Stream2_IRQHandler+0x1a0>)
 80014f0:	681b      	ldr	r3, [r3, #0]
 80014f2:	69db      	ldr	r3, [r3, #28]
 80014f4:	2208      	movs	r2, #8
 80014f6:	4013      	ands	r3, r2
 80014f8:	2b00      	cmp	r3, #0
 80014fa:	d026      	beq.n	800154a <DMA1_Stream2_IRQHandler+0x192>
		{
			if (__DMA1_Stream2_Config__ -> ISR_Routines.Full_Transfer_Commplete_ISR)
 80014fc:	4b16      	ldr	r3, [pc, #88]	@ (8001558 <DMA1_Stream2_IRQHandler+0x1a0>)
 80014fe:	681b      	ldr	r3, [r3, #0]
 8001500:	6cdb      	ldr	r3, [r3, #76]	@ 0x4c
 8001502:	2b00      	cmp	r3, #0
 8001504:	d021      	beq.n	800154a <DMA1_Stream2_IRQHandler+0x192>
			{
				__DMA1_Stream2_Config__ ->ISR_Routines.Half_Transfer_Complete_ISR();
 8001506:	4b14      	ldr	r3, [pc, #80]	@ (8001558 <DMA1_Stream2_IRQHandler+0x1a0>)
 8001508:	681b      	ldr	r3, [r3, #0]
 800150a:	6c9b      	ldr	r3, [r3, #72]	@ 0x48
 800150c:	4798      	blx	r3
				DMA1 -> LIFCR |= DMA_LIFCR_CTCIF2;
 800150e:	4b10      	ldr	r3, [pc, #64]	@ (8001550 <DMA1_Stream2_IRQHandler+0x198>)
 8001510:	689b      	ldr	r3, [r3, #8]
 8001512:	4a0f      	ldr	r2, [pc, #60]	@ (8001550 <DMA1_Stream2_IRQHandler+0x198>)
 8001514:	f443 1300 	orr.w	r3, r3, #2097152	@ 0x200000
 8001518:	6093      	str	r3, [r2, #8]

				if(__DMA1_Stream2_Config__->double_buffer_mode == DMA_Configuration.Double_Buffer_Mode.Enable )
 800151a:	4b0f      	ldr	r3, [pc, #60]	@ (8001558 <DMA1_Stream2_IRQHandler+0x1a0>)
 800151c:	681b      	ldr	r3, [r3, #0]
 800151e:	6b9b      	ldr	r3, [r3, #56]	@ 0x38
 8001520:	f44f 2280 	mov.w	r2, #262144	@ 0x40000
 8001524:	4293      	cmp	r3, r2
 8001526:	d110      	bne.n	800154a <DMA1_Stream2_IRQHandler+0x192>
				{
					if((__DMA1_Stream2_Config__->Request.Stream->CR & DMA_SxCR_DBM_Msk) != 0)
 8001528:	4b0b      	ldr	r3, [pc, #44]	@ (8001558 <DMA1_Stream2_IRQHandler+0x1a0>)
 800152a:	681b      	ldr	r3, [r3, #0]
 800152c:	685b      	ldr	r3, [r3, #4]
 800152e:	681b      	ldr	r3, [r3, #0]
 8001530:	f403 2380 	and.w	r3, r3, #262144	@ 0x40000
 8001534:	2b00      	cmp	r3, #0
 8001536:	d004      	beq.n	8001542 <DMA1_Stream2_IRQHandler+0x18a>
					{
						__DMA1_Stream2_Config__ -> ISR_Routines.Double_Buffer_Mode_Target_1_ISR();
 8001538:	4b07      	ldr	r3, [pc, #28]	@ (8001558 <DMA1_Stream2_IRQHandler+0x1a0>)
 800153a:	681b      	ldr	r3, [r3, #0]
 800153c:	6d1b      	ldr	r3, [r3, #80]	@ 0x50
 800153e:	4798      	blx	r3
					}
				}
			}
		}
	}
}
 8001540:	e003      	b.n	800154a <DMA1_Stream2_IRQHandler+0x192>
						__DMA1_Stream2_Config__ -> ISR_Routines.Double_Buffer_Mode_Target_2_ISR();
 8001542:	4b05      	ldr	r3, [pc, #20]	@ (8001558 <DMA1_Stream2_IRQHandler+0x1a0>)
 8001544:	681b      	ldr	r3, [r3, #0]
 8001546:	6d5b      	ldr	r3, [r3, #84]	@ 0x54
 8001548:	4798      	blx	r3
}
 800154a:	bf00      	nop
 800154c:	bd80      	pop	{r7, pc}
 800154e:	bf00      	nop
 8001550:	40026000 	.word	0x40026000
 8001554:	20000060 	.word	0x20000060
 8001558:	20000028 	.word	0x20000028

0800155c <DMA1_Stream3_IRQHandler>:

void DMA1_Stream3_IRQHandler(void)
{
 800155c:	b580      	push	{r7, lr}
 800155e:	af00      	add	r7, sp, #0
	DMA_LISR = DMA1 -> LISR;
 8001560:	4b60      	ldr	r3, [pc, #384]	@ (80016e4 <DMA1_Stream3_IRQHandler+0x188>)
 8001562:	681b      	ldr	r3, [r3, #0]
 8001564:	4a60      	ldr	r2, [pc, #384]	@ (80016e8 <DMA1_Stream3_IRQHandler+0x18c>)
 8001566:	6013      	str	r3, [r2, #0]

	if(DMA_LISR & DMA_LISR_FEIF3)
 8001568:	4b5f      	ldr	r3, [pc, #380]	@ (80016e8 <DMA1_Stream3_IRQHandler+0x18c>)
 800156a:	681b      	ldr	r3, [r3, #0]
 800156c:	f403 0380 	and.w	r3, r3, #4194304	@ 0x400000
 8001570:	2b00      	cmp	r3, #0
 8001572:	d015      	beq.n	80015a0 <DMA1_Stream3_IRQHandler+0x44>
	{
		if(__DMA1_Stream3_Config__->interrupts & DMA_Configuration.DMA_Interrupts.Fifo_Error)
 8001574:	4b5d      	ldr	r3, [pc, #372]	@ (80016ec <DMA1_Stream3_IRQHandler+0x190>)
 8001576:	681b      	ldr	r3, [r3, #0]
 8001578:	69db      	ldr	r3, [r3, #28]
 800157a:	2280      	movs	r2, #128	@ 0x80
 800157c:	4013      	ands	r3, r2
 800157e:	2b00      	cmp	r3, #0
 8001580:	d00e      	beq.n	80015a0 <DMA1_Stream3_IRQHandler+0x44>
		{
			if (__DMA1_Stream3_Config__ -> ISR_Routines.FIFO_Error_ISR)
 8001582:	4b5a      	ldr	r3, [pc, #360]	@ (80016ec <DMA1_Stream3_IRQHandler+0x190>)
 8001584:	681b      	ldr	r3, [r3, #0]
 8001586:	6bdb      	ldr	r3, [r3, #60]	@ 0x3c
 8001588:	2b00      	cmp	r3, #0
 800158a:	d009      	beq.n	80015a0 <DMA1_Stream3_IRQHandler+0x44>
			{
				__DMA1_Stream3_Config__ ->ISR_Routines.FIFO_Error_ISR();
 800158c:	4b57      	ldr	r3, [pc, #348]	@ (80016ec <DMA1_Stream3_IRQHandler+0x190>)
 800158e:	681b      	ldr	r3, [r3, #0]
 8001590:	6bdb      	ldr	r3, [r3, #60]	@ 0x3c
 8001592:	4798      	blx	r3
				DMA1 -> LIFCR |= DMA_LIFCR_CFEIF3;
 8001594:	4b53      	ldr	r3, [pc, #332]	@ (80016e4 <DMA1_Stream3_IRQHandler+0x188>)
 8001596:	689b      	ldr	r3, [r3, #8]
 8001598:	4a52      	ldr	r2, [pc, #328]	@ (80016e4 <DMA1_Stream3_IRQHandler+0x188>)
 800159a:	f443 0380 	orr.w	r3, r3, #4194304	@ 0x400000
 800159e:	6093      	str	r3, [r2, #8]
			}
		}

	}

	if(DMA_LISR & DMA_LISR_DMEIF3)
 80015a0:	4b51      	ldr	r3, [pc, #324]	@ (80016e8 <DMA1_Stream3_IRQHandler+0x18c>)
 80015a2:	681b      	ldr	r3, [r3, #0]
 80015a4:	f003 7380 	and.w	r3, r3, #16777216	@ 0x1000000
 80015a8:	2b00      	cmp	r3, #0
 80015aa:	d015      	beq.n	80015d8 <DMA1_Stream3_IRQHandler+0x7c>
	{
		if(__DMA1_Stream3_Config__->interrupts & DMA_Configuration.DMA_Interrupts.Direct_Mode_Error)
 80015ac:	4b4f      	ldr	r3, [pc, #316]	@ (80016ec <DMA1_Stream3_IRQHandler+0x190>)
 80015ae:	681b      	ldr	r3, [r3, #0]
 80015b0:	69db      	ldr	r3, [r3, #28]
 80015b2:	2202      	movs	r2, #2
 80015b4:	4013      	ands	r3, r2
 80015b6:	2b00      	cmp	r3, #0
 80015b8:	d00e      	beq.n	80015d8 <DMA1_Stream3_IRQHandler+0x7c>
		{
			if (__DMA1_Stream3_Config__ -> ISR_Routines.Direct_Mode_Error_ISR)
 80015ba:	4b4c      	ldr	r3, [pc, #304]	@ (80016ec <DMA1_Stream3_IRQHandler+0x190>)
 80015bc:	681b      	ldr	r3, [r3, #0]
 80015be:	6c1b      	ldr	r3, [r3, #64]	@ 0x40
 80015c0:	2b00      	cmp	r3, #0
 80015c2:	d009      	beq.n	80015d8 <DMA1_Stream3_IRQHandler+0x7c>
			{
				__DMA1_Stream3_Config__ ->ISR_Routines.Direct_Mode_Error_ISR();
 80015c4:	4b49      	ldr	r3, [pc, #292]	@ (80016ec <DMA1_Stream3_IRQHandler+0x190>)
 80015c6:	681b      	ldr	r3, [r3, #0]
 80015c8:	6c1b      	ldr	r3, [r3, #64]	@ 0x40
 80015ca:	4798      	blx	r3
				DMA1 -> LIFCR |= DMA_LIFCR_CDMEIF3;
 80015cc:	4b45      	ldr	r3, [pc, #276]	@ (80016e4 <DMA1_Stream3_IRQHandler+0x188>)
 80015ce:	689b      	ldr	r3, [r3, #8]
 80015d0:	4a44      	ldr	r2, [pc, #272]	@ (80016e4 <DMA1_Stream3_IRQHandler+0x188>)
 80015d2:	f043 7380 	orr.w	r3, r3, #16777216	@ 0x1000000
 80015d6:	6093      	str	r3, [r2, #8]
			}
		}

	}

	if(DMA_LISR & DMA_LISR_TEIF3)
 80015d8:	4b43      	ldr	r3, [pc, #268]	@ (80016e8 <DMA1_Stream3_IRQHandler+0x18c>)
 80015da:	681b      	ldr	r3, [r3, #0]
 80015dc:	f003 7300 	and.w	r3, r3, #33554432	@ 0x2000000
 80015e0:	2b00      	cmp	r3, #0
 80015e2:	d015      	beq.n	8001610 <DMA1_Stream3_IRQHandler+0xb4>
	{
		if(__DMA1_Stream3_Config__->interrupts & DMA_Configuration.DMA_Interrupts.Transfer_Error)
 80015e4:	4b41      	ldr	r3, [pc, #260]	@ (80016ec <DMA1_Stream3_IRQHandler+0x190>)
 80015e6:	681b      	ldr	r3, [r3, #0]
 80015e8:	69db      	ldr	r3, [r3, #28]
 80015ea:	2204      	movs	r2, #4
 80015ec:	4013      	ands	r3, r2
 80015ee:	2b00      	cmp	r3, #0
 80015f0:	d00e      	beq.n	8001610 <DMA1_Stream3_IRQHandler+0xb4>
		{
			if (__DMA1_Stream3_Config__ -> ISR_Routines.Transfer_Error_ISR)
 80015f2:	4b3e      	ldr	r3, [pc, #248]	@ (80016ec <DMA1_Stream3_IRQHandler+0x190>)
 80015f4:	681b      	ldr	r3, [r3, #0]
 80015f6:	6c5b      	ldr	r3, [r3, #68]	@ 0x44
 80015f8:	2b00      	cmp	r3, #0
 80015fa:	d009      	beq.n	8001610 <DMA1_Stream3_IRQHandler+0xb4>
			{
				__DMA1_Stream3_Config__ ->ISR_Routines.Transfer_Error_ISR();
 80015fc:	4b3b      	ldr	r3, [pc, #236]	@ (80016ec <DMA1_Stream3_IRQHandler+0x190>)
 80015fe:	681b      	ldr	r3, [r3, #0]
 8001600:	6c5b      	ldr	r3, [r3, #68]	@ 0x44
 8001602:	4798      	blx	r3
				DMA1 -> LIFCR |= DMA_LIFCR_CTEIF3;
 8001604:	4b37      	ldr	r3, [pc, #220]	@ (80016e4 <DMA1_Stream3_IRQHandler+0x188>)
 8001606:	689b      	ldr	r3, [r3, #8]
 8001608:	4a36      	ldr	r2, [pc, #216]	@ (80016e4 <DMA1_Stream3_IRQHandler+0x188>)
 800160a:	f043 7300 	orr.w	r3, r3, #33554432	@ 0x2000000
 800160e:	6093      	str	r3, [r2, #8]
			}
		}
	}

	if(DMA_LISR & DMA_LISR_HTIF3)
 8001610:	4b35      	ldr	r3, [pc, #212]	@ (80016e8 <DMA1_Stream3_IRQHandler+0x18c>)
 8001612:	681b      	ldr	r3, [r3, #0]
 8001614:	f003 6380 	and.w	r3, r3, #67108864	@ 0x4000000
 8001618:	2b00      	cmp	r3, #0
 800161a:	d02d      	beq.n	8001678 <DMA1_Stream3_IRQHandler+0x11c>
	{
		if(__DMA1_Stream3_Config__->interrupts & DMA_Configuration.DMA_Interrupts.Half_Transfer_Complete)
 800161c:	4b33      	ldr	r3, [pc, #204]	@ (80016ec <DMA1_Stream3_IRQHandler+0x190>)
 800161e:	681b      	ldr	r3, [r3, #0]
 8001620:	69db      	ldr	r3, [r3, #28]
 8001622:	2208      	movs	r2, #8
 8001624:	4013      	ands	r3, r2
 8001626:	2b00      	cmp	r3, #0
 8001628:	d026      	beq.n	8001678 <DMA1_Stream3_IRQHandler+0x11c>
		{
			if (__DMA1_Stream3_Config__ -> ISR_Routines.Half_Transfer_Complete_ISR)
 800162a:	4b30      	ldr	r3, [pc, #192]	@ (80016ec <DMA1_Stream3_IRQHandler+0x190>)
 800162c:	681b      	ldr	r3, [r3, #0]
 800162e:	6c9b      	ldr	r3, [r3, #72]	@ 0x48
 8001630:	2b00      	cmp	r3, #0
 8001632:	d021      	beq.n	8001678 <DMA1_Stream3_IRQHandler+0x11c>
			{
				__DMA1_Stream3_Config__ ->ISR_Routines.Half_Transfer_Complete_ISR();
 8001634:	4b2d      	ldr	r3, [pc, #180]	@ (80016ec <DMA1_Stream3_IRQHandler+0x190>)
 8001636:	681b      	ldr	r3, [r3, #0]
 8001638:	6c9b      	ldr	r3, [r3, #72]	@ 0x48
 800163a:	4798      	blx	r3
				DMA1 -> LIFCR |= DMA_LIFCR_CHTIF3;
 800163c:	4b29      	ldr	r3, [pc, #164]	@ (80016e4 <DMA1_Stream3_IRQHandler+0x188>)
 800163e:	689b      	ldr	r3, [r3, #8]
 8001640:	4a28      	ldr	r2, [pc, #160]	@ (80016e4 <DMA1_Stream3_IRQHandler+0x188>)
 8001642:	f043 6380 	orr.w	r3, r3, #67108864	@ 0x4000000
 8001646:	6093      	str	r3, [r2, #8]

				if(__DMA1_Stream3_Config__->double_buffer_mode == DMA_Configuration.Double_Buffer_Mode.Enable )
 8001648:	4b28      	ldr	r3, [pc, #160]	@ (80016ec <DMA1_Stream3_IRQHandler+0x190>)
 800164a:	681b      	ldr	r3, [r3, #0]
 800164c:	6b9b      	ldr	r3, [r3, #56]	@ 0x38
 800164e:	f44f 2280 	mov.w	r2, #262144	@ 0x40000
 8001652:	4293      	cmp	r3, r2
 8001654:	d110      	bne.n	8001678 <DMA1_Stream3_IRQHandler+0x11c>
				{
					if((__DMA1_Stream3_Config__->Request.Stream->CR & DMA_SxCR_DBM_Msk) != 0)
 8001656:	4b25      	ldr	r3, [pc, #148]	@ (80016ec <DMA1_Stream3_IRQHandler+0x190>)
 8001658:	681b      	ldr	r3, [r3, #0]
 800165a:	685b      	ldr	r3, [r3, #4]
 800165c:	681b      	ldr	r3, [r3, #0]
 800165e:	f403 2380 	and.w	r3, r3, #262144	@ 0x40000
 8001662:	2b00      	cmp	r3, #0
 8001664:	d004      	beq.n	8001670 <DMA1_Stream3_IRQHandler+0x114>
					{
						__DMA1_Stream3_Config__ -> ISR_Routines.Double_Buffer_Mode_Target_1_ISR();
 8001666:	4b21      	ldr	r3, [pc, #132]	@ (80016ec <DMA1_Stream3_IRQHandler+0x190>)
 8001668:	681b      	ldr	r3, [r3, #0]
 800166a:	6d1b      	ldr	r3, [r3, #80]	@ 0x50
 800166c:	4798      	blx	r3
 800166e:	e003      	b.n	8001678 <DMA1_Stream3_IRQHandler+0x11c>
					}
					else
					{
						__DMA1_Stream3_Config__ -> ISR_Routines.Double_Buffer_Mode_Target_2_ISR();
 8001670:	4b1e      	ldr	r3, [pc, #120]	@ (80016ec <DMA1_Stream3_IRQHandler+0x190>)
 8001672:	681b      	ldr	r3, [r3, #0]
 8001674:	6d5b      	ldr	r3, [r3, #84]	@ 0x54
 8001676:	4798      	blx	r3
				}
			}
		}
	}

	if(DMA_LISR & DMA_LISR_TCIF3)
 8001678:	4b1b      	ldr	r3, [pc, #108]	@ (80016e8 <DMA1_Stream3_IRQHandler+0x18c>)
 800167a:	681b      	ldr	r3, [r3, #0]
 800167c:	f003 6300 	and.w	r3, r3, #134217728	@ 0x8000000
 8001680:	2b00      	cmp	r3, #0
 8001682:	d02d      	beq.n	80016e0 <DMA1_Stream3_IRQHandler+0x184>
	{
		if(__DMA1_Stream3_Config__->interrupts & DMA_Configuration.DMA_Interrupts.Transfer_Complete)
 8001684:	4b19      	ldr	r3, [pc, #100]	@ (80016ec <DMA1_Stream3_IRQHandler+0x190>)
 8001686:	681b      	ldr	r3, [r3, #0]
 8001688:	69db      	ldr	r3, [r3, #28]
 800168a:	2210      	movs	r2, #16
 800168c:	4013      	ands	r3, r2
 800168e:	2b00      	cmp	r3, #0
 8001690:	d026      	beq.n	80016e0 <DMA1_Stream3_IRQHandler+0x184>
		{
			if (__DMA1_Stream3_Config__ -> ISR_Routines.Full_Transfer_Commplete_ISR)
 8001692:	4b16      	ldr	r3, [pc, #88]	@ (80016ec <DMA1_Stream3_IRQHandler+0x190>)
 8001694:	681b      	ldr	r3, [r3, #0]
 8001696:	6cdb      	ldr	r3, [r3, #76]	@ 0x4c
 8001698:	2b00      	cmp	r3, #0
 800169a:	d021      	beq.n	80016e0 <DMA1_Stream3_IRQHandler+0x184>
			{
				__DMA1_Stream3_Config__ ->ISR_Routines.Half_Transfer_Complete_ISR();
 800169c:	4b13      	ldr	r3, [pc, #76]	@ (80016ec <DMA1_Stream3_IRQHandler+0x190>)
 800169e:	681b      	ldr	r3, [r3, #0]
 80016a0:	6c9b      	ldr	r3, [r3, #72]	@ 0x48
 80016a2:	4798      	blx	r3
				DMA1 -> LIFCR |= DMA_LIFCR_CTCIF3;
 80016a4:	4b0f      	ldr	r3, [pc, #60]	@ (80016e4 <DMA1_Stream3_IRQHandler+0x188>)
 80016a6:	689b      	ldr	r3, [r3, #8]
 80016a8:	4a0e      	ldr	r2, [pc, #56]	@ (80016e4 <DMA1_Stream3_IRQHandler+0x188>)
 80016aa:	f043 6300 	orr.w	r3, r3, #134217728	@ 0x8000000
 80016ae:	6093      	str	r3, [r2, #8]

				if(__DMA1_Stream3_Config__->double_buffer_mode == DMA_Configuration.Double_Buffer_Mode.Enable )
 80016b0:	4b0e      	ldr	r3, [pc, #56]	@ (80016ec <DMA1_Stream3_IRQHandler+0x190>)
 80016b2:	681b      	ldr	r3, [r3, #0]
 80016b4:	6b9b      	ldr	r3, [r3, #56]	@ 0x38
 80016b6:	f44f 2280 	mov.w	r2, #262144	@ 0x40000
 80016ba:	4293      	cmp	r3, r2
 80016bc:	d110      	bne.n	80016e0 <DMA1_Stream3_IRQHandler+0x184>
				{
					if((__DMA1_Stream3_Config__->Request.Stream->CR & DMA_SxCR_DBM_Msk) != 0)
 80016be:	4b0b      	ldr	r3, [pc, #44]	@ (80016ec <DMA1_Stream3_IRQHandler+0x190>)
 80016c0:	681b      	ldr	r3, [r3, #0]
 80016c2:	685b      	ldr	r3, [r3, #4]
 80016c4:	681b      	ldr	r3, [r3, #0]
 80016c6:	f403 2380 	and.w	r3, r3, #262144	@ 0x40000
 80016ca:	2b00      	cmp	r3, #0
 80016cc:	d004      	beq.n	80016d8 <DMA1_Stream3_IRQHandler+0x17c>
					{
						__DMA1_Stream3_Config__ -> ISR_Routines.Double_Buffer_Mode_Target_1_ISR();
 80016ce:	4b07      	ldr	r3, [pc, #28]	@ (80016ec <DMA1_Stream3_IRQHandler+0x190>)
 80016d0:	681b      	ldr	r3, [r3, #0]
 80016d2:	6d1b      	ldr	r3, [r3, #80]	@ 0x50
 80016d4:	4798      	blx	r3
					}
				}
			}
		}
	}
}
 80016d6:	e003      	b.n	80016e0 <DMA1_Stream3_IRQHandler+0x184>
						__DMA1_Stream3_Config__ -> ISR_Routines.Double_Buffer_Mode_Target_2_ISR();
 80016d8:	4b04      	ldr	r3, [pc, #16]	@ (80016ec <DMA1_Stream3_IRQHandler+0x190>)
 80016da:	681b      	ldr	r3, [r3, #0]
 80016dc:	6d5b      	ldr	r3, [r3, #84]	@ 0x54
 80016de:	4798      	blx	r3
}
 80016e0:	bf00      	nop
 80016e2:	bd80      	pop	{r7, pc}
 80016e4:	40026000 	.word	0x40026000
 80016e8:	20000060 	.word	0x20000060
 80016ec:	2000002c 	.word	0x2000002c

080016f0 <DMA1_Stream4_IRQHandler>:

void DMA1_Stream4_IRQHandler(void)
{
 80016f0:	b580      	push	{r7, lr}
 80016f2:	af00      	add	r7, sp, #0
	DMA_HISR = DMA1 -> HISR;
 80016f4:	4b4f      	ldr	r3, [pc, #316]	@ (8001834 <DMA1_Stream4_IRQHandler+0x144>)
 80016f6:	685b      	ldr	r3, [r3, #4]
 80016f8:	4a4f      	ldr	r2, [pc, #316]	@ (8001838 <DMA1_Stream4_IRQHandler+0x148>)
 80016fa:	6013      	str	r3, [r2, #0]

	if(DMA_HISR & DMA_HISR_FEIF4)
 80016fc:	4b4e      	ldr	r3, [pc, #312]	@ (8001838 <DMA1_Stream4_IRQHandler+0x148>)
 80016fe:	681b      	ldr	r3, [r3, #0]
 8001700:	f003 0301 	and.w	r3, r3, #1
 8001704:	2b00      	cmp	r3, #0
 8001706:	d00e      	beq.n	8001726 <DMA1_Stream4_IRQHandler+0x36>
	{
		if (__DMA1_Stream4_Config__ -> ISR_Routines.FIFO_Error_ISR)
 8001708:	4b4c      	ldr	r3, [pc, #304]	@ (800183c <DMA1_Stream4_IRQHandler+0x14c>)
 800170a:	681b      	ldr	r3, [r3, #0]
 800170c:	6bdb      	ldr	r3, [r3, #60]	@ 0x3c
 800170e:	2b00      	cmp	r3, #0
 8001710:	d009      	beq.n	8001726 <DMA1_Stream4_IRQHandler+0x36>
		{
			__DMA1_Stream4_Config__ ->ISR_Routines.FIFO_Error_ISR();
 8001712:	4b4a      	ldr	r3, [pc, #296]	@ (800183c <DMA1_Stream4_IRQHandler+0x14c>)
 8001714:	681b      	ldr	r3, [r3, #0]
 8001716:	6bdb      	ldr	r3, [r3, #60]	@ 0x3c
 8001718:	4798      	blx	r3
			DMA1 -> LIFCR |= DMA_HIFCR_CFEIF5;
 800171a:	4b46      	ldr	r3, [pc, #280]	@ (8001834 <DMA1_Stream4_IRQHandler+0x144>)
 800171c:	689b      	ldr	r3, [r3, #8]
 800171e:	4a45      	ldr	r2, [pc, #276]	@ (8001834 <DMA1_Stream4_IRQHandler+0x144>)
 8001720:	f043 0340 	orr.w	r3, r3, #64	@ 0x40
 8001724:	6093      	str	r3, [r2, #8]
		}
	}

	if(DMA_HISR & DMA_HISR_DMEIF4)
 8001726:	4b44      	ldr	r3, [pc, #272]	@ (8001838 <DMA1_Stream4_IRQHandler+0x148>)
 8001728:	681b      	ldr	r3, [r3, #0]
 800172a:	f003 0304 	and.w	r3, r3, #4
 800172e:	2b00      	cmp	r3, #0
 8001730:	d00e      	beq.n	8001750 <DMA1_Stream4_IRQHandler+0x60>
	{
		if (__DMA1_Stream4_Config__ -> ISR_Routines.Direct_Mode_Error_ISR)
 8001732:	4b42      	ldr	r3, [pc, #264]	@ (800183c <DMA1_Stream4_IRQHandler+0x14c>)
 8001734:	681b      	ldr	r3, [r3, #0]
 8001736:	6c1b      	ldr	r3, [r3, #64]	@ 0x40
 8001738:	2b00      	cmp	r3, #0
 800173a:	d009      	beq.n	8001750 <DMA1_Stream4_IRQHandler+0x60>
		{
			__DMA1_Stream4_Config__ ->ISR_Routines.Direct_Mode_Error_ISR();
 800173c:	4b3f      	ldr	r3, [pc, #252]	@ (800183c <DMA1_Stream4_IRQHandler+0x14c>)
 800173e:	681b      	ldr	r3, [r3, #0]
 8001740:	6c1b      	ldr	r3, [r3, #64]	@ 0x40
 8001742:	4798      	blx	r3
			DMA1 -> HIFCR |= DMA_HIFCR_CDMEIF4;
 8001744:	4b3b      	ldr	r3, [pc, #236]	@ (8001834 <DMA1_Stream4_IRQHandler+0x144>)
 8001746:	68db      	ldr	r3, [r3, #12]
 8001748:	4a3a      	ldr	r2, [pc, #232]	@ (8001834 <DMA1_Stream4_IRQHandler+0x144>)
 800174a:	f043 0304 	orr.w	r3, r3, #4
 800174e:	60d3      	str	r3, [r2, #12]
		}
	}

	if(DMA_HISR & DMA_HISR_TEIF4)
 8001750:	4b39      	ldr	r3, [pc, #228]	@ (8001838 <DMA1_Stream4_IRQHandler+0x148>)
 8001752:	681b      	ldr	r3, [r3, #0]
 8001754:	f003 0308 	and.w	r3, r3, #8
 8001758:	2b00      	cmp	r3, #0
 800175a:	d00e      	beq.n	800177a <DMA1_Stream4_IRQHandler+0x8a>
	{
		if (__DMA1_Stream4_Config__ -> ISR_Routines.Transfer_Error_ISR)
 800175c:	4b37      	ldr	r3, [pc, #220]	@ (800183c <DMA1_Stream4_IRQHandler+0x14c>)
 800175e:	681b      	ldr	r3, [r3, #0]
 8001760:	6c5b      	ldr	r3, [r3, #68]	@ 0x44
 8001762:	2b00      	cmp	r3, #0
 8001764:	d009      	beq.n	800177a <DMA1_Stream4_IRQHandler+0x8a>
		{
			__DMA1_Stream4_Config__ ->ISR_Routines.Transfer_Error_ISR();
 8001766:	4b35      	ldr	r3, [pc, #212]	@ (800183c <DMA1_Stream4_IRQHandler+0x14c>)
 8001768:	681b      	ldr	r3, [r3, #0]
 800176a:	6c5b      	ldr	r3, [r3, #68]	@ 0x44
 800176c:	4798      	blx	r3
			DMA1 -> HIFCR |= DMA_HIFCR_CTEIF4;
 800176e:	4b31      	ldr	r3, [pc, #196]	@ (8001834 <DMA1_Stream4_IRQHandler+0x144>)
 8001770:	68db      	ldr	r3, [r3, #12]
 8001772:	4a30      	ldr	r2, [pc, #192]	@ (8001834 <DMA1_Stream4_IRQHandler+0x144>)
 8001774:	f043 0308 	orr.w	r3, r3, #8
 8001778:	60d3      	str	r3, [r2, #12]
		}
	}

	if(DMA_HISR & DMA_HISR_HTIF4)
 800177a:	4b2f      	ldr	r3, [pc, #188]	@ (8001838 <DMA1_Stream4_IRQHandler+0x148>)
 800177c:	681b      	ldr	r3, [r3, #0]
 800177e:	f003 0310 	and.w	r3, r3, #16
 8001782:	2b00      	cmp	r3, #0
 8001784:	d026      	beq.n	80017d4 <DMA1_Stream4_IRQHandler+0xe4>
	{
		if (__DMA1_Stream4_Config__ -> ISR_Routines.Half_Transfer_Complete_ISR)
 8001786:	4b2d      	ldr	r3, [pc, #180]	@ (800183c <DMA1_Stream4_IRQHandler+0x14c>)
 8001788:	681b      	ldr	r3, [r3, #0]
 800178a:	6c9b      	ldr	r3, [r3, #72]	@ 0x48
 800178c:	2b00      	cmp	r3, #0
 800178e:	d021      	beq.n	80017d4 <DMA1_Stream4_IRQHandler+0xe4>
		{
			__DMA1_Stream4_Config__ ->ISR_Routines.Half_Transfer_Complete_ISR();
 8001790:	4b2a      	ldr	r3, [pc, #168]	@ (800183c <DMA1_Stream4_IRQHandler+0x14c>)
 8001792:	681b      	ldr	r3, [r3, #0]
 8001794:	6c9b      	ldr	r3, [r3, #72]	@ 0x48
 8001796:	4798      	blx	r3
			DMA1 -> HIFCR |= DMA_HIFCR_CHTIF4;
 8001798:	4b26      	ldr	r3, [pc, #152]	@ (8001834 <DMA1_Stream4_IRQHandler+0x144>)
 800179a:	68db      	ldr	r3, [r3, #12]
 800179c:	4a25      	ldr	r2, [pc, #148]	@ (8001834 <DMA1_Stream4_IRQHandler+0x144>)
 800179e:	f043 0310 	orr.w	r3, r3, #16
 80017a2:	60d3      	str	r3, [r2, #12]

			if(__DMA1_Stream4_Config__->double_buffer_mode == DMA_Configuration.Double_Buffer_Mode.Enable )
 80017a4:	4b25      	ldr	r3, [pc, #148]	@ (800183c <DMA1_Stream4_IRQHandler+0x14c>)
 80017a6:	681b      	ldr	r3, [r3, #0]
 80017a8:	6b9b      	ldr	r3, [r3, #56]	@ 0x38
 80017aa:	f44f 2280 	mov.w	r2, #262144	@ 0x40000
 80017ae:	4293      	cmp	r3, r2
 80017b0:	d110      	bne.n	80017d4 <DMA1_Stream4_IRQHandler+0xe4>
			{
				if((__DMA1_Stream4_Config__->Request.Stream->CR & DMA_SxCR_DBM_Msk) != 0)
 80017b2:	4b22      	ldr	r3, [pc, #136]	@ (800183c <DMA1_Stream4_IRQHandler+0x14c>)
 80017b4:	681b      	ldr	r3, [r3, #0]
 80017b6:	685b      	ldr	r3, [r3, #4]
 80017b8:	681b      	ldr	r3, [r3, #0]
 80017ba:	f403 2380 	and.w	r3, r3, #262144	@ 0x40000
 80017be:	2b00      	cmp	r3, #0
 80017c0:	d004      	beq.n	80017cc <DMA1_Stream4_IRQHandler+0xdc>
				{
					__DMA1_Stream4_Config__ -> ISR_Routines.Double_Buffer_Mode_Target_1_ISR();
 80017c2:	4b1e      	ldr	r3, [pc, #120]	@ (800183c <DMA1_Stream4_IRQHandler+0x14c>)
 80017c4:	681b      	ldr	r3, [r3, #0]
 80017c6:	6d1b      	ldr	r3, [r3, #80]	@ 0x50
 80017c8:	4798      	blx	r3
 80017ca:	e003      	b.n	80017d4 <DMA1_Stream4_IRQHandler+0xe4>
				}
				else
				{
					__DMA1_Stream4_Config__ -> ISR_Routines.Double_Buffer_Mode_Target_2_ISR();
 80017cc:	4b1b      	ldr	r3, [pc, #108]	@ (800183c <DMA1_Stream4_IRQHandler+0x14c>)
 80017ce:	681b      	ldr	r3, [r3, #0]
 80017d0:	6d5b      	ldr	r3, [r3, #84]	@ 0x54
 80017d2:	4798      	blx	r3
				}
			}
		}
	}

	if(DMA_HISR & DMA_HISR_TCIF4)
 80017d4:	4b18      	ldr	r3, [pc, #96]	@ (8001838 <DMA1_Stream4_IRQHandler+0x148>)
 80017d6:	681b      	ldr	r3, [r3, #0]
 80017d8:	f003 0320 	and.w	r3, r3, #32
 80017dc:	2b00      	cmp	r3, #0
 80017de:	d026      	beq.n	800182e <DMA1_Stream4_IRQHandler+0x13e>
	{
		if (__DMA1_Stream4_Config__ -> ISR_Routines.Full_Transfer_Commplete_ISR)
 80017e0:	4b16      	ldr	r3, [pc, #88]	@ (800183c <DMA1_Stream4_IRQHandler+0x14c>)
 80017e2:	681b      	ldr	r3, [r3, #0]
 80017e4:	6cdb      	ldr	r3, [r3, #76]	@ 0x4c
 80017e6:	2b00      	cmp	r3, #0
 80017e8:	d021      	beq.n	800182e <DMA1_Stream4_IRQHandler+0x13e>
		{
			__DMA1_Stream4_Config__ ->ISR_Routines.Half_Transfer_Complete_ISR();
 80017ea:	4b14      	ldr	r3, [pc, #80]	@ (800183c <DMA1_Stream4_IRQHandler+0x14c>)
 80017ec:	681b      	ldr	r3, [r3, #0]
 80017ee:	6c9b      	ldr	r3, [r3, #72]	@ 0x48
 80017f0:	4798      	blx	r3
			DMA1 -> HIFCR |= DMA_HIFCR_CTCIF4;
 80017f2:	4b10      	ldr	r3, [pc, #64]	@ (8001834 <DMA1_Stream4_IRQHandler+0x144>)
 80017f4:	68db      	ldr	r3, [r3, #12]
 80017f6:	4a0f      	ldr	r2, [pc, #60]	@ (8001834 <DMA1_Stream4_IRQHandler+0x144>)
 80017f8:	f043 0320 	orr.w	r3, r3, #32
 80017fc:	60d3      	str	r3, [r2, #12]

			if(__DMA1_Stream4_Config__->double_buffer_mode == DMA_Configuration.Double_Buffer_Mode.Enable )
 80017fe:	4b0f      	ldr	r3, [pc, #60]	@ (800183c <DMA1_Stream4_IRQHandler+0x14c>)
 8001800:	681b      	ldr	r3, [r3, #0]
 8001802:	6b9b      	ldr	r3, [r3, #56]	@ 0x38
 8001804:	f44f 2280 	mov.w	r2, #262144	@ 0x40000
 8001808:	4293      	cmp	r3, r2
 800180a:	d110      	bne.n	800182e <DMA1_Stream4_IRQHandler+0x13e>
			{
				if((__DMA1_Stream4_Config__->Request.Stream->CR & DMA_SxCR_DBM_Msk) != 0)
 800180c:	4b0b      	ldr	r3, [pc, #44]	@ (800183c <DMA1_Stream4_IRQHandler+0x14c>)
 800180e:	681b      	ldr	r3, [r3, #0]
 8001810:	685b      	ldr	r3, [r3, #4]
 8001812:	681b      	ldr	r3, [r3, #0]
 8001814:	f403 2380 	and.w	r3, r3, #262144	@ 0x40000
 8001818:	2b00      	cmp	r3, #0
 800181a:	d004      	beq.n	8001826 <DMA1_Stream4_IRQHandler+0x136>
				{
					__DMA1_Stream4_Config__ -> ISR_Routines.Double_Buffer_Mode_Target_1_ISR();
 800181c:	4b07      	ldr	r3, [pc, #28]	@ (800183c <DMA1_Stream4_IRQHandler+0x14c>)
 800181e:	681b      	ldr	r3, [r3, #0]
 8001820:	6d1b      	ldr	r3, [r3, #80]	@ 0x50
 8001822:	4798      	blx	r3
					__DMA1_Stream4_Config__ -> ISR_Routines.Double_Buffer_Mode_Target_2_ISR();
				}
			}
		}
	}
}
 8001824:	e003      	b.n	800182e <DMA1_Stream4_IRQHandler+0x13e>
					__DMA1_Stream4_Config__ -> ISR_Routines.Double_Buffer_Mode_Target_2_ISR();
 8001826:	4b05      	ldr	r3, [pc, #20]	@ (800183c <DMA1_Stream4_IRQHandler+0x14c>)
 8001828:	681b      	ldr	r3, [r3, #0]
 800182a:	6d5b      	ldr	r3, [r3, #84]	@ 0x54
 800182c:	4798      	blx	r3
}
 800182e:	bf00      	nop
 8001830:	bd80      	pop	{r7, pc}
 8001832:	bf00      	nop
 8001834:	40026000 	.word	0x40026000
 8001838:	20000064 	.word	0x20000064
 800183c:	20000030 	.word	0x20000030

08001840 <DMA1_Stream5_IRQHandler>:




void DMA1_Stream5_IRQHandler(void)
{
 8001840:	b580      	push	{r7, lr}
 8001842:	af00      	add	r7, sp, #0
	DMA_HISR = DMA1 -> HISR;
 8001844:	4b4f      	ldr	r3, [pc, #316]	@ (8001984 <DMA1_Stream5_IRQHandler+0x144>)
 8001846:	685b      	ldr	r3, [r3, #4]
 8001848:	4a4f      	ldr	r2, [pc, #316]	@ (8001988 <DMA1_Stream5_IRQHandler+0x148>)
 800184a:	6013      	str	r3, [r2, #0]

	if(DMA_HISR & DMA_HISR_FEIF5)
 800184c:	4b4e      	ldr	r3, [pc, #312]	@ (8001988 <DMA1_Stream5_IRQHandler+0x148>)
 800184e:	681b      	ldr	r3, [r3, #0]
 8001850:	f003 0340 	and.w	r3, r3, #64	@ 0x40
 8001854:	2b00      	cmp	r3, #0
 8001856:	d00e      	beq.n	8001876 <DMA1_Stream5_IRQHandler+0x36>
	{
		if (__DMA1_Stream5_Config__ -> ISR_Routines.FIFO_Error_ISR)
 8001858:	4b4c      	ldr	r3, [pc, #304]	@ (800198c <DMA1_Stream5_IRQHandler+0x14c>)
 800185a:	681b      	ldr	r3, [r3, #0]
 800185c:	6bdb      	ldr	r3, [r3, #60]	@ 0x3c
 800185e:	2b00      	cmp	r3, #0
 8001860:	d009      	beq.n	8001876 <DMA1_Stream5_IRQHandler+0x36>
		{
			__DMA1_Stream5_Config__ ->ISR_Routines.FIFO_Error_ISR();
 8001862:	4b4a      	ldr	r3, [pc, #296]	@ (800198c <DMA1_Stream5_IRQHandler+0x14c>)
 8001864:	681b      	ldr	r3, [r3, #0]
 8001866:	6bdb      	ldr	r3, [r3, #60]	@ 0x3c
 8001868:	4798      	blx	r3
			DMA1 -> HIFCR |= DMA_HIFCR_CFEIF5;
 800186a:	4b46      	ldr	r3, [pc, #280]	@ (8001984 <DMA1_Stream5_IRQHandler+0x144>)
 800186c:	68db      	ldr	r3, [r3, #12]
 800186e:	4a45      	ldr	r2, [pc, #276]	@ (8001984 <DMA1_Stream5_IRQHandler+0x144>)
 8001870:	f043 0340 	orr.w	r3, r3, #64	@ 0x40
 8001874:	60d3      	str	r3, [r2, #12]
		}
	}

	if(DMA_HISR & DMA_HISR_DMEIF5)
 8001876:	4b44      	ldr	r3, [pc, #272]	@ (8001988 <DMA1_Stream5_IRQHandler+0x148>)
 8001878:	681b      	ldr	r3, [r3, #0]
 800187a:	f403 7380 	and.w	r3, r3, #256	@ 0x100
 800187e:	2b00      	cmp	r3, #0
 8001880:	d00e      	beq.n	80018a0 <DMA1_Stream5_IRQHandler+0x60>
	{
		if (__DMA1_Stream5_Config__ -> ISR_Routines.Direct_Mode_Error_ISR)
 8001882:	4b42      	ldr	r3, [pc, #264]	@ (800198c <DMA1_Stream5_IRQHandler+0x14c>)
 8001884:	681b      	ldr	r3, [r3, #0]
 8001886:	6c1b      	ldr	r3, [r3, #64]	@ 0x40
 8001888:	2b00      	cmp	r3, #0
 800188a:	d009      	beq.n	80018a0 <DMA1_Stream5_IRQHandler+0x60>
		{
			__DMA1_Stream5_Config__ ->ISR_Routines.Direct_Mode_Error_ISR();
 800188c:	4b3f      	ldr	r3, [pc, #252]	@ (800198c <DMA1_Stream5_IRQHandler+0x14c>)
 800188e:	681b      	ldr	r3, [r3, #0]
 8001890:	6c1b      	ldr	r3, [r3, #64]	@ 0x40
 8001892:	4798      	blx	r3
			DMA1 -> HIFCR |= DMA_HIFCR_CDMEIF5;
 8001894:	4b3b      	ldr	r3, [pc, #236]	@ (8001984 <DMA1_Stream5_IRQHandler+0x144>)
 8001896:	68db      	ldr	r3, [r3, #12]
 8001898:	4a3a      	ldr	r2, [pc, #232]	@ (8001984 <DMA1_Stream5_IRQHandler+0x144>)
 800189a:	f443 7380 	orr.w	r3, r3, #256	@ 0x100
 800189e:	60d3      	str	r3, [r2, #12]
		}
	}

	if(DMA_HISR & DMA_HISR_TEIF5)
 80018a0:	4b39      	ldr	r3, [pc, #228]	@ (8001988 <DMA1_Stream5_IRQHandler+0x148>)
 80018a2:	681b      	ldr	r3, [r3, #0]
 80018a4:	f403 7300 	and.w	r3, r3, #512	@ 0x200
 80018a8:	2b00      	cmp	r3, #0
 80018aa:	d00e      	beq.n	80018ca <DMA1_Stream5_IRQHandler+0x8a>
	{
		if (__DMA1_Stream5_Config__ -> ISR_Routines.Transfer_Error_ISR)
 80018ac:	4b37      	ldr	r3, [pc, #220]	@ (800198c <DMA1_Stream5_IRQHandler+0x14c>)
 80018ae:	681b      	ldr	r3, [r3, #0]
 80018b0:	6c5b      	ldr	r3, [r3, #68]	@ 0x44
 80018b2:	2b00      	cmp	r3, #0
 80018b4:	d009      	beq.n	80018ca <DMA1_Stream5_IRQHandler+0x8a>
		{
			__DMA1_Stream5_Config__ ->ISR_Routines.Transfer_Error_ISR();
 80018b6:	4b35      	ldr	r3, [pc, #212]	@ (800198c <DMA1_Stream5_IRQHandler+0x14c>)
 80018b8:	681b      	ldr	r3, [r3, #0]
 80018ba:	6c5b      	ldr	r3, [r3, #68]	@ 0x44
 80018bc:	4798      	blx	r3
			DMA1 -> HIFCR |= DMA_HIFCR_CTEIF5;
 80018be:	4b31      	ldr	r3, [pc, #196]	@ (8001984 <DMA1_Stream5_IRQHandler+0x144>)
 80018c0:	68db      	ldr	r3, [r3, #12]
 80018c2:	4a30      	ldr	r2, [pc, #192]	@ (8001984 <DMA1_Stream5_IRQHandler+0x144>)
 80018c4:	f443 7300 	orr.w	r3, r3, #512	@ 0x200
 80018c8:	60d3      	str	r3, [r2, #12]
		}
	}

	if(DMA_HISR & DMA_HISR_HTIF5)
 80018ca:	4b2f      	ldr	r3, [pc, #188]	@ (8001988 <DMA1_Stream5_IRQHandler+0x148>)
 80018cc:	681b      	ldr	r3, [r3, #0]
 80018ce:	f403 6380 	and.w	r3, r3, #1024	@ 0x400
 80018d2:	2b00      	cmp	r3, #0
 80018d4:	d026      	beq.n	8001924 <DMA1_Stream5_IRQHandler+0xe4>
	{
		if (__DMA1_Stream5_Config__ -> ISR_Routines.Half_Transfer_Complete_ISR)
 80018d6:	4b2d      	ldr	r3, [pc, #180]	@ (800198c <DMA1_Stream5_IRQHandler+0x14c>)
 80018d8:	681b      	ldr	r3, [r3, #0]
 80018da:	6c9b      	ldr	r3, [r3, #72]	@ 0x48
 80018dc:	2b00      	cmp	r3, #0
 80018de:	d021      	beq.n	8001924 <DMA1_Stream5_IRQHandler+0xe4>
		{
			__DMA1_Stream5_Config__ ->ISR_Routines.Half_Transfer_Complete_ISR();
 80018e0:	4b2a      	ldr	r3, [pc, #168]	@ (800198c <DMA1_Stream5_IRQHandler+0x14c>)
 80018e2:	681b      	ldr	r3, [r3, #0]
 80018e4:	6c9b      	ldr	r3, [r3, #72]	@ 0x48
 80018e6:	4798      	blx	r3
			DMA1 -> HIFCR |= DMA_HIFCR_CHTIF5;
 80018e8:	4b26      	ldr	r3, [pc, #152]	@ (8001984 <DMA1_Stream5_IRQHandler+0x144>)
 80018ea:	68db      	ldr	r3, [r3, #12]
 80018ec:	4a25      	ldr	r2, [pc, #148]	@ (8001984 <DMA1_Stream5_IRQHandler+0x144>)
 80018ee:	f443 6380 	orr.w	r3, r3, #1024	@ 0x400
 80018f2:	60d3      	str	r3, [r2, #12]

			if(__DMA1_Stream5_Config__->double_buffer_mode == DMA_Configuration.Double_Buffer_Mode.Enable )
 80018f4:	4b25      	ldr	r3, [pc, #148]	@ (800198c <DMA1_Stream5_IRQHandler+0x14c>)
 80018f6:	681b      	ldr	r3, [r3, #0]
 80018f8:	6b9b      	ldr	r3, [r3, #56]	@ 0x38
 80018fa:	f44f 2280 	mov.w	r2, #262144	@ 0x40000
 80018fe:	4293      	cmp	r3, r2
 8001900:	d110      	bne.n	8001924 <DMA1_Stream5_IRQHandler+0xe4>
			{
				if((__DMA1_Stream5_Config__->Request.Stream->CR & DMA_SxCR_DBM_Msk) != 0)
 8001902:	4b22      	ldr	r3, [pc, #136]	@ (800198c <DMA1_Stream5_IRQHandler+0x14c>)
 8001904:	681b      	ldr	r3, [r3, #0]
 8001906:	685b      	ldr	r3, [r3, #4]
 8001908:	681b      	ldr	r3, [r3, #0]
 800190a:	f403 2380 	and.w	r3, r3, #262144	@ 0x40000
 800190e:	2b00      	cmp	r3, #0
 8001910:	d004      	beq.n	800191c <DMA1_Stream5_IRQHandler+0xdc>
				{
					__DMA1_Stream5_Config__ -> ISR_Routines.Double_Buffer_Mode_Target_1_ISR();
 8001912:	4b1e      	ldr	r3, [pc, #120]	@ (800198c <DMA1_Stream5_IRQHandler+0x14c>)
 8001914:	681b      	ldr	r3, [r3, #0]
 8001916:	6d1b      	ldr	r3, [r3, #80]	@ 0x50
 8001918:	4798      	blx	r3
 800191a:	e003      	b.n	8001924 <DMA1_Stream5_IRQHandler+0xe4>
				}
				else
				{
					__DMA1_Stream5_Config__ -> ISR_Routines.Double_Buffer_Mode_Target_2_ISR();
 800191c:	4b1b      	ldr	r3, [pc, #108]	@ (800198c <DMA1_Stream5_IRQHandler+0x14c>)
 800191e:	681b      	ldr	r3, [r3, #0]
 8001920:	6d5b      	ldr	r3, [r3, #84]	@ 0x54
 8001922:	4798      	blx	r3
				}
			}
		}
	}

	if(DMA_HISR & DMA_HISR_TCIF5)
 8001924:	4b18      	ldr	r3, [pc, #96]	@ (8001988 <DMA1_Stream5_IRQHandler+0x148>)
 8001926:	681b      	ldr	r3, [r3, #0]
 8001928:	f403 6300 	and.w	r3, r3, #2048	@ 0x800
 800192c:	2b00      	cmp	r3, #0
 800192e:	d026      	beq.n	800197e <DMA1_Stream5_IRQHandler+0x13e>
	{
		if (__DMA1_Stream5_Config__ -> ISR_Routines.Full_Transfer_Commplete_ISR)
 8001930:	4b16      	ldr	r3, [pc, #88]	@ (800198c <DMA1_Stream5_IRQHandler+0x14c>)
 8001932:	681b      	ldr	r3, [r3, #0]
 8001934:	6cdb      	ldr	r3, [r3, #76]	@ 0x4c
 8001936:	2b00      	cmp	r3, #0
 8001938:	d021      	beq.n	800197e <DMA1_Stream5_IRQHandler+0x13e>
		{
			__DMA1_Stream5_Config__ ->ISR_Routines.Half_Transfer_Complete_ISR();
 800193a:	4b14      	ldr	r3, [pc, #80]	@ (800198c <DMA1_Stream5_IRQHandler+0x14c>)
 800193c:	681b      	ldr	r3, [r3, #0]
 800193e:	6c9b      	ldr	r3, [r3, #72]	@ 0x48
 8001940:	4798      	blx	r3
			DMA1 -> HIFCR |= DMA_HIFCR_CTCIF5;
 8001942:	4b10      	ldr	r3, [pc, #64]	@ (8001984 <DMA1_Stream5_IRQHandler+0x144>)
 8001944:	68db      	ldr	r3, [r3, #12]
 8001946:	4a0f      	ldr	r2, [pc, #60]	@ (8001984 <DMA1_Stream5_IRQHandler+0x144>)
 8001948:	f443 6300 	orr.w	r3, r3, #2048	@ 0x800
 800194c:	60d3      	str	r3, [r2, #12]

			if(__DMA1_Stream5_Config__->double_buffer_mode == DMA_Configuration.Double_Buffer_Mode.Enable )
 800194e:	4b0f      	ldr	r3, [pc, #60]	@ (800198c <DMA1_Stream5_IRQHandler+0x14c>)
 8001950:	681b      	ldr	r3, [r3, #0]
 8001952:	6b9b      	ldr	r3, [r3, #56]	@ 0x38
 8001954:	f44f 2280 	mov.w	r2, #262144	@ 0x40000
 8001958:	4293      	cmp	r3, r2
 800195a:	d110      	bne.n	800197e <DMA1_Stream5_IRQHandler+0x13e>
			{
				if((__DMA1_Stream5_Config__->Request.Stream->CR & DMA_SxCR_DBM_Msk) != 0)
 800195c:	4b0b      	ldr	r3, [pc, #44]	@ (800198c <DMA1_Stream5_IRQHandler+0x14c>)
 800195e:	681b      	ldr	r3, [r3, #0]
 8001960:	685b      	ldr	r3, [r3, #4]
 8001962:	681b      	ldr	r3, [r3, #0]
 8001964:	f403 2380 	and.w	r3, r3, #262144	@ 0x40000
 8001968:	2b00      	cmp	r3, #0
 800196a:	d004      	beq.n	8001976 <DMA1_Stream5_IRQHandler+0x136>
				{
					__DMA1_Stream5_Config__ -> ISR_Routines.Double_Buffer_Mode_Target_1_ISR();
 800196c:	4b07      	ldr	r3, [pc, #28]	@ (800198c <DMA1_Stream5_IRQHandler+0x14c>)
 800196e:	681b      	ldr	r3, [r3, #0]
 8001970:	6d1b      	ldr	r3, [r3, #80]	@ 0x50
 8001972:	4798      	blx	r3
					__DMA1_Stream5_Config__ -> ISR_Routines.Double_Buffer_Mode_Target_2_ISR();
				}
			}
		}
	}
}
 8001974:	e003      	b.n	800197e <DMA1_Stream5_IRQHandler+0x13e>
					__DMA1_Stream5_Config__ -> ISR_Routines.Double_Buffer_Mode_Target_2_ISR();
 8001976:	4b05      	ldr	r3, [pc, #20]	@ (800198c <DMA1_Stream5_IRQHandler+0x14c>)
 8001978:	681b      	ldr	r3, [r3, #0]
 800197a:	6d5b      	ldr	r3, [r3, #84]	@ 0x54
 800197c:	4798      	blx	r3
}
 800197e:	bf00      	nop
 8001980:	bd80      	pop	{r7, pc}
 8001982:	bf00      	nop
 8001984:	40026000 	.word	0x40026000
 8001988:	20000064 	.word	0x20000064
 800198c:	20000034 	.word	0x20000034

08001990 <DMA1_Stream6_IRQHandler>:



void DMA1_Stream6_IRQHandler(void)
{
 8001990:	b580      	push	{r7, lr}
 8001992:	af00      	add	r7, sp, #0
	DMA_HISR = DMA1 -> HISR;
 8001994:	4b4f      	ldr	r3, [pc, #316]	@ (8001ad4 <DMA1_Stream6_IRQHandler+0x144>)
 8001996:	685b      	ldr	r3, [r3, #4]
 8001998:	4a4f      	ldr	r2, [pc, #316]	@ (8001ad8 <DMA1_Stream6_IRQHandler+0x148>)
 800199a:	6013      	str	r3, [r2, #0]

	if(DMA_HISR & DMA_HISR_FEIF6)
 800199c:	4b4e      	ldr	r3, [pc, #312]	@ (8001ad8 <DMA1_Stream6_IRQHandler+0x148>)
 800199e:	681b      	ldr	r3, [r3, #0]
 80019a0:	f403 3380 	and.w	r3, r3, #65536	@ 0x10000
 80019a4:	2b00      	cmp	r3, #0
 80019a6:	d00e      	beq.n	80019c6 <DMA1_Stream6_IRQHandler+0x36>
	{
		if (__DMA1_Stream6_Config__ -> ISR_Routines.FIFO_Error_ISR)
 80019a8:	4b4c      	ldr	r3, [pc, #304]	@ (8001adc <DMA1_Stream6_IRQHandler+0x14c>)
 80019aa:	681b      	ldr	r3, [r3, #0]
 80019ac:	6bdb      	ldr	r3, [r3, #60]	@ 0x3c
 80019ae:	2b00      	cmp	r3, #0
 80019b0:	d009      	beq.n	80019c6 <DMA1_Stream6_IRQHandler+0x36>
		{
			__DMA1_Stream6_Config__ ->ISR_Routines.FIFO_Error_ISR();
 80019b2:	4b4a      	ldr	r3, [pc, #296]	@ (8001adc <DMA1_Stream6_IRQHandler+0x14c>)
 80019b4:	681b      	ldr	r3, [r3, #0]
 80019b6:	6bdb      	ldr	r3, [r3, #60]	@ 0x3c
 80019b8:	4798      	blx	r3
			DMA1 -> HIFCR |= DMA_HIFCR_CFEIF6;
 80019ba:	4b46      	ldr	r3, [pc, #280]	@ (8001ad4 <DMA1_Stream6_IRQHandler+0x144>)
 80019bc:	68db      	ldr	r3, [r3, #12]
 80019be:	4a45      	ldr	r2, [pc, #276]	@ (8001ad4 <DMA1_Stream6_IRQHandler+0x144>)
 80019c0:	f443 3380 	orr.w	r3, r3, #65536	@ 0x10000
 80019c4:	60d3      	str	r3, [r2, #12]
		}
	}

	if(DMA_HISR & DMA_HISR_DMEIF6)
 80019c6:	4b44      	ldr	r3, [pc, #272]	@ (8001ad8 <DMA1_Stream6_IRQHandler+0x148>)
 80019c8:	681b      	ldr	r3, [r3, #0]
 80019ca:	f403 2380 	and.w	r3, r3, #262144	@ 0x40000
 80019ce:	2b00      	cmp	r3, #0
 80019d0:	d00e      	beq.n	80019f0 <DMA1_Stream6_IRQHandler+0x60>
	{
		if (__DMA1_Stream6_Config__ -> ISR_Routines.Direct_Mode_Error_ISR)
 80019d2:	4b42      	ldr	r3, [pc, #264]	@ (8001adc <DMA1_Stream6_IRQHandler+0x14c>)
 80019d4:	681b      	ldr	r3, [r3, #0]
 80019d6:	6c1b      	ldr	r3, [r3, #64]	@ 0x40
 80019d8:	2b00      	cmp	r3, #0
 80019da:	d009      	beq.n	80019f0 <DMA1_Stream6_IRQHandler+0x60>
		{
			__DMA1_Stream6_Config__ ->ISR_Routines.Direct_Mode_Error_ISR();
 80019dc:	4b3f      	ldr	r3, [pc, #252]	@ (8001adc <DMA1_Stream6_IRQHandler+0x14c>)
 80019de:	681b      	ldr	r3, [r3, #0]
 80019e0:	6c1b      	ldr	r3, [r3, #64]	@ 0x40
 80019e2:	4798      	blx	r3
			DMA1 -> HIFCR |= DMA_HIFCR_CDMEIF6;
 80019e4:	4b3b      	ldr	r3, [pc, #236]	@ (8001ad4 <DMA1_Stream6_IRQHandler+0x144>)
 80019e6:	68db      	ldr	r3, [r3, #12]
 80019e8:	4a3a      	ldr	r2, [pc, #232]	@ (8001ad4 <DMA1_Stream6_IRQHandler+0x144>)
 80019ea:	f443 2380 	orr.w	r3, r3, #262144	@ 0x40000
 80019ee:	60d3      	str	r3, [r2, #12]
		}
	}

	if(DMA_HISR & DMA_HISR_TEIF6)
 80019f0:	4b39      	ldr	r3, [pc, #228]	@ (8001ad8 <DMA1_Stream6_IRQHandler+0x148>)
 80019f2:	681b      	ldr	r3, [r3, #0]
 80019f4:	f403 2300 	and.w	r3, r3, #524288	@ 0x80000
 80019f8:	2b00      	cmp	r3, #0
 80019fa:	d00e      	beq.n	8001a1a <DMA1_Stream6_IRQHandler+0x8a>
	{
		if (__DMA1_Stream6_Config__ -> ISR_Routines.Transfer_Error_ISR)
 80019fc:	4b37      	ldr	r3, [pc, #220]	@ (8001adc <DMA1_Stream6_IRQHandler+0x14c>)
 80019fe:	681b      	ldr	r3, [r3, #0]
 8001a00:	6c5b      	ldr	r3, [r3, #68]	@ 0x44
 8001a02:	2b00      	cmp	r3, #0
 8001a04:	d009      	beq.n	8001a1a <DMA1_Stream6_IRQHandler+0x8a>
		{
			__DMA1_Stream6_Config__ ->ISR_Routines.Transfer_Error_ISR();
 8001a06:	4b35      	ldr	r3, [pc, #212]	@ (8001adc <DMA1_Stream6_IRQHandler+0x14c>)
 8001a08:	681b      	ldr	r3, [r3, #0]
 8001a0a:	6c5b      	ldr	r3, [r3, #68]	@ 0x44
 8001a0c:	4798      	blx	r3
			DMA1 -> HIFCR |= DMA_HIFCR_CTEIF6;
 8001a0e:	4b31      	ldr	r3, [pc, #196]	@ (8001ad4 <DMA1_Stream6_IRQHandler+0x144>)
 8001a10:	68db      	ldr	r3, [r3, #12]
 8001a12:	4a30      	ldr	r2, [pc, #192]	@ (8001ad4 <DMA1_Stream6_IRQHandler+0x144>)
 8001a14:	f443 2300 	orr.w	r3, r3, #524288	@ 0x80000
 8001a18:	60d3      	str	r3, [r2, #12]
		}
	}

	if(DMA_HISR & DMA_HISR_HTIF6)
 8001a1a:	4b2f      	ldr	r3, [pc, #188]	@ (8001ad8 <DMA1_Stream6_IRQHandler+0x148>)
 8001a1c:	681b      	ldr	r3, [r3, #0]
 8001a1e:	f403 1380 	and.w	r3, r3, #1048576	@ 0x100000
 8001a22:	2b00      	cmp	r3, #0
 8001a24:	d026      	beq.n	8001a74 <DMA1_Stream6_IRQHandler+0xe4>
	{
		if (__DMA1_Stream6_Config__ -> ISR_Routines.Half_Transfer_Complete_ISR)
 8001a26:	4b2d      	ldr	r3, [pc, #180]	@ (8001adc <DMA1_Stream6_IRQHandler+0x14c>)
 8001a28:	681b      	ldr	r3, [r3, #0]
 8001a2a:	6c9b      	ldr	r3, [r3, #72]	@ 0x48
 8001a2c:	2b00      	cmp	r3, #0
 8001a2e:	d021      	beq.n	8001a74 <DMA1_Stream6_IRQHandler+0xe4>
		{
			__DMA1_Stream6_Config__ ->ISR_Routines.Half_Transfer_Complete_ISR();
 8001a30:	4b2a      	ldr	r3, [pc, #168]	@ (8001adc <DMA1_Stream6_IRQHandler+0x14c>)
 8001a32:	681b      	ldr	r3, [r3, #0]
 8001a34:	6c9b      	ldr	r3, [r3, #72]	@ 0x48
 8001a36:	4798      	blx	r3
			DMA1 -> HIFCR |= DMA_HIFCR_CHTIF6;
 8001a38:	4b26      	ldr	r3, [pc, #152]	@ (8001ad4 <DMA1_Stream6_IRQHandler+0x144>)
 8001a3a:	68db      	ldr	r3, [r3, #12]
 8001a3c:	4a25      	ldr	r2, [pc, #148]	@ (8001ad4 <DMA1_Stream6_IRQHandler+0x144>)
 8001a3e:	f443 1380 	orr.w	r3, r3, #1048576	@ 0x100000
 8001a42:	60d3      	str	r3, [r2, #12]

			if(__DMA1_Stream6_Config__->double_buffer_mode == DMA_Configuration.Double_Buffer_Mode.Enable )
 8001a44:	4b25      	ldr	r3, [pc, #148]	@ (8001adc <DMA1_Stream6_IRQHandler+0x14c>)
 8001a46:	681b      	ldr	r3, [r3, #0]
 8001a48:	6b9b      	ldr	r3, [r3, #56]	@ 0x38
 8001a4a:	f44f 2280 	mov.w	r2, #262144	@ 0x40000
 8001a4e:	4293      	cmp	r3, r2
 8001a50:	d110      	bne.n	8001a74 <DMA1_Stream6_IRQHandler+0xe4>
			{
				if((__DMA1_Stream6_Config__->Request.Stream->CR & DMA_SxCR_DBM_Msk) != 0)
 8001a52:	4b22      	ldr	r3, [pc, #136]	@ (8001adc <DMA1_Stream6_IRQHandler+0x14c>)
 8001a54:	681b      	ldr	r3, [r3, #0]
 8001a56:	685b      	ldr	r3, [r3, #4]
 8001a58:	681b      	ldr	r3, [r3, #0]
 8001a5a:	f403 2380 	and.w	r3, r3, #262144	@ 0x40000
 8001a5e:	2b00      	cmp	r3, #0
 8001a60:	d004      	beq.n	8001a6c <DMA1_Stream6_IRQHandler+0xdc>
				{
					__DMA1_Stream6_Config__ -> ISR_Routines.Double_Buffer_Mode_Target_1_ISR();
 8001a62:	4b1e      	ldr	r3, [pc, #120]	@ (8001adc <DMA1_Stream6_IRQHandler+0x14c>)
 8001a64:	681b      	ldr	r3, [r3, #0]
 8001a66:	6d1b      	ldr	r3, [r3, #80]	@ 0x50
 8001a68:	4798      	blx	r3
 8001a6a:	e003      	b.n	8001a74 <DMA1_Stream6_IRQHandler+0xe4>
				}
				else
				{
					__DMA1_Stream6_Config__ -> ISR_Routines.Double_Buffer_Mode_Target_2_ISR();
 8001a6c:	4b1b      	ldr	r3, [pc, #108]	@ (8001adc <DMA1_Stream6_IRQHandler+0x14c>)
 8001a6e:	681b      	ldr	r3, [r3, #0]
 8001a70:	6d5b      	ldr	r3, [r3, #84]	@ 0x54
 8001a72:	4798      	blx	r3
				}
			}
		}
	}

	if(DMA_HISR & DMA_HISR_TCIF6)
 8001a74:	4b18      	ldr	r3, [pc, #96]	@ (8001ad8 <DMA1_Stream6_IRQHandler+0x148>)
 8001a76:	681b      	ldr	r3, [r3, #0]
 8001a78:	f403 1300 	and.w	r3, r3, #2097152	@ 0x200000
 8001a7c:	2b00      	cmp	r3, #0
 8001a7e:	d026      	beq.n	8001ace <DMA1_Stream6_IRQHandler+0x13e>
	{
		if (__DMA1_Stream6_Config__ -> ISR_Routines.Full_Transfer_Commplete_ISR)
 8001a80:	4b16      	ldr	r3, [pc, #88]	@ (8001adc <DMA1_Stream6_IRQHandler+0x14c>)
 8001a82:	681b      	ldr	r3, [r3, #0]
 8001a84:	6cdb      	ldr	r3, [r3, #76]	@ 0x4c
 8001a86:	2b00      	cmp	r3, #0
 8001a88:	d021      	beq.n	8001ace <DMA1_Stream6_IRQHandler+0x13e>
		{
			__DMA1_Stream6_Config__ ->ISR_Routines.Half_Transfer_Complete_ISR();
 8001a8a:	4b14      	ldr	r3, [pc, #80]	@ (8001adc <DMA1_Stream6_IRQHandler+0x14c>)
 8001a8c:	681b      	ldr	r3, [r3, #0]
 8001a8e:	6c9b      	ldr	r3, [r3, #72]	@ 0x48
 8001a90:	4798      	blx	r3
			DMA1 -> HIFCR |= DMA_HIFCR_CTCIF6;
 8001a92:	4b10      	ldr	r3, [pc, #64]	@ (8001ad4 <DMA1_Stream6_IRQHandler+0x144>)
 8001a94:	68db      	ldr	r3, [r3, #12]
 8001a96:	4a0f      	ldr	r2, [pc, #60]	@ (8001ad4 <DMA1_Stream6_IRQHandler+0x144>)
 8001a98:	f443 1300 	orr.w	r3, r3, #2097152	@ 0x200000
 8001a9c:	60d3      	str	r3, [r2, #12]

			if(__DMA1_Stream6_Config__->double_buffer_mode == DMA_Configuration.Double_Buffer_Mode.Enable )
 8001a9e:	4b0f      	ldr	r3, [pc, #60]	@ (8001adc <DMA1_Stream6_IRQHandler+0x14c>)
 8001aa0:	681b      	ldr	r3, [r3, #0]
 8001aa2:	6b9b      	ldr	r3, [r3, #56]	@ 0x38
 8001aa4:	f44f 2280 	mov.w	r2, #262144	@ 0x40000
 8001aa8:	4293      	cmp	r3, r2
 8001aaa:	d110      	bne.n	8001ace <DMA1_Stream6_IRQHandler+0x13e>
			{
				if((__DMA1_Stream6_Config__->Request.Stream->CR & DMA_SxCR_DBM_Msk) != 0)
 8001aac:	4b0b      	ldr	r3, [pc, #44]	@ (8001adc <DMA1_Stream6_IRQHandler+0x14c>)
 8001aae:	681b      	ldr	r3, [r3, #0]
 8001ab0:	685b      	ldr	r3, [r3, #4]
 8001ab2:	681b      	ldr	r3, [r3, #0]
 8001ab4:	f403 2380 	and.w	r3, r3, #262144	@ 0x40000
 8001ab8:	2b00      	cmp	r3, #0
 8001aba:	d004      	beq.n	8001ac6 <DMA1_Stream6_IRQHandler+0x136>
				{
					__DMA1_Stream6_Config__ -> ISR_Routines.Double_Buffer_Mode_Target_1_ISR();
 8001abc:	4b07      	ldr	r3, [pc, #28]	@ (8001adc <DMA1_Stream6_IRQHandler+0x14c>)
 8001abe:	681b      	ldr	r3, [r3, #0]
 8001ac0:	6d1b      	ldr	r3, [r3, #80]	@ 0x50
 8001ac2:	4798      	blx	r3
					__DMA1_Stream6_Config__ -> ISR_Routines.Double_Buffer_Mode_Target_2_ISR();
				}
			}
		}
	}
}
 8001ac4:	e003      	b.n	8001ace <DMA1_Stream6_IRQHandler+0x13e>
					__DMA1_Stream6_Config__ -> ISR_Routines.Double_Buffer_Mode_Target_2_ISR();
 8001ac6:	4b05      	ldr	r3, [pc, #20]	@ (8001adc <DMA1_Stream6_IRQHandler+0x14c>)
 8001ac8:	681b      	ldr	r3, [r3, #0]
 8001aca:	6d5b      	ldr	r3, [r3, #84]	@ 0x54
 8001acc:	4798      	blx	r3
}
 8001ace:	bf00      	nop
 8001ad0:	bd80      	pop	{r7, pc}
 8001ad2:	bf00      	nop
 8001ad4:	40026000 	.word	0x40026000
 8001ad8:	20000064 	.word	0x20000064
 8001adc:	20000038 	.word	0x20000038

08001ae0 <DMA1_Stream7_IRQHandler>:


void DMA1_Stream7_IRQHandler(void)
{
 8001ae0:	b580      	push	{r7, lr}
 8001ae2:	af00      	add	r7, sp, #0
	DMA_HISR = DMA1 -> HISR;
 8001ae4:	4b4f      	ldr	r3, [pc, #316]	@ (8001c24 <DMA1_Stream7_IRQHandler+0x144>)
 8001ae6:	685b      	ldr	r3, [r3, #4]
 8001ae8:	4a4f      	ldr	r2, [pc, #316]	@ (8001c28 <DMA1_Stream7_IRQHandler+0x148>)
 8001aea:	6013      	str	r3, [r2, #0]

	if(DMA_HISR & DMA_HISR_FEIF7)
 8001aec:	4b4e      	ldr	r3, [pc, #312]	@ (8001c28 <DMA1_Stream7_IRQHandler+0x148>)
 8001aee:	681b      	ldr	r3, [r3, #0]
 8001af0:	f403 0380 	and.w	r3, r3, #4194304	@ 0x400000
 8001af4:	2b00      	cmp	r3, #0
 8001af6:	d00e      	beq.n	8001b16 <DMA1_Stream7_IRQHandler+0x36>
	{
		if (__DMA1_Stream7_Config__ -> ISR_Routines.FIFO_Error_ISR)
 8001af8:	4b4c      	ldr	r3, [pc, #304]	@ (8001c2c <DMA1_Stream7_IRQHandler+0x14c>)
 8001afa:	681b      	ldr	r3, [r3, #0]
 8001afc:	6bdb      	ldr	r3, [r3, #60]	@ 0x3c
 8001afe:	2b00      	cmp	r3, #0
 8001b00:	d009      	beq.n	8001b16 <DMA1_Stream7_IRQHandler+0x36>
		{
			__DMA1_Stream7_Config__ ->ISR_Routines.FIFO_Error_ISR();
 8001b02:	4b4a      	ldr	r3, [pc, #296]	@ (8001c2c <DMA1_Stream7_IRQHandler+0x14c>)
 8001b04:	681b      	ldr	r3, [r3, #0]
 8001b06:	6bdb      	ldr	r3, [r3, #60]	@ 0x3c
 8001b08:	4798      	blx	r3
			DMA1 -> HIFCR |= DMA_HIFCR_CFEIF7;
 8001b0a:	4b46      	ldr	r3, [pc, #280]	@ (8001c24 <DMA1_Stream7_IRQHandler+0x144>)
 8001b0c:	68db      	ldr	r3, [r3, #12]
 8001b0e:	4a45      	ldr	r2, [pc, #276]	@ (8001c24 <DMA1_Stream7_IRQHandler+0x144>)
 8001b10:	f443 0380 	orr.w	r3, r3, #4194304	@ 0x400000
 8001b14:	60d3      	str	r3, [r2, #12]
		}
	}

	if(DMA_HISR & DMA_HISR_DMEIF7)
 8001b16:	4b44      	ldr	r3, [pc, #272]	@ (8001c28 <DMA1_Stream7_IRQHandler+0x148>)
 8001b18:	681b      	ldr	r3, [r3, #0]
 8001b1a:	f003 7380 	and.w	r3, r3, #16777216	@ 0x1000000
 8001b1e:	2b00      	cmp	r3, #0
 8001b20:	d00e      	beq.n	8001b40 <DMA1_Stream7_IRQHandler+0x60>
	{
		if (__DMA1_Stream7_Config__ -> ISR_Routines.Direct_Mode_Error_ISR)
 8001b22:	4b42      	ldr	r3, [pc, #264]	@ (8001c2c <DMA1_Stream7_IRQHandler+0x14c>)
 8001b24:	681b      	ldr	r3, [r3, #0]
 8001b26:	6c1b      	ldr	r3, [r3, #64]	@ 0x40
 8001b28:	2b00      	cmp	r3, #0
 8001b2a:	d009      	beq.n	8001b40 <DMA1_Stream7_IRQHandler+0x60>
		{
			__DMA1_Stream7_Config__ ->ISR_Routines.Direct_Mode_Error_ISR();
 8001b2c:	4b3f      	ldr	r3, [pc, #252]	@ (8001c2c <DMA1_Stream7_IRQHandler+0x14c>)
 8001b2e:	681b      	ldr	r3, [r3, #0]
 8001b30:	6c1b      	ldr	r3, [r3, #64]	@ 0x40
 8001b32:	4798      	blx	r3
			DMA1 -> HIFCR |= DMA_HIFCR_CDMEIF7;
 8001b34:	4b3b      	ldr	r3, [pc, #236]	@ (8001c24 <DMA1_Stream7_IRQHandler+0x144>)
 8001b36:	68db      	ldr	r3, [r3, #12]
 8001b38:	4a3a      	ldr	r2, [pc, #232]	@ (8001c24 <DMA1_Stream7_IRQHandler+0x144>)
 8001b3a:	f043 7380 	orr.w	r3, r3, #16777216	@ 0x1000000
 8001b3e:	60d3      	str	r3, [r2, #12]
		}
	}

	if(DMA_HISR & DMA_HISR_TEIF7)
 8001b40:	4b39      	ldr	r3, [pc, #228]	@ (8001c28 <DMA1_Stream7_IRQHandler+0x148>)
 8001b42:	681b      	ldr	r3, [r3, #0]
 8001b44:	f003 7300 	and.w	r3, r3, #33554432	@ 0x2000000
 8001b48:	2b00      	cmp	r3, #0
 8001b4a:	d00e      	beq.n	8001b6a <DMA1_Stream7_IRQHandler+0x8a>
	{
		if (__DMA1_Stream7_Config__ -> ISR_Routines.Transfer_Error_ISR)
 8001b4c:	4b37      	ldr	r3, [pc, #220]	@ (8001c2c <DMA1_Stream7_IRQHandler+0x14c>)
 8001b4e:	681b      	ldr	r3, [r3, #0]
 8001b50:	6c5b      	ldr	r3, [r3, #68]	@ 0x44
 8001b52:	2b00      	cmp	r3, #0
 8001b54:	d009      	beq.n	8001b6a <DMA1_Stream7_IRQHandler+0x8a>
		{
			__DMA1_Stream7_Config__ ->ISR_Routines.Transfer_Error_ISR();
 8001b56:	4b35      	ldr	r3, [pc, #212]	@ (8001c2c <DMA1_Stream7_IRQHandler+0x14c>)
 8001b58:	681b      	ldr	r3, [r3, #0]
 8001b5a:	6c5b      	ldr	r3, [r3, #68]	@ 0x44
 8001b5c:	4798      	blx	r3
			DMA1 -> HIFCR |= DMA_HIFCR_CTEIF7;
 8001b5e:	4b31      	ldr	r3, [pc, #196]	@ (8001c24 <DMA1_Stream7_IRQHandler+0x144>)
 8001b60:	68db      	ldr	r3, [r3, #12]
 8001b62:	4a30      	ldr	r2, [pc, #192]	@ (8001c24 <DMA1_Stream7_IRQHandler+0x144>)
 8001b64:	f043 7300 	orr.w	r3, r3, #33554432	@ 0x2000000
 8001b68:	60d3      	str	r3, [r2, #12]
		}
	}

	if(DMA_HISR & DMA_HISR_HTIF7)
 8001b6a:	4b2f      	ldr	r3, [pc, #188]	@ (8001c28 <DMA1_Stream7_IRQHandler+0x148>)
 8001b6c:	681b      	ldr	r3, [r3, #0]
 8001b6e:	f003 6380 	and.w	r3, r3, #67108864	@ 0x4000000
 8001b72:	2b00      	cmp	r3, #0
 8001b74:	d026      	beq.n	8001bc4 <DMA1_Stream7_IRQHandler+0xe4>
	{
		if (__DMA1_Stream7_Config__ -> ISR_Routines.Half_Transfer_Complete_ISR)
 8001b76:	4b2d      	ldr	r3, [pc, #180]	@ (8001c2c <DMA1_Stream7_IRQHandler+0x14c>)
 8001b78:	681b      	ldr	r3, [r3, #0]
 8001b7a:	6c9b      	ldr	r3, [r3, #72]	@ 0x48
 8001b7c:	2b00      	cmp	r3, #0
 8001b7e:	d021      	beq.n	8001bc4 <DMA1_Stream7_IRQHandler+0xe4>
		{
			__DMA1_Stream7_Config__ ->ISR_Routines.Half_Transfer_Complete_ISR();
 8001b80:	4b2a      	ldr	r3, [pc, #168]	@ (8001c2c <DMA1_Stream7_IRQHandler+0x14c>)
 8001b82:	681b      	ldr	r3, [r3, #0]
 8001b84:	6c9b      	ldr	r3, [r3, #72]	@ 0x48
 8001b86:	4798      	blx	r3
			DMA1 -> HIFCR |= DMA_HIFCR_CHTIF7;
 8001b88:	4b26      	ldr	r3, [pc, #152]	@ (8001c24 <DMA1_Stream7_IRQHandler+0x144>)
 8001b8a:	68db      	ldr	r3, [r3, #12]
 8001b8c:	4a25      	ldr	r2, [pc, #148]	@ (8001c24 <DMA1_Stream7_IRQHandler+0x144>)
 8001b8e:	f043 6380 	orr.w	r3, r3, #67108864	@ 0x4000000
 8001b92:	60d3      	str	r3, [r2, #12]

			if(__DMA1_Stream7_Config__->double_buffer_mode == DMA_Configuration.Double_Buffer_Mode.Enable )
 8001b94:	4b25      	ldr	r3, [pc, #148]	@ (8001c2c <DMA1_Stream7_IRQHandler+0x14c>)
 8001b96:	681b      	ldr	r3, [r3, #0]
 8001b98:	6b9b      	ldr	r3, [r3, #56]	@ 0x38
 8001b9a:	f44f 2280 	mov.w	r2, #262144	@ 0x40000
 8001b9e:	4293      	cmp	r3, r2
 8001ba0:	d110      	bne.n	8001bc4 <DMA1_Stream7_IRQHandler+0xe4>
			{
				if((__DMA1_Stream7_Config__->Request.Stream->CR & DMA_SxCR_DBM_Msk) != 0)
 8001ba2:	4b22      	ldr	r3, [pc, #136]	@ (8001c2c <DMA1_Stream7_IRQHandler+0x14c>)
 8001ba4:	681b      	ldr	r3, [r3, #0]
 8001ba6:	685b      	ldr	r3, [r3, #4]
 8001ba8:	681b      	ldr	r3, [r3, #0]
 8001baa:	f403 2380 	and.w	r3, r3, #262144	@ 0x40000
 8001bae:	2b00      	cmp	r3, #0
 8001bb0:	d004      	beq.n	8001bbc <DMA1_Stream7_IRQHandler+0xdc>
				{
					__DMA1_Stream7_Config__ -> ISR_Routines.Double_Buffer_Mode_Target_1_ISR();
 8001bb2:	4b1e      	ldr	r3, [pc, #120]	@ (8001c2c <DMA1_Stream7_IRQHandler+0x14c>)
 8001bb4:	681b      	ldr	r3, [r3, #0]
 8001bb6:	6d1b      	ldr	r3, [r3, #80]	@ 0x50
 8001bb8:	4798      	blx	r3
 8001bba:	e003      	b.n	8001bc4 <DMA1_Stream7_IRQHandler+0xe4>
				}
				else
				{
					__DMA1_Stream7_Config__ -> ISR_Routines.Double_Buffer_Mode_Target_2_ISR();
 8001bbc:	4b1b      	ldr	r3, [pc, #108]	@ (8001c2c <DMA1_Stream7_IRQHandler+0x14c>)
 8001bbe:	681b      	ldr	r3, [r3, #0]
 8001bc0:	6d5b      	ldr	r3, [r3, #84]	@ 0x54
 8001bc2:	4798      	blx	r3
				}
			}
		}
	}

	if(DMA_HISR & DMA_HISR_TCIF7)
 8001bc4:	4b18      	ldr	r3, [pc, #96]	@ (8001c28 <DMA1_Stream7_IRQHandler+0x148>)
 8001bc6:	681b      	ldr	r3, [r3, #0]
 8001bc8:	f003 6300 	and.w	r3, r3, #134217728	@ 0x8000000
 8001bcc:	2b00      	cmp	r3, #0
 8001bce:	d026      	beq.n	8001c1e <DMA1_Stream7_IRQHandler+0x13e>
	{
		if (__DMA1_Stream7_Config__ -> ISR_Routines.Full_Transfer_Commplete_ISR)
 8001bd0:	4b16      	ldr	r3, [pc, #88]	@ (8001c2c <DMA1_Stream7_IRQHandler+0x14c>)
 8001bd2:	681b      	ldr	r3, [r3, #0]
 8001bd4:	6cdb      	ldr	r3, [r3, #76]	@ 0x4c
 8001bd6:	2b00      	cmp	r3, #0
 8001bd8:	d021      	beq.n	8001c1e <DMA1_Stream7_IRQHandler+0x13e>
		{
			__DMA1_Stream7_Config__ ->ISR_Routines.Half_Transfer_Complete_ISR();
 8001bda:	4b14      	ldr	r3, [pc, #80]	@ (8001c2c <DMA1_Stream7_IRQHandler+0x14c>)
 8001bdc:	681b      	ldr	r3, [r3, #0]
 8001bde:	6c9b      	ldr	r3, [r3, #72]	@ 0x48
 8001be0:	4798      	blx	r3
			DMA1 -> HIFCR |= DMA_HIFCR_CTCIF7;
 8001be2:	4b10      	ldr	r3, [pc, #64]	@ (8001c24 <DMA1_Stream7_IRQHandler+0x144>)
 8001be4:	68db      	ldr	r3, [r3, #12]
 8001be6:	4a0f      	ldr	r2, [pc, #60]	@ (8001c24 <DMA1_Stream7_IRQHandler+0x144>)
 8001be8:	f043 6300 	orr.w	r3, r3, #134217728	@ 0x8000000
 8001bec:	60d3      	str	r3, [r2, #12]

			if(__DMA1_Stream7_Config__->double_buffer_mode == DMA_Configuration.Double_Buffer_Mode.Enable )
 8001bee:	4b0f      	ldr	r3, [pc, #60]	@ (8001c2c <DMA1_Stream7_IRQHandler+0x14c>)
 8001bf0:	681b      	ldr	r3, [r3, #0]
 8001bf2:	6b9b      	ldr	r3, [r3, #56]	@ 0x38
 8001bf4:	f44f 2280 	mov.w	r2, #262144	@ 0x40000
 8001bf8:	4293      	cmp	r3, r2
 8001bfa:	d110      	bne.n	8001c1e <DMA1_Stream7_IRQHandler+0x13e>
			{
				if((__DMA1_Stream7_Config__->Request.Stream->CR & DMA_SxCR_DBM_Msk) != 0)
 8001bfc:	4b0b      	ldr	r3, [pc, #44]	@ (8001c2c <DMA1_Stream7_IRQHandler+0x14c>)
 8001bfe:	681b      	ldr	r3, [r3, #0]
 8001c00:	685b      	ldr	r3, [r3, #4]
 8001c02:	681b      	ldr	r3, [r3, #0]
 8001c04:	f403 2380 	and.w	r3, r3, #262144	@ 0x40000
 8001c08:	2b00      	cmp	r3, #0
 8001c0a:	d004      	beq.n	8001c16 <DMA1_Stream7_IRQHandler+0x136>
				{
					__DMA1_Stream7_Config__ -> ISR_Routines.Double_Buffer_Mode_Target_1_ISR();
 8001c0c:	4b07      	ldr	r3, [pc, #28]	@ (8001c2c <DMA1_Stream7_IRQHandler+0x14c>)
 8001c0e:	681b      	ldr	r3, [r3, #0]
 8001c10:	6d1b      	ldr	r3, [r3, #80]	@ 0x50
 8001c12:	4798      	blx	r3
					__DMA1_Stream7_Config__ -> ISR_Routines.Double_Buffer_Mode_Target_2_ISR();
				}
			}
		}
	}
}
 8001c14:	e003      	b.n	8001c1e <DMA1_Stream7_IRQHandler+0x13e>
					__DMA1_Stream7_Config__ -> ISR_Routines.Double_Buffer_Mode_Target_2_ISR();
 8001c16:	4b05      	ldr	r3, [pc, #20]	@ (8001c2c <DMA1_Stream7_IRQHandler+0x14c>)
 8001c18:	681b      	ldr	r3, [r3, #0]
 8001c1a:	6d5b      	ldr	r3, [r3, #84]	@ 0x54
 8001c1c:	4798      	blx	r3
}
 8001c1e:	bf00      	nop
 8001c20:	bd80      	pop	{r7, pc}
 8001c22:	bf00      	nop
 8001c24:	40026000 	.word	0x40026000
 8001c28:	20000064 	.word	0x20000064
 8001c2c:	2000003c 	.word	0x2000003c

08001c30 <DMA2_Stream0_IRQHandler>:

void DMA2_Stream0_IRQHandler(void)
{
 8001c30:	b580      	push	{r7, lr}
 8001c32:	af00      	add	r7, sp, #0
	DMA_LISR = DMA2 -> LISR;
 8001c34:	4b60      	ldr	r3, [pc, #384]	@ (8001db8 <DMA2_Stream0_IRQHandler+0x188>)
 8001c36:	681b      	ldr	r3, [r3, #0]
 8001c38:	4a60      	ldr	r2, [pc, #384]	@ (8001dbc <DMA2_Stream0_IRQHandler+0x18c>)
 8001c3a:	6013      	str	r3, [r2, #0]

	if(DMA_LISR & DMA_LISR_FEIF0)
 8001c3c:	4b5f      	ldr	r3, [pc, #380]	@ (8001dbc <DMA2_Stream0_IRQHandler+0x18c>)
 8001c3e:	681b      	ldr	r3, [r3, #0]
 8001c40:	f003 0301 	and.w	r3, r3, #1
 8001c44:	2b00      	cmp	r3, #0
 8001c46:	d015      	beq.n	8001c74 <DMA2_Stream0_IRQHandler+0x44>
	{
		if(__DMA2_Stream0_Config__->interrupts & DMA_Configuration.DMA_Interrupts.Fifo_Error)
 8001c48:	4b5d      	ldr	r3, [pc, #372]	@ (8001dc0 <DMA2_Stream0_IRQHandler+0x190>)
 8001c4a:	681b      	ldr	r3, [r3, #0]
 8001c4c:	69db      	ldr	r3, [r3, #28]
 8001c4e:	2280      	movs	r2, #128	@ 0x80
 8001c50:	4013      	ands	r3, r2
 8001c52:	2b00      	cmp	r3, #0
 8001c54:	d00e      	beq.n	8001c74 <DMA2_Stream0_IRQHandler+0x44>
		{
			if (__DMA2_Stream0_Config__ -> ISR_Routines.FIFO_Error_ISR)
 8001c56:	4b5a      	ldr	r3, [pc, #360]	@ (8001dc0 <DMA2_Stream0_IRQHandler+0x190>)
 8001c58:	681b      	ldr	r3, [r3, #0]
 8001c5a:	6bdb      	ldr	r3, [r3, #60]	@ 0x3c
 8001c5c:	2b00      	cmp	r3, #0
 8001c5e:	d009      	beq.n	8001c74 <DMA2_Stream0_IRQHandler+0x44>
			{
				__DMA2_Stream0_Config__ ->ISR_Routines.FIFO_Error_ISR();
 8001c60:	4b57      	ldr	r3, [pc, #348]	@ (8001dc0 <DMA2_Stream0_IRQHandler+0x190>)
 8001c62:	681b      	ldr	r3, [r3, #0]
 8001c64:	6bdb      	ldr	r3, [r3, #60]	@ 0x3c
 8001c66:	4798      	blx	r3
				DMA2 -> LIFCR |= DMA_LIFCR_CFEIF0;
 8001c68:	4b53      	ldr	r3, [pc, #332]	@ (8001db8 <DMA2_Stream0_IRQHandler+0x188>)
 8001c6a:	689b      	ldr	r3, [r3, #8]
 8001c6c:	4a52      	ldr	r2, [pc, #328]	@ (8001db8 <DMA2_Stream0_IRQHandler+0x188>)
 8001c6e:	f043 0301 	orr.w	r3, r3, #1
 8001c72:	6093      	str	r3, [r2, #8]
			}
		}

	}

	if(DMA_LISR & DMA_LISR_DMEIF0)
 8001c74:	4b51      	ldr	r3, [pc, #324]	@ (8001dbc <DMA2_Stream0_IRQHandler+0x18c>)
 8001c76:	681b      	ldr	r3, [r3, #0]
 8001c78:	f003 0304 	and.w	r3, r3, #4
 8001c7c:	2b00      	cmp	r3, #0
 8001c7e:	d015      	beq.n	8001cac <DMA2_Stream0_IRQHandler+0x7c>
	{
		if(__DMA2_Stream0_Config__->interrupts & DMA_Configuration.DMA_Interrupts.Direct_Mode_Error)
 8001c80:	4b4f      	ldr	r3, [pc, #316]	@ (8001dc0 <DMA2_Stream0_IRQHandler+0x190>)
 8001c82:	681b      	ldr	r3, [r3, #0]
 8001c84:	69db      	ldr	r3, [r3, #28]
 8001c86:	2202      	movs	r2, #2
 8001c88:	4013      	ands	r3, r2
 8001c8a:	2b00      	cmp	r3, #0
 8001c8c:	d00e      	beq.n	8001cac <DMA2_Stream0_IRQHandler+0x7c>
		{
			if (__DMA2_Stream0_Config__ -> ISR_Routines.Direct_Mode_Error_ISR)
 8001c8e:	4b4c      	ldr	r3, [pc, #304]	@ (8001dc0 <DMA2_Stream0_IRQHandler+0x190>)
 8001c90:	681b      	ldr	r3, [r3, #0]
 8001c92:	6c1b      	ldr	r3, [r3, #64]	@ 0x40
 8001c94:	2b00      	cmp	r3, #0
 8001c96:	d009      	beq.n	8001cac <DMA2_Stream0_IRQHandler+0x7c>
			{
				__DMA2_Stream0_Config__ ->ISR_Routines.Direct_Mode_Error_ISR();
 8001c98:	4b49      	ldr	r3, [pc, #292]	@ (8001dc0 <DMA2_Stream0_IRQHandler+0x190>)
 8001c9a:	681b      	ldr	r3, [r3, #0]
 8001c9c:	6c1b      	ldr	r3, [r3, #64]	@ 0x40
 8001c9e:	4798      	blx	r3
				DMA2 -> LIFCR |= DMA_LIFCR_CDMEIF0;
 8001ca0:	4b45      	ldr	r3, [pc, #276]	@ (8001db8 <DMA2_Stream0_IRQHandler+0x188>)
 8001ca2:	689b      	ldr	r3, [r3, #8]
 8001ca4:	4a44      	ldr	r2, [pc, #272]	@ (8001db8 <DMA2_Stream0_IRQHandler+0x188>)
 8001ca6:	f043 0304 	orr.w	r3, r3, #4
 8001caa:	6093      	str	r3, [r2, #8]
			}
		}

	}

	if(DMA_LISR & DMA_LISR_TEIF0)
 8001cac:	4b43      	ldr	r3, [pc, #268]	@ (8001dbc <DMA2_Stream0_IRQHandler+0x18c>)
 8001cae:	681b      	ldr	r3, [r3, #0]
 8001cb0:	f003 0308 	and.w	r3, r3, #8
 8001cb4:	2b00      	cmp	r3, #0
 8001cb6:	d015      	beq.n	8001ce4 <DMA2_Stream0_IRQHandler+0xb4>
	{
		if(__DMA2_Stream0_Config__->interrupts & DMA_Configuration.DMA_Interrupts.Transfer_Error)
 8001cb8:	4b41      	ldr	r3, [pc, #260]	@ (8001dc0 <DMA2_Stream0_IRQHandler+0x190>)
 8001cba:	681b      	ldr	r3, [r3, #0]
 8001cbc:	69db      	ldr	r3, [r3, #28]
 8001cbe:	2204      	movs	r2, #4
 8001cc0:	4013      	ands	r3, r2
 8001cc2:	2b00      	cmp	r3, #0
 8001cc4:	d00e      	beq.n	8001ce4 <DMA2_Stream0_IRQHandler+0xb4>
		{
			if (__DMA2_Stream0_Config__ -> ISR_Routines.Transfer_Error_ISR)
 8001cc6:	4b3e      	ldr	r3, [pc, #248]	@ (8001dc0 <DMA2_Stream0_IRQHandler+0x190>)
 8001cc8:	681b      	ldr	r3, [r3, #0]
 8001cca:	6c5b      	ldr	r3, [r3, #68]	@ 0x44
 8001ccc:	2b00      	cmp	r3, #0
 8001cce:	d009      	beq.n	8001ce4 <DMA2_Stream0_IRQHandler+0xb4>
			{
				__DMA2_Stream0_Config__ ->ISR_Routines.Transfer_Error_ISR();
 8001cd0:	4b3b      	ldr	r3, [pc, #236]	@ (8001dc0 <DMA2_Stream0_IRQHandler+0x190>)
 8001cd2:	681b      	ldr	r3, [r3, #0]
 8001cd4:	6c5b      	ldr	r3, [r3, #68]	@ 0x44
 8001cd6:	4798      	blx	r3
				DMA2 -> LIFCR |= DMA_LIFCR_CTEIF0;
 8001cd8:	4b37      	ldr	r3, [pc, #220]	@ (8001db8 <DMA2_Stream0_IRQHandler+0x188>)
 8001cda:	689b      	ldr	r3, [r3, #8]
 8001cdc:	4a36      	ldr	r2, [pc, #216]	@ (8001db8 <DMA2_Stream0_IRQHandler+0x188>)
 8001cde:	f043 0308 	orr.w	r3, r3, #8
 8001ce2:	6093      	str	r3, [r2, #8]
			}
		}

	}

	if(DMA_LISR & DMA_LISR_HTIF0)
 8001ce4:	4b35      	ldr	r3, [pc, #212]	@ (8001dbc <DMA2_Stream0_IRQHandler+0x18c>)
 8001ce6:	681b      	ldr	r3, [r3, #0]
 8001ce8:	f003 0310 	and.w	r3, r3, #16
 8001cec:	2b00      	cmp	r3, #0
 8001cee:	d02d      	beq.n	8001d4c <DMA2_Stream0_IRQHandler+0x11c>
	{
		if(__DMA2_Stream0_Config__->interrupts & DMA_Configuration.DMA_Interrupts.Half_Transfer_Complete)
 8001cf0:	4b33      	ldr	r3, [pc, #204]	@ (8001dc0 <DMA2_Stream0_IRQHandler+0x190>)
 8001cf2:	681b      	ldr	r3, [r3, #0]
 8001cf4:	69db      	ldr	r3, [r3, #28]
 8001cf6:	2208      	movs	r2, #8
 8001cf8:	4013      	ands	r3, r2
 8001cfa:	2b00      	cmp	r3, #0
 8001cfc:	d026      	beq.n	8001d4c <DMA2_Stream0_IRQHandler+0x11c>
		{
			if (__DMA2_Stream0_Config__ -> ISR_Routines.Half_Transfer_Complete_ISR)
 8001cfe:	4b30      	ldr	r3, [pc, #192]	@ (8001dc0 <DMA2_Stream0_IRQHandler+0x190>)
 8001d00:	681b      	ldr	r3, [r3, #0]
 8001d02:	6c9b      	ldr	r3, [r3, #72]	@ 0x48
 8001d04:	2b00      	cmp	r3, #0
 8001d06:	d021      	beq.n	8001d4c <DMA2_Stream0_IRQHandler+0x11c>
			{
				__DMA2_Stream0_Config__ ->ISR_Routines.Half_Transfer_Complete_ISR();
 8001d08:	4b2d      	ldr	r3, [pc, #180]	@ (8001dc0 <DMA2_Stream0_IRQHandler+0x190>)
 8001d0a:	681b      	ldr	r3, [r3, #0]
 8001d0c:	6c9b      	ldr	r3, [r3, #72]	@ 0x48
 8001d0e:	4798      	blx	r3
				DMA2 -> LIFCR |= DMA_LIFCR_CHTIF0;
 8001d10:	4b29      	ldr	r3, [pc, #164]	@ (8001db8 <DMA2_Stream0_IRQHandler+0x188>)
 8001d12:	689b      	ldr	r3, [r3, #8]
 8001d14:	4a28      	ldr	r2, [pc, #160]	@ (8001db8 <DMA2_Stream0_IRQHandler+0x188>)
 8001d16:	f043 0310 	orr.w	r3, r3, #16
 8001d1a:	6093      	str	r3, [r2, #8]

				if(__DMA2_Stream0_Config__->double_buffer_mode == DMA_Configuration.Double_Buffer_Mode.Enable )
 8001d1c:	4b28      	ldr	r3, [pc, #160]	@ (8001dc0 <DMA2_Stream0_IRQHandler+0x190>)
 8001d1e:	681b      	ldr	r3, [r3, #0]
 8001d20:	6b9b      	ldr	r3, [r3, #56]	@ 0x38
 8001d22:	f44f 2280 	mov.w	r2, #262144	@ 0x40000
 8001d26:	4293      	cmp	r3, r2
 8001d28:	d110      	bne.n	8001d4c <DMA2_Stream0_IRQHandler+0x11c>
				{
					if((__DMA2_Stream0_Config__->Request.Stream->CR & DMA_SxCR_DBM_Msk) != 0)
 8001d2a:	4b25      	ldr	r3, [pc, #148]	@ (8001dc0 <DMA2_Stream0_IRQHandler+0x190>)
 8001d2c:	681b      	ldr	r3, [r3, #0]
 8001d2e:	685b      	ldr	r3, [r3, #4]
 8001d30:	681b      	ldr	r3, [r3, #0]
 8001d32:	f403 2380 	and.w	r3, r3, #262144	@ 0x40000
 8001d36:	2b00      	cmp	r3, #0
 8001d38:	d004      	beq.n	8001d44 <DMA2_Stream0_IRQHandler+0x114>
					{
						__DMA2_Stream0_Config__ -> ISR_Routines.Double_Buffer_Mode_Target_1_ISR();
 8001d3a:	4b21      	ldr	r3, [pc, #132]	@ (8001dc0 <DMA2_Stream0_IRQHandler+0x190>)
 8001d3c:	681b      	ldr	r3, [r3, #0]
 8001d3e:	6d1b      	ldr	r3, [r3, #80]	@ 0x50
 8001d40:	4798      	blx	r3
 8001d42:	e003      	b.n	8001d4c <DMA2_Stream0_IRQHandler+0x11c>
					}
					else
					{
						__DMA2_Stream0_Config__ -> ISR_Routines.Double_Buffer_Mode_Target_2_ISR();
 8001d44:	4b1e      	ldr	r3, [pc, #120]	@ (8001dc0 <DMA2_Stream0_IRQHandler+0x190>)
 8001d46:	681b      	ldr	r3, [r3, #0]
 8001d48:	6d5b      	ldr	r3, [r3, #84]	@ 0x54
 8001d4a:	4798      	blx	r3
			}
		}

	}

	if(DMA_LISR & DMA_LISR_TCIF0)
 8001d4c:	4b1b      	ldr	r3, [pc, #108]	@ (8001dbc <DMA2_Stream0_IRQHandler+0x18c>)
 8001d4e:	681b      	ldr	r3, [r3, #0]
 8001d50:	f003 0320 	and.w	r3, r3, #32
 8001d54:	2b00      	cmp	r3, #0
 8001d56:	d02d      	beq.n	8001db4 <DMA2_Stream0_IRQHandler+0x184>
	{
		if(__DMA2_Stream0_Config__->interrupts & DMA_Configuration.DMA_Interrupts.Transfer_Complete)
 8001d58:	4b19      	ldr	r3, [pc, #100]	@ (8001dc0 <DMA2_Stream0_IRQHandler+0x190>)
 8001d5a:	681b      	ldr	r3, [r3, #0]
 8001d5c:	69db      	ldr	r3, [r3, #28]
 8001d5e:	2210      	movs	r2, #16
 8001d60:	4013      	ands	r3, r2
 8001d62:	2b00      	cmp	r3, #0
 8001d64:	d026      	beq.n	8001db4 <DMA2_Stream0_IRQHandler+0x184>
		{
			if (__DMA2_Stream0_Config__ -> ISR_Routines.Full_Transfer_Commplete_ISR)
 8001d66:	4b16      	ldr	r3, [pc, #88]	@ (8001dc0 <DMA2_Stream0_IRQHandler+0x190>)
 8001d68:	681b      	ldr	r3, [r3, #0]
 8001d6a:	6cdb      	ldr	r3, [r3, #76]	@ 0x4c
 8001d6c:	2b00      	cmp	r3, #0
 8001d6e:	d021      	beq.n	8001db4 <DMA2_Stream0_IRQHandler+0x184>
			{
				__DMA2_Stream0_Config__ ->ISR_Routines.Full_Transfer_Commplete_ISR();
 8001d70:	4b13      	ldr	r3, [pc, #76]	@ (8001dc0 <DMA2_Stream0_IRQHandler+0x190>)
 8001d72:	681b      	ldr	r3, [r3, #0]
 8001d74:	6cdb      	ldr	r3, [r3, #76]	@ 0x4c
 8001d76:	4798      	blx	r3
				DMA2 -> LIFCR |= DMA_LIFCR_CTCIF0;
 8001d78:	4b0f      	ldr	r3, [pc, #60]	@ (8001db8 <DMA2_Stream0_IRQHandler+0x188>)
 8001d7a:	689b      	ldr	r3, [r3, #8]
 8001d7c:	4a0e      	ldr	r2, [pc, #56]	@ (8001db8 <DMA2_Stream0_IRQHandler+0x188>)
 8001d7e:	f043 0320 	orr.w	r3, r3, #32
 8001d82:	6093      	str	r3, [r2, #8]

				if(__DMA2_Stream0_Config__->double_buffer_mode == DMA_Configuration.Double_Buffer_Mode.Enable )
 8001d84:	4b0e      	ldr	r3, [pc, #56]	@ (8001dc0 <DMA2_Stream0_IRQHandler+0x190>)
 8001d86:	681b      	ldr	r3, [r3, #0]
 8001d88:	6b9b      	ldr	r3, [r3, #56]	@ 0x38
 8001d8a:	f44f 2280 	mov.w	r2, #262144	@ 0x40000
 8001d8e:	4293      	cmp	r3, r2
 8001d90:	d110      	bne.n	8001db4 <DMA2_Stream0_IRQHandler+0x184>
				{
					if((__DMA2_Stream0_Config__->Request.Stream->CR & DMA_SxCR_DBM_Msk) != 0)
 8001d92:	4b0b      	ldr	r3, [pc, #44]	@ (8001dc0 <DMA2_Stream0_IRQHandler+0x190>)
 8001d94:	681b      	ldr	r3, [r3, #0]
 8001d96:	685b      	ldr	r3, [r3, #4]
 8001d98:	681b      	ldr	r3, [r3, #0]
 8001d9a:	f403 2380 	and.w	r3, r3, #262144	@ 0x40000
 8001d9e:	2b00      	cmp	r3, #0
 8001da0:	d004      	beq.n	8001dac <DMA2_Stream0_IRQHandler+0x17c>
					{
						__DMA2_Stream0_Config__ -> ISR_Routines.Double_Buffer_Mode_Target_1_ISR();
 8001da2:	4b07      	ldr	r3, [pc, #28]	@ (8001dc0 <DMA2_Stream0_IRQHandler+0x190>)
 8001da4:	681b      	ldr	r3, [r3, #0]
 8001da6:	6d1b      	ldr	r3, [r3, #80]	@ 0x50
 8001da8:	4798      	blx	r3
				}
			}
		}

	}
}
 8001daa:	e003      	b.n	8001db4 <DMA2_Stream0_IRQHandler+0x184>
						__DMA2_Stream0_Config__ -> ISR_Routines.Double_Buffer_Mode_Target_2_ISR();
 8001dac:	4b04      	ldr	r3, [pc, #16]	@ (8001dc0 <DMA2_Stream0_IRQHandler+0x190>)
 8001dae:	681b      	ldr	r3, [r3, #0]
 8001db0:	6d5b      	ldr	r3, [r3, #84]	@ 0x54
 8001db2:	4798      	blx	r3
}
 8001db4:	bf00      	nop
 8001db6:	bd80      	pop	{r7, pc}
 8001db8:	40026400 	.word	0x40026400
 8001dbc:	20000060 	.word	0x20000060
 8001dc0:	20000040 	.word	0x20000040

08001dc4 <DMA2_Stream1_IRQHandler>:

void DMA2_Stream1_IRQHandler(void)
{
 8001dc4:	b580      	push	{r7, lr}
 8001dc6:	af00      	add	r7, sp, #0
	DMA_LISR = DMA2 -> LISR;
 8001dc8:	4b4f      	ldr	r3, [pc, #316]	@ (8001f08 <DMA2_Stream1_IRQHandler+0x144>)
 8001dca:	681b      	ldr	r3, [r3, #0]
 8001dcc:	4a4f      	ldr	r2, [pc, #316]	@ (8001f0c <DMA2_Stream1_IRQHandler+0x148>)
 8001dce:	6013      	str	r3, [r2, #0]

	if(DMA_LISR & DMA_LISR_FEIF1)
 8001dd0:	4b4e      	ldr	r3, [pc, #312]	@ (8001f0c <DMA2_Stream1_IRQHandler+0x148>)
 8001dd2:	681b      	ldr	r3, [r3, #0]
 8001dd4:	f003 0340 	and.w	r3, r3, #64	@ 0x40
 8001dd8:	2b00      	cmp	r3, #0
 8001dda:	d00e      	beq.n	8001dfa <DMA2_Stream1_IRQHandler+0x36>
	{
		if (__DMA2_Stream1_Config__ -> ISR_Routines.FIFO_Error_ISR)
 8001ddc:	4b4c      	ldr	r3, [pc, #304]	@ (8001f10 <DMA2_Stream1_IRQHandler+0x14c>)
 8001dde:	681b      	ldr	r3, [r3, #0]
 8001de0:	6bdb      	ldr	r3, [r3, #60]	@ 0x3c
 8001de2:	2b00      	cmp	r3, #0
 8001de4:	d009      	beq.n	8001dfa <DMA2_Stream1_IRQHandler+0x36>
		{
			__DMA2_Stream1_Config__ ->ISR_Routines.FIFO_Error_ISR();
 8001de6:	4b4a      	ldr	r3, [pc, #296]	@ (8001f10 <DMA2_Stream1_IRQHandler+0x14c>)
 8001de8:	681b      	ldr	r3, [r3, #0]
 8001dea:	6bdb      	ldr	r3, [r3, #60]	@ 0x3c
 8001dec:	4798      	blx	r3
			DMA2 -> LIFCR |= DMA_LIFCR_CFEIF1;
 8001dee:	4b46      	ldr	r3, [pc, #280]	@ (8001f08 <DMA2_Stream1_IRQHandler+0x144>)
 8001df0:	689b      	ldr	r3, [r3, #8]
 8001df2:	4a45      	ldr	r2, [pc, #276]	@ (8001f08 <DMA2_Stream1_IRQHandler+0x144>)
 8001df4:	f043 0340 	orr.w	r3, r3, #64	@ 0x40
 8001df8:	6093      	str	r3, [r2, #8]
		}
	}

	if(DMA_LISR & DMA_LISR_DMEIF1)
 8001dfa:	4b44      	ldr	r3, [pc, #272]	@ (8001f0c <DMA2_Stream1_IRQHandler+0x148>)
 8001dfc:	681b      	ldr	r3, [r3, #0]
 8001dfe:	f403 7380 	and.w	r3, r3, #256	@ 0x100
 8001e02:	2b00      	cmp	r3, #0
 8001e04:	d00e      	beq.n	8001e24 <DMA2_Stream1_IRQHandler+0x60>
	{
		if (__DMA2_Stream1_Config__ -> ISR_Routines.Direct_Mode_Error_ISR)
 8001e06:	4b42      	ldr	r3, [pc, #264]	@ (8001f10 <DMA2_Stream1_IRQHandler+0x14c>)
 8001e08:	681b      	ldr	r3, [r3, #0]
 8001e0a:	6c1b      	ldr	r3, [r3, #64]	@ 0x40
 8001e0c:	2b00      	cmp	r3, #0
 8001e0e:	d009      	beq.n	8001e24 <DMA2_Stream1_IRQHandler+0x60>
		{
			__DMA2_Stream1_Config__ ->ISR_Routines.Direct_Mode_Error_ISR();
 8001e10:	4b3f      	ldr	r3, [pc, #252]	@ (8001f10 <DMA2_Stream1_IRQHandler+0x14c>)
 8001e12:	681b      	ldr	r3, [r3, #0]
 8001e14:	6c1b      	ldr	r3, [r3, #64]	@ 0x40
 8001e16:	4798      	blx	r3
			DMA2 -> LIFCR |= DMA_LIFCR_CDMEIF1;
 8001e18:	4b3b      	ldr	r3, [pc, #236]	@ (8001f08 <DMA2_Stream1_IRQHandler+0x144>)
 8001e1a:	689b      	ldr	r3, [r3, #8]
 8001e1c:	4a3a      	ldr	r2, [pc, #232]	@ (8001f08 <DMA2_Stream1_IRQHandler+0x144>)
 8001e1e:	f443 7380 	orr.w	r3, r3, #256	@ 0x100
 8001e22:	6093      	str	r3, [r2, #8]
		}
	}

	if(DMA_LISR & DMA_LISR_TEIF1)
 8001e24:	4b39      	ldr	r3, [pc, #228]	@ (8001f0c <DMA2_Stream1_IRQHandler+0x148>)
 8001e26:	681b      	ldr	r3, [r3, #0]
 8001e28:	f403 7300 	and.w	r3, r3, #512	@ 0x200
 8001e2c:	2b00      	cmp	r3, #0
 8001e2e:	d00e      	beq.n	8001e4e <DMA2_Stream1_IRQHandler+0x8a>
	{
		if (__DMA2_Stream1_Config__ -> ISR_Routines.Transfer_Error_ISR)
 8001e30:	4b37      	ldr	r3, [pc, #220]	@ (8001f10 <DMA2_Stream1_IRQHandler+0x14c>)
 8001e32:	681b      	ldr	r3, [r3, #0]
 8001e34:	6c5b      	ldr	r3, [r3, #68]	@ 0x44
 8001e36:	2b00      	cmp	r3, #0
 8001e38:	d009      	beq.n	8001e4e <DMA2_Stream1_IRQHandler+0x8a>
		{
			__DMA2_Stream1_Config__ ->ISR_Routines.Transfer_Error_ISR();
 8001e3a:	4b35      	ldr	r3, [pc, #212]	@ (8001f10 <DMA2_Stream1_IRQHandler+0x14c>)
 8001e3c:	681b      	ldr	r3, [r3, #0]
 8001e3e:	6c5b      	ldr	r3, [r3, #68]	@ 0x44
 8001e40:	4798      	blx	r3
			DMA2 -> LIFCR |= DMA_LIFCR_CTEIF1;
 8001e42:	4b31      	ldr	r3, [pc, #196]	@ (8001f08 <DMA2_Stream1_IRQHandler+0x144>)
 8001e44:	689b      	ldr	r3, [r3, #8]
 8001e46:	4a30      	ldr	r2, [pc, #192]	@ (8001f08 <DMA2_Stream1_IRQHandler+0x144>)
 8001e48:	f443 7300 	orr.w	r3, r3, #512	@ 0x200
 8001e4c:	6093      	str	r3, [r2, #8]
		}
	}

	if(DMA_LISR & DMA_LISR_HTIF1)
 8001e4e:	4b2f      	ldr	r3, [pc, #188]	@ (8001f0c <DMA2_Stream1_IRQHandler+0x148>)
 8001e50:	681b      	ldr	r3, [r3, #0]
 8001e52:	f403 6380 	and.w	r3, r3, #1024	@ 0x400
 8001e56:	2b00      	cmp	r3, #0
 8001e58:	d026      	beq.n	8001ea8 <DMA2_Stream1_IRQHandler+0xe4>
	{
		if (__DMA2_Stream1_Config__ -> ISR_Routines.Half_Transfer_Complete_ISR)
 8001e5a:	4b2d      	ldr	r3, [pc, #180]	@ (8001f10 <DMA2_Stream1_IRQHandler+0x14c>)
 8001e5c:	681b      	ldr	r3, [r3, #0]
 8001e5e:	6c9b      	ldr	r3, [r3, #72]	@ 0x48
 8001e60:	2b00      	cmp	r3, #0
 8001e62:	d021      	beq.n	8001ea8 <DMA2_Stream1_IRQHandler+0xe4>
		{
			__DMA2_Stream1_Config__ ->ISR_Routines.Half_Transfer_Complete_ISR();
 8001e64:	4b2a      	ldr	r3, [pc, #168]	@ (8001f10 <DMA2_Stream1_IRQHandler+0x14c>)
 8001e66:	681b      	ldr	r3, [r3, #0]
 8001e68:	6c9b      	ldr	r3, [r3, #72]	@ 0x48
 8001e6a:	4798      	blx	r3
			DMA2 -> LIFCR |= DMA_LIFCR_CHTIF1;
 8001e6c:	4b26      	ldr	r3, [pc, #152]	@ (8001f08 <DMA2_Stream1_IRQHandler+0x144>)
 8001e6e:	689b      	ldr	r3, [r3, #8]
 8001e70:	4a25      	ldr	r2, [pc, #148]	@ (8001f08 <DMA2_Stream1_IRQHandler+0x144>)
 8001e72:	f443 6380 	orr.w	r3, r3, #1024	@ 0x400
 8001e76:	6093      	str	r3, [r2, #8]

			if(__DMA2_Stream1_Config__->double_buffer_mode == DMA_Configuration.Double_Buffer_Mode.Enable )
 8001e78:	4b25      	ldr	r3, [pc, #148]	@ (8001f10 <DMA2_Stream1_IRQHandler+0x14c>)
 8001e7a:	681b      	ldr	r3, [r3, #0]
 8001e7c:	6b9b      	ldr	r3, [r3, #56]	@ 0x38
 8001e7e:	f44f 2280 	mov.w	r2, #262144	@ 0x40000
 8001e82:	4293      	cmp	r3, r2
 8001e84:	d110      	bne.n	8001ea8 <DMA2_Stream1_IRQHandler+0xe4>
			{
				if((__DMA2_Stream1_Config__->Request.Stream->CR & DMA_SxCR_DBM_Msk) != 0)
 8001e86:	4b22      	ldr	r3, [pc, #136]	@ (8001f10 <DMA2_Stream1_IRQHandler+0x14c>)
 8001e88:	681b      	ldr	r3, [r3, #0]
 8001e8a:	685b      	ldr	r3, [r3, #4]
 8001e8c:	681b      	ldr	r3, [r3, #0]
 8001e8e:	f403 2380 	and.w	r3, r3, #262144	@ 0x40000
 8001e92:	2b00      	cmp	r3, #0
 8001e94:	d004      	beq.n	8001ea0 <DMA2_Stream1_IRQHandler+0xdc>
				{
					__DMA2_Stream1_Config__ -> ISR_Routines.Double_Buffer_Mode_Target_1_ISR();
 8001e96:	4b1e      	ldr	r3, [pc, #120]	@ (8001f10 <DMA2_Stream1_IRQHandler+0x14c>)
 8001e98:	681b      	ldr	r3, [r3, #0]
 8001e9a:	6d1b      	ldr	r3, [r3, #80]	@ 0x50
 8001e9c:	4798      	blx	r3
 8001e9e:	e003      	b.n	8001ea8 <DMA2_Stream1_IRQHandler+0xe4>
				}
				else
				{
					__DMA2_Stream1_Config__ -> ISR_Routines.Double_Buffer_Mode_Target_2_ISR();
 8001ea0:	4b1b      	ldr	r3, [pc, #108]	@ (8001f10 <DMA2_Stream1_IRQHandler+0x14c>)
 8001ea2:	681b      	ldr	r3, [r3, #0]
 8001ea4:	6d5b      	ldr	r3, [r3, #84]	@ 0x54
 8001ea6:	4798      	blx	r3
				}
			}
		}
	}

	if(DMA_LISR & DMA_LISR_TCIF1)
 8001ea8:	4b18      	ldr	r3, [pc, #96]	@ (8001f0c <DMA2_Stream1_IRQHandler+0x148>)
 8001eaa:	681b      	ldr	r3, [r3, #0]
 8001eac:	f403 6300 	and.w	r3, r3, #2048	@ 0x800
 8001eb0:	2b00      	cmp	r3, #0
 8001eb2:	d026      	beq.n	8001f02 <DMA2_Stream1_IRQHandler+0x13e>
	{
		if (__DMA2_Stream1_Config__ -> ISR_Routines.Full_Transfer_Commplete_ISR)
 8001eb4:	4b16      	ldr	r3, [pc, #88]	@ (8001f10 <DMA2_Stream1_IRQHandler+0x14c>)
 8001eb6:	681b      	ldr	r3, [r3, #0]
 8001eb8:	6cdb      	ldr	r3, [r3, #76]	@ 0x4c
 8001eba:	2b00      	cmp	r3, #0
 8001ebc:	d021      	beq.n	8001f02 <DMA2_Stream1_IRQHandler+0x13e>
		{
			__DMA2_Stream1_Config__ ->ISR_Routines.Half_Transfer_Complete_ISR();
 8001ebe:	4b14      	ldr	r3, [pc, #80]	@ (8001f10 <DMA2_Stream1_IRQHandler+0x14c>)
 8001ec0:	681b      	ldr	r3, [r3, #0]
 8001ec2:	6c9b      	ldr	r3, [r3, #72]	@ 0x48
 8001ec4:	4798      	blx	r3
			DMA2 -> LIFCR |= DMA_LIFCR_CTCIF1;
 8001ec6:	4b10      	ldr	r3, [pc, #64]	@ (8001f08 <DMA2_Stream1_IRQHandler+0x144>)
 8001ec8:	689b      	ldr	r3, [r3, #8]
 8001eca:	4a0f      	ldr	r2, [pc, #60]	@ (8001f08 <DMA2_Stream1_IRQHandler+0x144>)
 8001ecc:	f443 6300 	orr.w	r3, r3, #2048	@ 0x800
 8001ed0:	6093      	str	r3, [r2, #8]

			if(__DMA2_Stream1_Config__->double_buffer_mode == DMA_Configuration.Double_Buffer_Mode.Enable )
 8001ed2:	4b0f      	ldr	r3, [pc, #60]	@ (8001f10 <DMA2_Stream1_IRQHandler+0x14c>)
 8001ed4:	681b      	ldr	r3, [r3, #0]
 8001ed6:	6b9b      	ldr	r3, [r3, #56]	@ 0x38
 8001ed8:	f44f 2280 	mov.w	r2, #262144	@ 0x40000
 8001edc:	4293      	cmp	r3, r2
 8001ede:	d110      	bne.n	8001f02 <DMA2_Stream1_IRQHandler+0x13e>
			{
				if((__DMA2_Stream1_Config__->Request.Stream->CR & DMA_SxCR_DBM_Msk) != 0)
 8001ee0:	4b0b      	ldr	r3, [pc, #44]	@ (8001f10 <DMA2_Stream1_IRQHandler+0x14c>)
 8001ee2:	681b      	ldr	r3, [r3, #0]
 8001ee4:	685b      	ldr	r3, [r3, #4]
 8001ee6:	681b      	ldr	r3, [r3, #0]
 8001ee8:	f403 2380 	and.w	r3, r3, #262144	@ 0x40000
 8001eec:	2b00      	cmp	r3, #0
 8001eee:	d004      	beq.n	8001efa <DMA2_Stream1_IRQHandler+0x136>
				{
					__DMA2_Stream1_Config__ -> ISR_Routines.Double_Buffer_Mode_Target_1_ISR();
 8001ef0:	4b07      	ldr	r3, [pc, #28]	@ (8001f10 <DMA2_Stream1_IRQHandler+0x14c>)
 8001ef2:	681b      	ldr	r3, [r3, #0]
 8001ef4:	6d1b      	ldr	r3, [r3, #80]	@ 0x50
 8001ef6:	4798      	blx	r3
					__DMA2_Stream1_Config__ -> ISR_Routines.Double_Buffer_Mode_Target_2_ISR();
				}
			}
		}
	}
}
 8001ef8:	e003      	b.n	8001f02 <DMA2_Stream1_IRQHandler+0x13e>
					__DMA2_Stream1_Config__ -> ISR_Routines.Double_Buffer_Mode_Target_2_ISR();
 8001efa:	4b05      	ldr	r3, [pc, #20]	@ (8001f10 <DMA2_Stream1_IRQHandler+0x14c>)
 8001efc:	681b      	ldr	r3, [r3, #0]
 8001efe:	6d5b      	ldr	r3, [r3, #84]	@ 0x54
 8001f00:	4798      	blx	r3
}
 8001f02:	bf00      	nop
 8001f04:	bd80      	pop	{r7, pc}
 8001f06:	bf00      	nop
 8001f08:	40026400 	.word	0x40026400
 8001f0c:	20000060 	.word	0x20000060
 8001f10:	20000044 	.word	0x20000044

08001f14 <DMA2_Stream2_IRQHandler>:


void DMA2_Stream2_IRQHandler(void)
{
 8001f14:	b580      	push	{r7, lr}
 8001f16:	af00      	add	r7, sp, #0
	DMA_LISR = DMA2 -> LISR;
 8001f18:	4b4f      	ldr	r3, [pc, #316]	@ (8002058 <DMA2_Stream2_IRQHandler+0x144>)
 8001f1a:	681b      	ldr	r3, [r3, #0]
 8001f1c:	4a4f      	ldr	r2, [pc, #316]	@ (800205c <DMA2_Stream2_IRQHandler+0x148>)
 8001f1e:	6013      	str	r3, [r2, #0]

	if(DMA_LISR & DMA_LISR_FEIF2)
 8001f20:	4b4e      	ldr	r3, [pc, #312]	@ (800205c <DMA2_Stream2_IRQHandler+0x148>)
 8001f22:	681b      	ldr	r3, [r3, #0]
 8001f24:	f403 3380 	and.w	r3, r3, #65536	@ 0x10000
 8001f28:	2b00      	cmp	r3, #0
 8001f2a:	d00e      	beq.n	8001f4a <DMA2_Stream2_IRQHandler+0x36>
	{
		if (__DMA2_Stream2_Config__ -> ISR_Routines.FIFO_Error_ISR)
 8001f2c:	4b4c      	ldr	r3, [pc, #304]	@ (8002060 <DMA2_Stream2_IRQHandler+0x14c>)
 8001f2e:	681b      	ldr	r3, [r3, #0]
 8001f30:	6bdb      	ldr	r3, [r3, #60]	@ 0x3c
 8001f32:	2b00      	cmp	r3, #0
 8001f34:	d009      	beq.n	8001f4a <DMA2_Stream2_IRQHandler+0x36>
		{
			__DMA2_Stream2_Config__ ->ISR_Routines.FIFO_Error_ISR();
 8001f36:	4b4a      	ldr	r3, [pc, #296]	@ (8002060 <DMA2_Stream2_IRQHandler+0x14c>)
 8001f38:	681b      	ldr	r3, [r3, #0]
 8001f3a:	6bdb      	ldr	r3, [r3, #60]	@ 0x3c
 8001f3c:	4798      	blx	r3
			DMA2 -> LIFCR |= DMA_LIFCR_CFEIF2;
 8001f3e:	4b46      	ldr	r3, [pc, #280]	@ (8002058 <DMA2_Stream2_IRQHandler+0x144>)
 8001f40:	689b      	ldr	r3, [r3, #8]
 8001f42:	4a45      	ldr	r2, [pc, #276]	@ (8002058 <DMA2_Stream2_IRQHandler+0x144>)
 8001f44:	f443 3380 	orr.w	r3, r3, #65536	@ 0x10000
 8001f48:	6093      	str	r3, [r2, #8]
		}
	}

	if(DMA_LISR & DMA_LISR_DMEIF2)
 8001f4a:	4b44      	ldr	r3, [pc, #272]	@ (800205c <DMA2_Stream2_IRQHandler+0x148>)
 8001f4c:	681b      	ldr	r3, [r3, #0]
 8001f4e:	f403 2380 	and.w	r3, r3, #262144	@ 0x40000
 8001f52:	2b00      	cmp	r3, #0
 8001f54:	d00e      	beq.n	8001f74 <DMA2_Stream2_IRQHandler+0x60>
	{
		if (__DMA2_Stream2_Config__ -> ISR_Routines.Direct_Mode_Error_ISR)
 8001f56:	4b42      	ldr	r3, [pc, #264]	@ (8002060 <DMA2_Stream2_IRQHandler+0x14c>)
 8001f58:	681b      	ldr	r3, [r3, #0]
 8001f5a:	6c1b      	ldr	r3, [r3, #64]	@ 0x40
 8001f5c:	2b00      	cmp	r3, #0
 8001f5e:	d009      	beq.n	8001f74 <DMA2_Stream2_IRQHandler+0x60>
		{
			__DMA2_Stream2_Config__ ->ISR_Routines.Direct_Mode_Error_ISR();
 8001f60:	4b3f      	ldr	r3, [pc, #252]	@ (8002060 <DMA2_Stream2_IRQHandler+0x14c>)
 8001f62:	681b      	ldr	r3, [r3, #0]
 8001f64:	6c1b      	ldr	r3, [r3, #64]	@ 0x40
 8001f66:	4798      	blx	r3
			DMA2 -> LIFCR |= DMA_LIFCR_CDMEIF2;
 8001f68:	4b3b      	ldr	r3, [pc, #236]	@ (8002058 <DMA2_Stream2_IRQHandler+0x144>)
 8001f6a:	689b      	ldr	r3, [r3, #8]
 8001f6c:	4a3a      	ldr	r2, [pc, #232]	@ (8002058 <DMA2_Stream2_IRQHandler+0x144>)
 8001f6e:	f443 2380 	orr.w	r3, r3, #262144	@ 0x40000
 8001f72:	6093      	str	r3, [r2, #8]
		}
	}

	if(DMA_LISR & DMA_LISR_TEIF2)
 8001f74:	4b39      	ldr	r3, [pc, #228]	@ (800205c <DMA2_Stream2_IRQHandler+0x148>)
 8001f76:	681b      	ldr	r3, [r3, #0]
 8001f78:	f403 2300 	and.w	r3, r3, #524288	@ 0x80000
 8001f7c:	2b00      	cmp	r3, #0
 8001f7e:	d00e      	beq.n	8001f9e <DMA2_Stream2_IRQHandler+0x8a>
	{
		if (__DMA2_Stream2_Config__ -> ISR_Routines.Transfer_Error_ISR)
 8001f80:	4b37      	ldr	r3, [pc, #220]	@ (8002060 <DMA2_Stream2_IRQHandler+0x14c>)
 8001f82:	681b      	ldr	r3, [r3, #0]
 8001f84:	6c5b      	ldr	r3, [r3, #68]	@ 0x44
 8001f86:	2b00      	cmp	r3, #0
 8001f88:	d009      	beq.n	8001f9e <DMA2_Stream2_IRQHandler+0x8a>
		{
			__DMA2_Stream2_Config__ ->ISR_Routines.Transfer_Error_ISR();
 8001f8a:	4b35      	ldr	r3, [pc, #212]	@ (8002060 <DMA2_Stream2_IRQHandler+0x14c>)
 8001f8c:	681b      	ldr	r3, [r3, #0]
 8001f8e:	6c5b      	ldr	r3, [r3, #68]	@ 0x44
 8001f90:	4798      	blx	r3
			DMA2 -> LIFCR |= DMA_LIFCR_CTEIF2;
 8001f92:	4b31      	ldr	r3, [pc, #196]	@ (8002058 <DMA2_Stream2_IRQHandler+0x144>)
 8001f94:	689b      	ldr	r3, [r3, #8]
 8001f96:	4a30      	ldr	r2, [pc, #192]	@ (8002058 <DMA2_Stream2_IRQHandler+0x144>)
 8001f98:	f443 2300 	orr.w	r3, r3, #524288	@ 0x80000
 8001f9c:	6093      	str	r3, [r2, #8]
		}
	}

	if(DMA_LISR & DMA_LISR_HTIF2)
 8001f9e:	4b2f      	ldr	r3, [pc, #188]	@ (800205c <DMA2_Stream2_IRQHandler+0x148>)
 8001fa0:	681b      	ldr	r3, [r3, #0]
 8001fa2:	f403 1380 	and.w	r3, r3, #1048576	@ 0x100000
 8001fa6:	2b00      	cmp	r3, #0
 8001fa8:	d026      	beq.n	8001ff8 <DMA2_Stream2_IRQHandler+0xe4>
	{
		if (__DMA2_Stream2_Config__ -> ISR_Routines.Half_Transfer_Complete_ISR)
 8001faa:	4b2d      	ldr	r3, [pc, #180]	@ (8002060 <DMA2_Stream2_IRQHandler+0x14c>)
 8001fac:	681b      	ldr	r3, [r3, #0]
 8001fae:	6c9b      	ldr	r3, [r3, #72]	@ 0x48
 8001fb0:	2b00      	cmp	r3, #0
 8001fb2:	d021      	beq.n	8001ff8 <DMA2_Stream2_IRQHandler+0xe4>
		{
			__DMA2_Stream2_Config__ ->ISR_Routines.Half_Transfer_Complete_ISR();
 8001fb4:	4b2a      	ldr	r3, [pc, #168]	@ (8002060 <DMA2_Stream2_IRQHandler+0x14c>)
 8001fb6:	681b      	ldr	r3, [r3, #0]
 8001fb8:	6c9b      	ldr	r3, [r3, #72]	@ 0x48
 8001fba:	4798      	blx	r3
			DMA2 -> LIFCR |= DMA_LIFCR_CHTIF2;
 8001fbc:	4b26      	ldr	r3, [pc, #152]	@ (8002058 <DMA2_Stream2_IRQHandler+0x144>)
 8001fbe:	689b      	ldr	r3, [r3, #8]
 8001fc0:	4a25      	ldr	r2, [pc, #148]	@ (8002058 <DMA2_Stream2_IRQHandler+0x144>)
 8001fc2:	f443 1380 	orr.w	r3, r3, #1048576	@ 0x100000
 8001fc6:	6093      	str	r3, [r2, #8]

			if(__DMA2_Stream2_Config__->double_buffer_mode == DMA_Configuration.Double_Buffer_Mode.Enable )
 8001fc8:	4b25      	ldr	r3, [pc, #148]	@ (8002060 <DMA2_Stream2_IRQHandler+0x14c>)
 8001fca:	681b      	ldr	r3, [r3, #0]
 8001fcc:	6b9b      	ldr	r3, [r3, #56]	@ 0x38
 8001fce:	f44f 2280 	mov.w	r2, #262144	@ 0x40000
 8001fd2:	4293      	cmp	r3, r2
 8001fd4:	d110      	bne.n	8001ff8 <DMA2_Stream2_IRQHandler+0xe4>
			{
				if((__DMA2_Stream2_Config__->Request.Stream->CR & DMA_SxCR_DBM_Msk) != 0)
 8001fd6:	4b22      	ldr	r3, [pc, #136]	@ (8002060 <DMA2_Stream2_IRQHandler+0x14c>)
 8001fd8:	681b      	ldr	r3, [r3, #0]
 8001fda:	685b      	ldr	r3, [r3, #4]
 8001fdc:	681b      	ldr	r3, [r3, #0]
 8001fde:	f403 2380 	and.w	r3, r3, #262144	@ 0x40000
 8001fe2:	2b00      	cmp	r3, #0
 8001fe4:	d004      	beq.n	8001ff0 <DMA2_Stream2_IRQHandler+0xdc>
				{
					__DMA2_Stream2_Config__ -> ISR_Routines.Double_Buffer_Mode_Target_1_ISR();
 8001fe6:	4b1e      	ldr	r3, [pc, #120]	@ (8002060 <DMA2_Stream2_IRQHandler+0x14c>)
 8001fe8:	681b      	ldr	r3, [r3, #0]
 8001fea:	6d1b      	ldr	r3, [r3, #80]	@ 0x50
 8001fec:	4798      	blx	r3
 8001fee:	e003      	b.n	8001ff8 <DMA2_Stream2_IRQHandler+0xe4>
				}
				else
				{
					__DMA2_Stream2_Config__ -> ISR_Routines.Double_Buffer_Mode_Target_2_ISR();
 8001ff0:	4b1b      	ldr	r3, [pc, #108]	@ (8002060 <DMA2_Stream2_IRQHandler+0x14c>)
 8001ff2:	681b      	ldr	r3, [r3, #0]
 8001ff4:	6d5b      	ldr	r3, [r3, #84]	@ 0x54
 8001ff6:	4798      	blx	r3
				}
			}
		}
	}

	if(DMA_LISR & DMA_LISR_TCIF2)
 8001ff8:	4b18      	ldr	r3, [pc, #96]	@ (800205c <DMA2_Stream2_IRQHandler+0x148>)
 8001ffa:	681b      	ldr	r3, [r3, #0]
 8001ffc:	f403 1300 	and.w	r3, r3, #2097152	@ 0x200000
 8002000:	2b00      	cmp	r3, #0
 8002002:	d026      	beq.n	8002052 <DMA2_Stream2_IRQHandler+0x13e>
	{
		if (__DMA2_Stream2_Config__ -> ISR_Routines.Full_Transfer_Commplete_ISR)
 8002004:	4b16      	ldr	r3, [pc, #88]	@ (8002060 <DMA2_Stream2_IRQHandler+0x14c>)
 8002006:	681b      	ldr	r3, [r3, #0]
 8002008:	6cdb      	ldr	r3, [r3, #76]	@ 0x4c
 800200a:	2b00      	cmp	r3, #0
 800200c:	d021      	beq.n	8002052 <DMA2_Stream2_IRQHandler+0x13e>
		{
			__DMA2_Stream2_Config__ ->ISR_Routines.Half_Transfer_Complete_ISR();
 800200e:	4b14      	ldr	r3, [pc, #80]	@ (8002060 <DMA2_Stream2_IRQHandler+0x14c>)
 8002010:	681b      	ldr	r3, [r3, #0]
 8002012:	6c9b      	ldr	r3, [r3, #72]	@ 0x48
 8002014:	4798      	blx	r3
			DMA2 -> LIFCR |= DMA_LIFCR_CTCIF2;
 8002016:	4b10      	ldr	r3, [pc, #64]	@ (8002058 <DMA2_Stream2_IRQHandler+0x144>)
 8002018:	689b      	ldr	r3, [r3, #8]
 800201a:	4a0f      	ldr	r2, [pc, #60]	@ (8002058 <DMA2_Stream2_IRQHandler+0x144>)
 800201c:	f443 1300 	orr.w	r3, r3, #2097152	@ 0x200000
 8002020:	6093      	str	r3, [r2, #8]

			if(__DMA2_Stream2_Config__->double_buffer_mode == DMA_Configuration.Double_Buffer_Mode.Enable )
 8002022:	4b0f      	ldr	r3, [pc, #60]	@ (8002060 <DMA2_Stream2_IRQHandler+0x14c>)
 8002024:	681b      	ldr	r3, [r3, #0]
 8002026:	6b9b      	ldr	r3, [r3, #56]	@ 0x38
 8002028:	f44f 2280 	mov.w	r2, #262144	@ 0x40000
 800202c:	4293      	cmp	r3, r2
 800202e:	d110      	bne.n	8002052 <DMA2_Stream2_IRQHandler+0x13e>
			{
				if((__DMA2_Stream2_Config__->Request.Stream->CR & DMA_SxCR_DBM_Msk) != 0)
 8002030:	4b0b      	ldr	r3, [pc, #44]	@ (8002060 <DMA2_Stream2_IRQHandler+0x14c>)
 8002032:	681b      	ldr	r3, [r3, #0]
 8002034:	685b      	ldr	r3, [r3, #4]
 8002036:	681b      	ldr	r3, [r3, #0]
 8002038:	f403 2380 	and.w	r3, r3, #262144	@ 0x40000
 800203c:	2b00      	cmp	r3, #0
 800203e:	d004      	beq.n	800204a <DMA2_Stream2_IRQHandler+0x136>
				{
					__DMA2_Stream2_Config__ -> ISR_Routines.Double_Buffer_Mode_Target_1_ISR();
 8002040:	4b07      	ldr	r3, [pc, #28]	@ (8002060 <DMA2_Stream2_IRQHandler+0x14c>)
 8002042:	681b      	ldr	r3, [r3, #0]
 8002044:	6d1b      	ldr	r3, [r3, #80]	@ 0x50
 8002046:	4798      	blx	r3
					__DMA2_Stream2_Config__ -> ISR_Routines.Double_Buffer_Mode_Target_2_ISR();
				}
			}
		}
	}
}
 8002048:	e003      	b.n	8002052 <DMA2_Stream2_IRQHandler+0x13e>
					__DMA2_Stream2_Config__ -> ISR_Routines.Double_Buffer_Mode_Target_2_ISR();
 800204a:	4b05      	ldr	r3, [pc, #20]	@ (8002060 <DMA2_Stream2_IRQHandler+0x14c>)
 800204c:	681b      	ldr	r3, [r3, #0]
 800204e:	6d5b      	ldr	r3, [r3, #84]	@ 0x54
 8002050:	4798      	blx	r3
}
 8002052:	bf00      	nop
 8002054:	bd80      	pop	{r7, pc}
 8002056:	bf00      	nop
 8002058:	40026400 	.word	0x40026400
 800205c:	20000060 	.word	0x20000060
 8002060:	20000048 	.word	0x20000048

08002064 <DMA2_Stream3_IRQHandler>:

void DMA2_Stream3_IRQHandler(void)
{
 8002064:	b580      	push	{r7, lr}
 8002066:	af00      	add	r7, sp, #0
	DMA_LISR = DMA2 -> LISR;
 8002068:	4b60      	ldr	r3, [pc, #384]	@ (80021ec <DMA2_Stream3_IRQHandler+0x188>)
 800206a:	681b      	ldr	r3, [r3, #0]
 800206c:	4a60      	ldr	r2, [pc, #384]	@ (80021f0 <DMA2_Stream3_IRQHandler+0x18c>)
 800206e:	6013      	str	r3, [r2, #0]

	if(DMA_LISR & DMA_LISR_FEIF3)
 8002070:	4b5f      	ldr	r3, [pc, #380]	@ (80021f0 <DMA2_Stream3_IRQHandler+0x18c>)
 8002072:	681b      	ldr	r3, [r3, #0]
 8002074:	f403 0380 	and.w	r3, r3, #4194304	@ 0x400000
 8002078:	2b00      	cmp	r3, #0
 800207a:	d015      	beq.n	80020a8 <DMA2_Stream3_IRQHandler+0x44>
	{
		if(__DMA2_Stream3_Config__->interrupts & DMA_Configuration.DMA_Interrupts.Fifo_Error)
 800207c:	4b5d      	ldr	r3, [pc, #372]	@ (80021f4 <DMA2_Stream3_IRQHandler+0x190>)
 800207e:	681b      	ldr	r3, [r3, #0]
 8002080:	69db      	ldr	r3, [r3, #28]
 8002082:	2280      	movs	r2, #128	@ 0x80
 8002084:	4013      	ands	r3, r2
 8002086:	2b00      	cmp	r3, #0
 8002088:	d00e      	beq.n	80020a8 <DMA2_Stream3_IRQHandler+0x44>
		{
			if (__DMA2_Stream3_Config__ -> ISR_Routines.FIFO_Error_ISR)
 800208a:	4b5a      	ldr	r3, [pc, #360]	@ (80021f4 <DMA2_Stream3_IRQHandler+0x190>)
 800208c:	681b      	ldr	r3, [r3, #0]
 800208e:	6bdb      	ldr	r3, [r3, #60]	@ 0x3c
 8002090:	2b00      	cmp	r3, #0
 8002092:	d009      	beq.n	80020a8 <DMA2_Stream3_IRQHandler+0x44>
			{
				__DMA2_Stream3_Config__ ->ISR_Routines.FIFO_Error_ISR();
 8002094:	4b57      	ldr	r3, [pc, #348]	@ (80021f4 <DMA2_Stream3_IRQHandler+0x190>)
 8002096:	681b      	ldr	r3, [r3, #0]
 8002098:	6bdb      	ldr	r3, [r3, #60]	@ 0x3c
 800209a:	4798      	blx	r3
				DMA2 -> LIFCR |= DMA_LIFCR_CFEIF3;
 800209c:	4b53      	ldr	r3, [pc, #332]	@ (80021ec <DMA2_Stream3_IRQHandler+0x188>)
 800209e:	689b      	ldr	r3, [r3, #8]
 80020a0:	4a52      	ldr	r2, [pc, #328]	@ (80021ec <DMA2_Stream3_IRQHandler+0x188>)
 80020a2:	f443 0380 	orr.w	r3, r3, #4194304	@ 0x400000
 80020a6:	6093      	str	r3, [r2, #8]
			}
		}
	}

	if(DMA_LISR & DMA_LISR_DMEIF3)
 80020a8:	4b51      	ldr	r3, [pc, #324]	@ (80021f0 <DMA2_Stream3_IRQHandler+0x18c>)
 80020aa:	681b      	ldr	r3, [r3, #0]
 80020ac:	f003 7380 	and.w	r3, r3, #16777216	@ 0x1000000
 80020b0:	2b00      	cmp	r3, #0
 80020b2:	d015      	beq.n	80020e0 <DMA2_Stream3_IRQHandler+0x7c>
	{
		if(__DMA2_Stream3_Config__->interrupts & DMA_Configuration.DMA_Interrupts.Direct_Mode_Error)
 80020b4:	4b4f      	ldr	r3, [pc, #316]	@ (80021f4 <DMA2_Stream3_IRQHandler+0x190>)
 80020b6:	681b      	ldr	r3, [r3, #0]
 80020b8:	69db      	ldr	r3, [r3, #28]
 80020ba:	2202      	movs	r2, #2
 80020bc:	4013      	ands	r3, r2
 80020be:	2b00      	cmp	r3, #0
 80020c0:	d00e      	beq.n	80020e0 <DMA2_Stream3_IRQHandler+0x7c>
		{
			if (__DMA2_Stream3_Config__ -> ISR_Routines.Direct_Mode_Error_ISR)
 80020c2:	4b4c      	ldr	r3, [pc, #304]	@ (80021f4 <DMA2_Stream3_IRQHandler+0x190>)
 80020c4:	681b      	ldr	r3, [r3, #0]
 80020c6:	6c1b      	ldr	r3, [r3, #64]	@ 0x40
 80020c8:	2b00      	cmp	r3, #0
 80020ca:	d009      	beq.n	80020e0 <DMA2_Stream3_IRQHandler+0x7c>
			{
				__DMA2_Stream3_Config__ ->ISR_Routines.Direct_Mode_Error_ISR();
 80020cc:	4b49      	ldr	r3, [pc, #292]	@ (80021f4 <DMA2_Stream3_IRQHandler+0x190>)
 80020ce:	681b      	ldr	r3, [r3, #0]
 80020d0:	6c1b      	ldr	r3, [r3, #64]	@ 0x40
 80020d2:	4798      	blx	r3
				DMA2 -> LIFCR |= DMA_LIFCR_CDMEIF3;
 80020d4:	4b45      	ldr	r3, [pc, #276]	@ (80021ec <DMA2_Stream3_IRQHandler+0x188>)
 80020d6:	689b      	ldr	r3, [r3, #8]
 80020d8:	4a44      	ldr	r2, [pc, #272]	@ (80021ec <DMA2_Stream3_IRQHandler+0x188>)
 80020da:	f043 7380 	orr.w	r3, r3, #16777216	@ 0x1000000
 80020de:	6093      	str	r3, [r2, #8]
			}
		}
	}

	if(DMA_LISR & DMA_LISR_TEIF3)
 80020e0:	4b43      	ldr	r3, [pc, #268]	@ (80021f0 <DMA2_Stream3_IRQHandler+0x18c>)
 80020e2:	681b      	ldr	r3, [r3, #0]
 80020e4:	f003 7300 	and.w	r3, r3, #33554432	@ 0x2000000
 80020e8:	2b00      	cmp	r3, #0
 80020ea:	d015      	beq.n	8002118 <DMA2_Stream3_IRQHandler+0xb4>
	{
		if(__DMA2_Stream3_Config__->interrupts & DMA_Configuration.DMA_Interrupts.Transfer_Error)
 80020ec:	4b41      	ldr	r3, [pc, #260]	@ (80021f4 <DMA2_Stream3_IRQHandler+0x190>)
 80020ee:	681b      	ldr	r3, [r3, #0]
 80020f0:	69db      	ldr	r3, [r3, #28]
 80020f2:	2204      	movs	r2, #4
 80020f4:	4013      	ands	r3, r2
 80020f6:	2b00      	cmp	r3, #0
 80020f8:	d00e      	beq.n	8002118 <DMA2_Stream3_IRQHandler+0xb4>
		{
			if (__DMA2_Stream3_Config__ -> ISR_Routines.Transfer_Error_ISR)
 80020fa:	4b3e      	ldr	r3, [pc, #248]	@ (80021f4 <DMA2_Stream3_IRQHandler+0x190>)
 80020fc:	681b      	ldr	r3, [r3, #0]
 80020fe:	6c5b      	ldr	r3, [r3, #68]	@ 0x44
 8002100:	2b00      	cmp	r3, #0
 8002102:	d009      	beq.n	8002118 <DMA2_Stream3_IRQHandler+0xb4>
			{
				__DMA2_Stream3_Config__ ->ISR_Routines.Transfer_Error_ISR();
 8002104:	4b3b      	ldr	r3, [pc, #236]	@ (80021f4 <DMA2_Stream3_IRQHandler+0x190>)
 8002106:	681b      	ldr	r3, [r3, #0]
 8002108:	6c5b      	ldr	r3, [r3, #68]	@ 0x44
 800210a:	4798      	blx	r3
				DMA2 -> LIFCR |= DMA_LIFCR_CTEIF3;
 800210c:	4b37      	ldr	r3, [pc, #220]	@ (80021ec <DMA2_Stream3_IRQHandler+0x188>)
 800210e:	689b      	ldr	r3, [r3, #8]
 8002110:	4a36      	ldr	r2, [pc, #216]	@ (80021ec <DMA2_Stream3_IRQHandler+0x188>)
 8002112:	f043 7300 	orr.w	r3, r3, #33554432	@ 0x2000000
 8002116:	6093      	str	r3, [r2, #8]
			}
		}
	}

	if(DMA_LISR & DMA_LISR_HTIF3)
 8002118:	4b35      	ldr	r3, [pc, #212]	@ (80021f0 <DMA2_Stream3_IRQHandler+0x18c>)
 800211a:	681b      	ldr	r3, [r3, #0]
 800211c:	f003 6380 	and.w	r3, r3, #67108864	@ 0x4000000
 8002120:	2b00      	cmp	r3, #0
 8002122:	d02d      	beq.n	8002180 <DMA2_Stream3_IRQHandler+0x11c>
	{
		if(__DMA2_Stream3_Config__->interrupts & DMA_Configuration.DMA_Interrupts.Half_Transfer_Complete)
 8002124:	4b33      	ldr	r3, [pc, #204]	@ (80021f4 <DMA2_Stream3_IRQHandler+0x190>)
 8002126:	681b      	ldr	r3, [r3, #0]
 8002128:	69db      	ldr	r3, [r3, #28]
 800212a:	2208      	movs	r2, #8
 800212c:	4013      	ands	r3, r2
 800212e:	2b00      	cmp	r3, #0
 8002130:	d026      	beq.n	8002180 <DMA2_Stream3_IRQHandler+0x11c>
		{
			if (__DMA2_Stream3_Config__ -> ISR_Routines.Half_Transfer_Complete_ISR)
 8002132:	4b30      	ldr	r3, [pc, #192]	@ (80021f4 <DMA2_Stream3_IRQHandler+0x190>)
 8002134:	681b      	ldr	r3, [r3, #0]
 8002136:	6c9b      	ldr	r3, [r3, #72]	@ 0x48
 8002138:	2b00      	cmp	r3, #0
 800213a:	d021      	beq.n	8002180 <DMA2_Stream3_IRQHandler+0x11c>
			{
				__DMA2_Stream3_Config__ ->ISR_Routines.Half_Transfer_Complete_ISR();
 800213c:	4b2d      	ldr	r3, [pc, #180]	@ (80021f4 <DMA2_Stream3_IRQHandler+0x190>)
 800213e:	681b      	ldr	r3, [r3, #0]
 8002140:	6c9b      	ldr	r3, [r3, #72]	@ 0x48
 8002142:	4798      	blx	r3
				DMA2 -> LIFCR |= DMA_LIFCR_CHTIF3;
 8002144:	4b29      	ldr	r3, [pc, #164]	@ (80021ec <DMA2_Stream3_IRQHandler+0x188>)
 8002146:	689b      	ldr	r3, [r3, #8]
 8002148:	4a28      	ldr	r2, [pc, #160]	@ (80021ec <DMA2_Stream3_IRQHandler+0x188>)
 800214a:	f043 6380 	orr.w	r3, r3, #67108864	@ 0x4000000
 800214e:	6093      	str	r3, [r2, #8]

				if(__DMA2_Stream3_Config__->double_buffer_mode == DMA_Configuration.Double_Buffer_Mode.Enable )
 8002150:	4b28      	ldr	r3, [pc, #160]	@ (80021f4 <DMA2_Stream3_IRQHandler+0x190>)
 8002152:	681b      	ldr	r3, [r3, #0]
 8002154:	6b9b      	ldr	r3, [r3, #56]	@ 0x38
 8002156:	f44f 2280 	mov.w	r2, #262144	@ 0x40000
 800215a:	4293      	cmp	r3, r2
 800215c:	d110      	bne.n	8002180 <DMA2_Stream3_IRQHandler+0x11c>
				{
					if((__DMA2_Stream3_Config__->Request.Stream->CR & DMA_SxCR_DBM_Msk) != 0)
 800215e:	4b25      	ldr	r3, [pc, #148]	@ (80021f4 <DMA2_Stream3_IRQHandler+0x190>)
 8002160:	681b      	ldr	r3, [r3, #0]
 8002162:	685b      	ldr	r3, [r3, #4]
 8002164:	681b      	ldr	r3, [r3, #0]
 8002166:	f403 2380 	and.w	r3, r3, #262144	@ 0x40000
 800216a:	2b00      	cmp	r3, #0
 800216c:	d004      	beq.n	8002178 <DMA2_Stream3_IRQHandler+0x114>
					{
						__DMA2_Stream3_Config__ -> ISR_Routines.Double_Buffer_Mode_Target_1_ISR();
 800216e:	4b21      	ldr	r3, [pc, #132]	@ (80021f4 <DMA2_Stream3_IRQHandler+0x190>)
 8002170:	681b      	ldr	r3, [r3, #0]
 8002172:	6d1b      	ldr	r3, [r3, #80]	@ 0x50
 8002174:	4798      	blx	r3
 8002176:	e003      	b.n	8002180 <DMA2_Stream3_IRQHandler+0x11c>
					}
					else
					{
						__DMA2_Stream3_Config__ -> ISR_Routines.Double_Buffer_Mode_Target_2_ISR();
 8002178:	4b1e      	ldr	r3, [pc, #120]	@ (80021f4 <DMA2_Stream3_IRQHandler+0x190>)
 800217a:	681b      	ldr	r3, [r3, #0]
 800217c:	6d5b      	ldr	r3, [r3, #84]	@ 0x54
 800217e:	4798      	blx	r3
			}
		}

	}

	if(DMA_LISR & DMA_LISR_TCIF3)
 8002180:	4b1b      	ldr	r3, [pc, #108]	@ (80021f0 <DMA2_Stream3_IRQHandler+0x18c>)
 8002182:	681b      	ldr	r3, [r3, #0]
 8002184:	f003 6300 	and.w	r3, r3, #134217728	@ 0x8000000
 8002188:	2b00      	cmp	r3, #0
 800218a:	d02d      	beq.n	80021e8 <DMA2_Stream3_IRQHandler+0x184>
	{
		if(__DMA2_Stream3_Config__->interrupts & DMA_Configuration.DMA_Interrupts.Transfer_Complete)
 800218c:	4b19      	ldr	r3, [pc, #100]	@ (80021f4 <DMA2_Stream3_IRQHandler+0x190>)
 800218e:	681b      	ldr	r3, [r3, #0]
 8002190:	69db      	ldr	r3, [r3, #28]
 8002192:	2210      	movs	r2, #16
 8002194:	4013      	ands	r3, r2
 8002196:	2b00      	cmp	r3, #0
 8002198:	d026      	beq.n	80021e8 <DMA2_Stream3_IRQHandler+0x184>
		{
			if (__DMA2_Stream3_Config__ -> ISR_Routines.Full_Transfer_Commplete_ISR)
 800219a:	4b16      	ldr	r3, [pc, #88]	@ (80021f4 <DMA2_Stream3_IRQHandler+0x190>)
 800219c:	681b      	ldr	r3, [r3, #0]
 800219e:	6cdb      	ldr	r3, [r3, #76]	@ 0x4c
 80021a0:	2b00      	cmp	r3, #0
 80021a2:	d021      	beq.n	80021e8 <DMA2_Stream3_IRQHandler+0x184>
			{
				__DMA2_Stream3_Config__ ->ISR_Routines.Full_Transfer_Commplete_ISR();
 80021a4:	4b13      	ldr	r3, [pc, #76]	@ (80021f4 <DMA2_Stream3_IRQHandler+0x190>)
 80021a6:	681b      	ldr	r3, [r3, #0]
 80021a8:	6cdb      	ldr	r3, [r3, #76]	@ 0x4c
 80021aa:	4798      	blx	r3
				DMA2 -> LIFCR |= DMA_LIFCR_CTCIF3;
 80021ac:	4b0f      	ldr	r3, [pc, #60]	@ (80021ec <DMA2_Stream3_IRQHandler+0x188>)
 80021ae:	689b      	ldr	r3, [r3, #8]
 80021b0:	4a0e      	ldr	r2, [pc, #56]	@ (80021ec <DMA2_Stream3_IRQHandler+0x188>)
 80021b2:	f043 6300 	orr.w	r3, r3, #134217728	@ 0x8000000
 80021b6:	6093      	str	r3, [r2, #8]

				if(__DMA2_Stream3_Config__->double_buffer_mode == DMA_Configuration.Double_Buffer_Mode.Enable )
 80021b8:	4b0e      	ldr	r3, [pc, #56]	@ (80021f4 <DMA2_Stream3_IRQHandler+0x190>)
 80021ba:	681b      	ldr	r3, [r3, #0]
 80021bc:	6b9b      	ldr	r3, [r3, #56]	@ 0x38
 80021be:	f44f 2280 	mov.w	r2, #262144	@ 0x40000
 80021c2:	4293      	cmp	r3, r2
 80021c4:	d110      	bne.n	80021e8 <DMA2_Stream3_IRQHandler+0x184>
				{
					if((__DMA2_Stream3_Config__->Request.Stream->CR & DMA_SxCR_DBM_Msk) != 0)
 80021c6:	4b0b      	ldr	r3, [pc, #44]	@ (80021f4 <DMA2_Stream3_IRQHandler+0x190>)
 80021c8:	681b      	ldr	r3, [r3, #0]
 80021ca:	685b      	ldr	r3, [r3, #4]
 80021cc:	681b      	ldr	r3, [r3, #0]
 80021ce:	f403 2380 	and.w	r3, r3, #262144	@ 0x40000
 80021d2:	2b00      	cmp	r3, #0
 80021d4:	d004      	beq.n	80021e0 <DMA2_Stream3_IRQHandler+0x17c>
					{
						__DMA2_Stream3_Config__ -> ISR_Routines.Double_Buffer_Mode_Target_1_ISR();
 80021d6:	4b07      	ldr	r3, [pc, #28]	@ (80021f4 <DMA2_Stream3_IRQHandler+0x190>)
 80021d8:	681b      	ldr	r3, [r3, #0]
 80021da:	6d1b      	ldr	r3, [r3, #80]	@ 0x50
 80021dc:	4798      	blx	r3
					}
				}
			}
		}
	}
}
 80021de:	e003      	b.n	80021e8 <DMA2_Stream3_IRQHandler+0x184>
						__DMA2_Stream3_Config__ -> ISR_Routines.Double_Buffer_Mode_Target_2_ISR();
 80021e0:	4b04      	ldr	r3, [pc, #16]	@ (80021f4 <DMA2_Stream3_IRQHandler+0x190>)
 80021e2:	681b      	ldr	r3, [r3, #0]
 80021e4:	6d5b      	ldr	r3, [r3, #84]	@ 0x54
 80021e6:	4798      	blx	r3
}
 80021e8:	bf00      	nop
 80021ea:	bd80      	pop	{r7, pc}
 80021ec:	40026400 	.word	0x40026400
 80021f0:	20000060 	.word	0x20000060
 80021f4:	2000004c 	.word	0x2000004c

080021f8 <DMA2_Stream4_IRQHandler>:

void DMA2_Stream4_IRQHandler(void)
{
 80021f8:	b580      	push	{r7, lr}
 80021fa:	af00      	add	r7, sp, #0
	DMA_HISR = DMA2 -> HISR;
 80021fc:	4b4f      	ldr	r3, [pc, #316]	@ (800233c <DMA2_Stream4_IRQHandler+0x144>)
 80021fe:	685b      	ldr	r3, [r3, #4]
 8002200:	4a4f      	ldr	r2, [pc, #316]	@ (8002340 <DMA2_Stream4_IRQHandler+0x148>)
 8002202:	6013      	str	r3, [r2, #0]

	if(DMA_HISR & DMA_HISR_FEIF4)
 8002204:	4b4e      	ldr	r3, [pc, #312]	@ (8002340 <DMA2_Stream4_IRQHandler+0x148>)
 8002206:	681b      	ldr	r3, [r3, #0]
 8002208:	f003 0301 	and.w	r3, r3, #1
 800220c:	2b00      	cmp	r3, #0
 800220e:	d00e      	beq.n	800222e <DMA2_Stream4_IRQHandler+0x36>
	{
		if (__DMA2_Stream4_Config__ -> ISR_Routines.FIFO_Error_ISR)
 8002210:	4b4c      	ldr	r3, [pc, #304]	@ (8002344 <DMA2_Stream4_IRQHandler+0x14c>)
 8002212:	681b      	ldr	r3, [r3, #0]
 8002214:	6bdb      	ldr	r3, [r3, #60]	@ 0x3c
 8002216:	2b00      	cmp	r3, #0
 8002218:	d009      	beq.n	800222e <DMA2_Stream4_IRQHandler+0x36>
		{
			__DMA2_Stream4_Config__ ->ISR_Routines.FIFO_Error_ISR();
 800221a:	4b4a      	ldr	r3, [pc, #296]	@ (8002344 <DMA2_Stream4_IRQHandler+0x14c>)
 800221c:	681b      	ldr	r3, [r3, #0]
 800221e:	6bdb      	ldr	r3, [r3, #60]	@ 0x3c
 8002220:	4798      	blx	r3
			DMA2 -> LIFCR |= DMA_HIFCR_CFEIF5;
 8002222:	4b46      	ldr	r3, [pc, #280]	@ (800233c <DMA2_Stream4_IRQHandler+0x144>)
 8002224:	689b      	ldr	r3, [r3, #8]
 8002226:	4a45      	ldr	r2, [pc, #276]	@ (800233c <DMA2_Stream4_IRQHandler+0x144>)
 8002228:	f043 0340 	orr.w	r3, r3, #64	@ 0x40
 800222c:	6093      	str	r3, [r2, #8]
		}
	}

	if(DMA_HISR & DMA_HISR_DMEIF4)
 800222e:	4b44      	ldr	r3, [pc, #272]	@ (8002340 <DMA2_Stream4_IRQHandler+0x148>)
 8002230:	681b      	ldr	r3, [r3, #0]
 8002232:	f003 0304 	and.w	r3, r3, #4
 8002236:	2b00      	cmp	r3, #0
 8002238:	d00e      	beq.n	8002258 <DMA2_Stream4_IRQHandler+0x60>
	{
		if (__DMA2_Stream4_Config__ -> ISR_Routines.Direct_Mode_Error_ISR)
 800223a:	4b42      	ldr	r3, [pc, #264]	@ (8002344 <DMA2_Stream4_IRQHandler+0x14c>)
 800223c:	681b      	ldr	r3, [r3, #0]
 800223e:	6c1b      	ldr	r3, [r3, #64]	@ 0x40
 8002240:	2b00      	cmp	r3, #0
 8002242:	d009      	beq.n	8002258 <DMA2_Stream4_IRQHandler+0x60>
		{
			__DMA2_Stream4_Config__ ->ISR_Routines.Direct_Mode_Error_ISR();
 8002244:	4b3f      	ldr	r3, [pc, #252]	@ (8002344 <DMA2_Stream4_IRQHandler+0x14c>)
 8002246:	681b      	ldr	r3, [r3, #0]
 8002248:	6c1b      	ldr	r3, [r3, #64]	@ 0x40
 800224a:	4798      	blx	r3
			DMA2 -> HIFCR |= DMA_HIFCR_CDMEIF4;
 800224c:	4b3b      	ldr	r3, [pc, #236]	@ (800233c <DMA2_Stream4_IRQHandler+0x144>)
 800224e:	68db      	ldr	r3, [r3, #12]
 8002250:	4a3a      	ldr	r2, [pc, #232]	@ (800233c <DMA2_Stream4_IRQHandler+0x144>)
 8002252:	f043 0304 	orr.w	r3, r3, #4
 8002256:	60d3      	str	r3, [r2, #12]
		}
	}

	if(DMA_HISR & DMA_HISR_TEIF4)
 8002258:	4b39      	ldr	r3, [pc, #228]	@ (8002340 <DMA2_Stream4_IRQHandler+0x148>)
 800225a:	681b      	ldr	r3, [r3, #0]
 800225c:	f003 0308 	and.w	r3, r3, #8
 8002260:	2b00      	cmp	r3, #0
 8002262:	d00e      	beq.n	8002282 <DMA2_Stream4_IRQHandler+0x8a>
	{
		if (__DMA2_Stream4_Config__ -> ISR_Routines.Transfer_Error_ISR)
 8002264:	4b37      	ldr	r3, [pc, #220]	@ (8002344 <DMA2_Stream4_IRQHandler+0x14c>)
 8002266:	681b      	ldr	r3, [r3, #0]
 8002268:	6c5b      	ldr	r3, [r3, #68]	@ 0x44
 800226a:	2b00      	cmp	r3, #0
 800226c:	d009      	beq.n	8002282 <DMA2_Stream4_IRQHandler+0x8a>
		{
			__DMA2_Stream4_Config__ ->ISR_Routines.Transfer_Error_ISR();
 800226e:	4b35      	ldr	r3, [pc, #212]	@ (8002344 <DMA2_Stream4_IRQHandler+0x14c>)
 8002270:	681b      	ldr	r3, [r3, #0]
 8002272:	6c5b      	ldr	r3, [r3, #68]	@ 0x44
 8002274:	4798      	blx	r3
			DMA2 -> HIFCR |= DMA_HIFCR_CTEIF4;
 8002276:	4b31      	ldr	r3, [pc, #196]	@ (800233c <DMA2_Stream4_IRQHandler+0x144>)
 8002278:	68db      	ldr	r3, [r3, #12]
 800227a:	4a30      	ldr	r2, [pc, #192]	@ (800233c <DMA2_Stream4_IRQHandler+0x144>)
 800227c:	f043 0308 	orr.w	r3, r3, #8
 8002280:	60d3      	str	r3, [r2, #12]
		}
	}

	if(DMA_HISR & DMA_HISR_HTIF4)
 8002282:	4b2f      	ldr	r3, [pc, #188]	@ (8002340 <DMA2_Stream4_IRQHandler+0x148>)
 8002284:	681b      	ldr	r3, [r3, #0]
 8002286:	f003 0310 	and.w	r3, r3, #16
 800228a:	2b00      	cmp	r3, #0
 800228c:	d026      	beq.n	80022dc <DMA2_Stream4_IRQHandler+0xe4>
	{
		if (__DMA2_Stream4_Config__ -> ISR_Routines.Half_Transfer_Complete_ISR)
 800228e:	4b2d      	ldr	r3, [pc, #180]	@ (8002344 <DMA2_Stream4_IRQHandler+0x14c>)
 8002290:	681b      	ldr	r3, [r3, #0]
 8002292:	6c9b      	ldr	r3, [r3, #72]	@ 0x48
 8002294:	2b00      	cmp	r3, #0
 8002296:	d021      	beq.n	80022dc <DMA2_Stream4_IRQHandler+0xe4>
		{
			__DMA2_Stream4_Config__ ->ISR_Routines.Half_Transfer_Complete_ISR();
 8002298:	4b2a      	ldr	r3, [pc, #168]	@ (8002344 <DMA2_Stream4_IRQHandler+0x14c>)
 800229a:	681b      	ldr	r3, [r3, #0]
 800229c:	6c9b      	ldr	r3, [r3, #72]	@ 0x48
 800229e:	4798      	blx	r3
			DMA2 -> HIFCR |= DMA_HIFCR_CHTIF4;
 80022a0:	4b26      	ldr	r3, [pc, #152]	@ (800233c <DMA2_Stream4_IRQHandler+0x144>)
 80022a2:	68db      	ldr	r3, [r3, #12]
 80022a4:	4a25      	ldr	r2, [pc, #148]	@ (800233c <DMA2_Stream4_IRQHandler+0x144>)
 80022a6:	f043 0310 	orr.w	r3, r3, #16
 80022aa:	60d3      	str	r3, [r2, #12]

			if(__DMA2_Stream4_Config__->double_buffer_mode == DMA_Configuration.Double_Buffer_Mode.Enable )
 80022ac:	4b25      	ldr	r3, [pc, #148]	@ (8002344 <DMA2_Stream4_IRQHandler+0x14c>)
 80022ae:	681b      	ldr	r3, [r3, #0]
 80022b0:	6b9b      	ldr	r3, [r3, #56]	@ 0x38
 80022b2:	f44f 2280 	mov.w	r2, #262144	@ 0x40000
 80022b6:	4293      	cmp	r3, r2
 80022b8:	d110      	bne.n	80022dc <DMA2_Stream4_IRQHandler+0xe4>
			{
				if((__DMA2_Stream4_Config__->Request.Stream->CR & DMA_SxCR_DBM_Msk) != 0)
 80022ba:	4b22      	ldr	r3, [pc, #136]	@ (8002344 <DMA2_Stream4_IRQHandler+0x14c>)
 80022bc:	681b      	ldr	r3, [r3, #0]
 80022be:	685b      	ldr	r3, [r3, #4]
 80022c0:	681b      	ldr	r3, [r3, #0]
 80022c2:	f403 2380 	and.w	r3, r3, #262144	@ 0x40000
 80022c6:	2b00      	cmp	r3, #0
 80022c8:	d004      	beq.n	80022d4 <DMA2_Stream4_IRQHandler+0xdc>
				{
					__DMA2_Stream4_Config__ -> ISR_Routines.Double_Buffer_Mode_Target_1_ISR();
 80022ca:	4b1e      	ldr	r3, [pc, #120]	@ (8002344 <DMA2_Stream4_IRQHandler+0x14c>)
 80022cc:	681b      	ldr	r3, [r3, #0]
 80022ce:	6d1b      	ldr	r3, [r3, #80]	@ 0x50
 80022d0:	4798      	blx	r3
 80022d2:	e003      	b.n	80022dc <DMA2_Stream4_IRQHandler+0xe4>
				}
				else
				{
					__DMA2_Stream4_Config__ -> ISR_Routines.Double_Buffer_Mode_Target_2_ISR();
 80022d4:	4b1b      	ldr	r3, [pc, #108]	@ (8002344 <DMA2_Stream4_IRQHandler+0x14c>)
 80022d6:	681b      	ldr	r3, [r3, #0]
 80022d8:	6d5b      	ldr	r3, [r3, #84]	@ 0x54
 80022da:	4798      	blx	r3
				}
			}
		}
	}

	if(DMA_HISR & DMA_HISR_TCIF4)
 80022dc:	4b18      	ldr	r3, [pc, #96]	@ (8002340 <DMA2_Stream4_IRQHandler+0x148>)
 80022de:	681b      	ldr	r3, [r3, #0]
 80022e0:	f003 0320 	and.w	r3, r3, #32
 80022e4:	2b00      	cmp	r3, #0
 80022e6:	d026      	beq.n	8002336 <DMA2_Stream4_IRQHandler+0x13e>
	{
		if (__DMA2_Stream4_Config__ -> ISR_Routines.Full_Transfer_Commplete_ISR)
 80022e8:	4b16      	ldr	r3, [pc, #88]	@ (8002344 <DMA2_Stream4_IRQHandler+0x14c>)
 80022ea:	681b      	ldr	r3, [r3, #0]
 80022ec:	6cdb      	ldr	r3, [r3, #76]	@ 0x4c
 80022ee:	2b00      	cmp	r3, #0
 80022f0:	d021      	beq.n	8002336 <DMA2_Stream4_IRQHandler+0x13e>
		{
			__DMA2_Stream4_Config__ ->ISR_Routines.Half_Transfer_Complete_ISR();
 80022f2:	4b14      	ldr	r3, [pc, #80]	@ (8002344 <DMA2_Stream4_IRQHandler+0x14c>)
 80022f4:	681b      	ldr	r3, [r3, #0]
 80022f6:	6c9b      	ldr	r3, [r3, #72]	@ 0x48
 80022f8:	4798      	blx	r3
			DMA2 -> HIFCR |= DMA_HIFCR_CTCIF4;
 80022fa:	4b10      	ldr	r3, [pc, #64]	@ (800233c <DMA2_Stream4_IRQHandler+0x144>)
 80022fc:	68db      	ldr	r3, [r3, #12]
 80022fe:	4a0f      	ldr	r2, [pc, #60]	@ (800233c <DMA2_Stream4_IRQHandler+0x144>)
 8002300:	f043 0320 	orr.w	r3, r3, #32
 8002304:	60d3      	str	r3, [r2, #12]

			if(__DMA2_Stream4_Config__->double_buffer_mode == DMA_Configuration.Double_Buffer_Mode.Enable )
 8002306:	4b0f      	ldr	r3, [pc, #60]	@ (8002344 <DMA2_Stream4_IRQHandler+0x14c>)
 8002308:	681b      	ldr	r3, [r3, #0]
 800230a:	6b9b      	ldr	r3, [r3, #56]	@ 0x38
 800230c:	f44f 2280 	mov.w	r2, #262144	@ 0x40000
 8002310:	4293      	cmp	r3, r2
 8002312:	d110      	bne.n	8002336 <DMA2_Stream4_IRQHandler+0x13e>
			{
				if((__DMA2_Stream4_Config__->Request.Stream->CR & DMA_SxCR_DBM_Msk) != 0)
 8002314:	4b0b      	ldr	r3, [pc, #44]	@ (8002344 <DMA2_Stream4_IRQHandler+0x14c>)
 8002316:	681b      	ldr	r3, [r3, #0]
 8002318:	685b      	ldr	r3, [r3, #4]
 800231a:	681b      	ldr	r3, [r3, #0]
 800231c:	f403 2380 	and.w	r3, r3, #262144	@ 0x40000
 8002320:	2b00      	cmp	r3, #0
 8002322:	d004      	beq.n	800232e <DMA2_Stream4_IRQHandler+0x136>
				{
					__DMA2_Stream4_Config__ -> ISR_Routines.Double_Buffer_Mode_Target_1_ISR();
 8002324:	4b07      	ldr	r3, [pc, #28]	@ (8002344 <DMA2_Stream4_IRQHandler+0x14c>)
 8002326:	681b      	ldr	r3, [r3, #0]
 8002328:	6d1b      	ldr	r3, [r3, #80]	@ 0x50
 800232a:	4798      	blx	r3
					__DMA2_Stream4_Config__ -> ISR_Routines.Double_Buffer_Mode_Target_2_ISR();
				}
			}
		}
	}
}
 800232c:	e003      	b.n	8002336 <DMA2_Stream4_IRQHandler+0x13e>
					__DMA2_Stream4_Config__ -> ISR_Routines.Double_Buffer_Mode_Target_2_ISR();
 800232e:	4b05      	ldr	r3, [pc, #20]	@ (8002344 <DMA2_Stream4_IRQHandler+0x14c>)
 8002330:	681b      	ldr	r3, [r3, #0]
 8002332:	6d5b      	ldr	r3, [r3, #84]	@ 0x54
 8002334:	4798      	blx	r3
}
 8002336:	bf00      	nop
 8002338:	bd80      	pop	{r7, pc}
 800233a:	bf00      	nop
 800233c:	40026400 	.word	0x40026400
 8002340:	20000064 	.word	0x20000064
 8002344:	20000050 	.word	0x20000050

08002348 <DMA2_Stream5_IRQHandler>:




void DMA2_Stream5_IRQHandler(void)
{
 8002348:	b580      	push	{r7, lr}
 800234a:	af00      	add	r7, sp, #0
	DMA_HISR = DMA2 -> HISR;
 800234c:	4b4f      	ldr	r3, [pc, #316]	@ (800248c <DMA2_Stream5_IRQHandler+0x144>)
 800234e:	685b      	ldr	r3, [r3, #4]
 8002350:	4a4f      	ldr	r2, [pc, #316]	@ (8002490 <DMA2_Stream5_IRQHandler+0x148>)
 8002352:	6013      	str	r3, [r2, #0]

	if(DMA_HISR & DMA_HISR_FEIF5)
 8002354:	4b4e      	ldr	r3, [pc, #312]	@ (8002490 <DMA2_Stream5_IRQHandler+0x148>)
 8002356:	681b      	ldr	r3, [r3, #0]
 8002358:	f003 0340 	and.w	r3, r3, #64	@ 0x40
 800235c:	2b00      	cmp	r3, #0
 800235e:	d00e      	beq.n	800237e <DMA2_Stream5_IRQHandler+0x36>
	{
		if (__DMA2_Stream5_Config__ -> ISR_Routines.FIFO_Error_ISR)
 8002360:	4b4c      	ldr	r3, [pc, #304]	@ (8002494 <DMA2_Stream5_IRQHandler+0x14c>)
 8002362:	681b      	ldr	r3, [r3, #0]
 8002364:	6bdb      	ldr	r3, [r3, #60]	@ 0x3c
 8002366:	2b00      	cmp	r3, #0
 8002368:	d009      	beq.n	800237e <DMA2_Stream5_IRQHandler+0x36>
		{
			__DMA2_Stream5_Config__ ->ISR_Routines.FIFO_Error_ISR();
 800236a:	4b4a      	ldr	r3, [pc, #296]	@ (8002494 <DMA2_Stream5_IRQHandler+0x14c>)
 800236c:	681b      	ldr	r3, [r3, #0]
 800236e:	6bdb      	ldr	r3, [r3, #60]	@ 0x3c
 8002370:	4798      	blx	r3
			DMA2 -> HIFCR |= DMA_HIFCR_CFEIF5;
 8002372:	4b46      	ldr	r3, [pc, #280]	@ (800248c <DMA2_Stream5_IRQHandler+0x144>)
 8002374:	68db      	ldr	r3, [r3, #12]
 8002376:	4a45      	ldr	r2, [pc, #276]	@ (800248c <DMA2_Stream5_IRQHandler+0x144>)
 8002378:	f043 0340 	orr.w	r3, r3, #64	@ 0x40
 800237c:	60d3      	str	r3, [r2, #12]
		}
	}

	if(DMA_HISR & DMA_HISR_DMEIF5)
 800237e:	4b44      	ldr	r3, [pc, #272]	@ (8002490 <DMA2_Stream5_IRQHandler+0x148>)
 8002380:	681b      	ldr	r3, [r3, #0]
 8002382:	f403 7380 	and.w	r3, r3, #256	@ 0x100
 8002386:	2b00      	cmp	r3, #0
 8002388:	d00e      	beq.n	80023a8 <DMA2_Stream5_IRQHandler+0x60>
	{
		if (__DMA2_Stream5_Config__ -> ISR_Routines.Direct_Mode_Error_ISR)
 800238a:	4b42      	ldr	r3, [pc, #264]	@ (8002494 <DMA2_Stream5_IRQHandler+0x14c>)
 800238c:	681b      	ldr	r3, [r3, #0]
 800238e:	6c1b      	ldr	r3, [r3, #64]	@ 0x40
 8002390:	2b00      	cmp	r3, #0
 8002392:	d009      	beq.n	80023a8 <DMA2_Stream5_IRQHandler+0x60>
		{
			__DMA2_Stream5_Config__ ->ISR_Routines.Direct_Mode_Error_ISR();
 8002394:	4b3f      	ldr	r3, [pc, #252]	@ (8002494 <DMA2_Stream5_IRQHandler+0x14c>)
 8002396:	681b      	ldr	r3, [r3, #0]
 8002398:	6c1b      	ldr	r3, [r3, #64]	@ 0x40
 800239a:	4798      	blx	r3
			DMA2 -> HIFCR |= DMA_HIFCR_CDMEIF5;
 800239c:	4b3b      	ldr	r3, [pc, #236]	@ (800248c <DMA2_Stream5_IRQHandler+0x144>)
 800239e:	68db      	ldr	r3, [r3, #12]
 80023a0:	4a3a      	ldr	r2, [pc, #232]	@ (800248c <DMA2_Stream5_IRQHandler+0x144>)
 80023a2:	f443 7380 	orr.w	r3, r3, #256	@ 0x100
 80023a6:	60d3      	str	r3, [r2, #12]
		}
	}

	if(DMA_HISR & DMA_HISR_TEIF5)
 80023a8:	4b39      	ldr	r3, [pc, #228]	@ (8002490 <DMA2_Stream5_IRQHandler+0x148>)
 80023aa:	681b      	ldr	r3, [r3, #0]
 80023ac:	f403 7300 	and.w	r3, r3, #512	@ 0x200
 80023b0:	2b00      	cmp	r3, #0
 80023b2:	d00e      	beq.n	80023d2 <DMA2_Stream5_IRQHandler+0x8a>
	{
		if (__DMA2_Stream5_Config__ -> ISR_Routines.Transfer_Error_ISR)
 80023b4:	4b37      	ldr	r3, [pc, #220]	@ (8002494 <DMA2_Stream5_IRQHandler+0x14c>)
 80023b6:	681b      	ldr	r3, [r3, #0]
 80023b8:	6c5b      	ldr	r3, [r3, #68]	@ 0x44
 80023ba:	2b00      	cmp	r3, #0
 80023bc:	d009      	beq.n	80023d2 <DMA2_Stream5_IRQHandler+0x8a>
		{
			__DMA2_Stream5_Config__ ->ISR_Routines.Transfer_Error_ISR();
 80023be:	4b35      	ldr	r3, [pc, #212]	@ (8002494 <DMA2_Stream5_IRQHandler+0x14c>)
 80023c0:	681b      	ldr	r3, [r3, #0]
 80023c2:	6c5b      	ldr	r3, [r3, #68]	@ 0x44
 80023c4:	4798      	blx	r3
			DMA2 -> HIFCR |= DMA_HIFCR_CTEIF5;
 80023c6:	4b31      	ldr	r3, [pc, #196]	@ (800248c <DMA2_Stream5_IRQHandler+0x144>)
 80023c8:	68db      	ldr	r3, [r3, #12]
 80023ca:	4a30      	ldr	r2, [pc, #192]	@ (800248c <DMA2_Stream5_IRQHandler+0x144>)
 80023cc:	f443 7300 	orr.w	r3, r3, #512	@ 0x200
 80023d0:	60d3      	str	r3, [r2, #12]
		}
	}

	if(DMA_HISR & DMA_HISR_HTIF5)
 80023d2:	4b2f      	ldr	r3, [pc, #188]	@ (8002490 <DMA2_Stream5_IRQHandler+0x148>)
 80023d4:	681b      	ldr	r3, [r3, #0]
 80023d6:	f403 6380 	and.w	r3, r3, #1024	@ 0x400
 80023da:	2b00      	cmp	r3, #0
 80023dc:	d026      	beq.n	800242c <DMA2_Stream5_IRQHandler+0xe4>
	{
		if (__DMA2_Stream5_Config__ -> ISR_Routines.Half_Transfer_Complete_ISR)
 80023de:	4b2d      	ldr	r3, [pc, #180]	@ (8002494 <DMA2_Stream5_IRQHandler+0x14c>)
 80023e0:	681b      	ldr	r3, [r3, #0]
 80023e2:	6c9b      	ldr	r3, [r3, #72]	@ 0x48
 80023e4:	2b00      	cmp	r3, #0
 80023e6:	d021      	beq.n	800242c <DMA2_Stream5_IRQHandler+0xe4>
		{
			__DMA2_Stream5_Config__ ->ISR_Routines.Half_Transfer_Complete_ISR();
 80023e8:	4b2a      	ldr	r3, [pc, #168]	@ (8002494 <DMA2_Stream5_IRQHandler+0x14c>)
 80023ea:	681b      	ldr	r3, [r3, #0]
 80023ec:	6c9b      	ldr	r3, [r3, #72]	@ 0x48
 80023ee:	4798      	blx	r3
			DMA2 -> HIFCR |= DMA_HIFCR_CHTIF5;
 80023f0:	4b26      	ldr	r3, [pc, #152]	@ (800248c <DMA2_Stream5_IRQHandler+0x144>)
 80023f2:	68db      	ldr	r3, [r3, #12]
 80023f4:	4a25      	ldr	r2, [pc, #148]	@ (800248c <DMA2_Stream5_IRQHandler+0x144>)
 80023f6:	f443 6380 	orr.w	r3, r3, #1024	@ 0x400
 80023fa:	60d3      	str	r3, [r2, #12]

			if(__DMA2_Stream5_Config__->double_buffer_mode == DMA_Configuration.Double_Buffer_Mode.Enable )
 80023fc:	4b25      	ldr	r3, [pc, #148]	@ (8002494 <DMA2_Stream5_IRQHandler+0x14c>)
 80023fe:	681b      	ldr	r3, [r3, #0]
 8002400:	6b9b      	ldr	r3, [r3, #56]	@ 0x38
 8002402:	f44f 2280 	mov.w	r2, #262144	@ 0x40000
 8002406:	4293      	cmp	r3, r2
 8002408:	d110      	bne.n	800242c <DMA2_Stream5_IRQHandler+0xe4>
			{
				if((__DMA2_Stream5_Config__->Request.Stream->CR & DMA_SxCR_DBM_Msk) != 0)
 800240a:	4b22      	ldr	r3, [pc, #136]	@ (8002494 <DMA2_Stream5_IRQHandler+0x14c>)
 800240c:	681b      	ldr	r3, [r3, #0]
 800240e:	685b      	ldr	r3, [r3, #4]
 8002410:	681b      	ldr	r3, [r3, #0]
 8002412:	f403 2380 	and.w	r3, r3, #262144	@ 0x40000
 8002416:	2b00      	cmp	r3, #0
 8002418:	d004      	beq.n	8002424 <DMA2_Stream5_IRQHandler+0xdc>
				{
					__DMA2_Stream5_Config__ -> ISR_Routines.Double_Buffer_Mode_Target_1_ISR();
 800241a:	4b1e      	ldr	r3, [pc, #120]	@ (8002494 <DMA2_Stream5_IRQHandler+0x14c>)
 800241c:	681b      	ldr	r3, [r3, #0]
 800241e:	6d1b      	ldr	r3, [r3, #80]	@ 0x50
 8002420:	4798      	blx	r3
 8002422:	e003      	b.n	800242c <DMA2_Stream5_IRQHandler+0xe4>
				}
				else
				{
					__DMA2_Stream5_Config__ -> ISR_Routines.Double_Buffer_Mode_Target_2_ISR();
 8002424:	4b1b      	ldr	r3, [pc, #108]	@ (8002494 <DMA2_Stream5_IRQHandler+0x14c>)
 8002426:	681b      	ldr	r3, [r3, #0]
 8002428:	6d5b      	ldr	r3, [r3, #84]	@ 0x54
 800242a:	4798      	blx	r3
				}
			}
		}
	}

	if(DMA_HISR & DMA_HISR_TCIF5)
 800242c:	4b18      	ldr	r3, [pc, #96]	@ (8002490 <DMA2_Stream5_IRQHandler+0x148>)
 800242e:	681b      	ldr	r3, [r3, #0]
 8002430:	f403 6300 	and.w	r3, r3, #2048	@ 0x800
 8002434:	2b00      	cmp	r3, #0
 8002436:	d026      	beq.n	8002486 <DMA2_Stream5_IRQHandler+0x13e>
	{
		if (__DMA2_Stream5_Config__ -> ISR_Routines.Full_Transfer_Commplete_ISR)
 8002438:	4b16      	ldr	r3, [pc, #88]	@ (8002494 <DMA2_Stream5_IRQHandler+0x14c>)
 800243a:	681b      	ldr	r3, [r3, #0]
 800243c:	6cdb      	ldr	r3, [r3, #76]	@ 0x4c
 800243e:	2b00      	cmp	r3, #0
 8002440:	d021      	beq.n	8002486 <DMA2_Stream5_IRQHandler+0x13e>
		{
			__DMA2_Stream5_Config__ ->ISR_Routines.Half_Transfer_Complete_ISR();
 8002442:	4b14      	ldr	r3, [pc, #80]	@ (8002494 <DMA2_Stream5_IRQHandler+0x14c>)
 8002444:	681b      	ldr	r3, [r3, #0]
 8002446:	6c9b      	ldr	r3, [r3, #72]	@ 0x48
 8002448:	4798      	blx	r3
			DMA2 -> HIFCR |= DMA_HIFCR_CTCIF5;
 800244a:	4b10      	ldr	r3, [pc, #64]	@ (800248c <DMA2_Stream5_IRQHandler+0x144>)
 800244c:	68db      	ldr	r3, [r3, #12]
 800244e:	4a0f      	ldr	r2, [pc, #60]	@ (800248c <DMA2_Stream5_IRQHandler+0x144>)
 8002450:	f443 6300 	orr.w	r3, r3, #2048	@ 0x800
 8002454:	60d3      	str	r3, [r2, #12]

			if(__DMA2_Stream5_Config__->double_buffer_mode == DMA_Configuration.Double_Buffer_Mode.Enable )
 8002456:	4b0f      	ldr	r3, [pc, #60]	@ (8002494 <DMA2_Stream5_IRQHandler+0x14c>)
 8002458:	681b      	ldr	r3, [r3, #0]
 800245a:	6b9b      	ldr	r3, [r3, #56]	@ 0x38
 800245c:	f44f 2280 	mov.w	r2, #262144	@ 0x40000
 8002460:	4293      	cmp	r3, r2
 8002462:	d110      	bne.n	8002486 <DMA2_Stream5_IRQHandler+0x13e>
			{
				if((__DMA2_Stream5_Config__->Request.Stream->CR & DMA_SxCR_DBM_Msk) != 0)
 8002464:	4b0b      	ldr	r3, [pc, #44]	@ (8002494 <DMA2_Stream5_IRQHandler+0x14c>)
 8002466:	681b      	ldr	r3, [r3, #0]
 8002468:	685b      	ldr	r3, [r3, #4]
 800246a:	681b      	ldr	r3, [r3, #0]
 800246c:	f403 2380 	and.w	r3, r3, #262144	@ 0x40000
 8002470:	2b00      	cmp	r3, #0
 8002472:	d004      	beq.n	800247e <DMA2_Stream5_IRQHandler+0x136>
				{
					__DMA2_Stream5_Config__ -> ISR_Routines.Double_Buffer_Mode_Target_1_ISR();
 8002474:	4b07      	ldr	r3, [pc, #28]	@ (8002494 <DMA2_Stream5_IRQHandler+0x14c>)
 8002476:	681b      	ldr	r3, [r3, #0]
 8002478:	6d1b      	ldr	r3, [r3, #80]	@ 0x50
 800247a:	4798      	blx	r3
					__DMA2_Stream5_Config__ -> ISR_Routines.Double_Buffer_Mode_Target_2_ISR();
				}
			}
		}
	}
}
 800247c:	e003      	b.n	8002486 <DMA2_Stream5_IRQHandler+0x13e>
					__DMA2_Stream5_Config__ -> ISR_Routines.Double_Buffer_Mode_Target_2_ISR();
 800247e:	4b05      	ldr	r3, [pc, #20]	@ (8002494 <DMA2_Stream5_IRQHandler+0x14c>)
 8002480:	681b      	ldr	r3, [r3, #0]
 8002482:	6d5b      	ldr	r3, [r3, #84]	@ 0x54
 8002484:	4798      	blx	r3
}
 8002486:	bf00      	nop
 8002488:	bd80      	pop	{r7, pc}
 800248a:	bf00      	nop
 800248c:	40026400 	.word	0x40026400
 8002490:	20000064 	.word	0x20000064
 8002494:	20000054 	.word	0x20000054

08002498 <DMA2_Stream6_IRQHandler>:



void DMA2_Stream6_IRQHandler(void)
{
 8002498:	b580      	push	{r7, lr}
 800249a:	af00      	add	r7, sp, #0
	DMA_HISR = DMA2 -> HISR;
 800249c:	4b4f      	ldr	r3, [pc, #316]	@ (80025dc <DMA2_Stream6_IRQHandler+0x144>)
 800249e:	685b      	ldr	r3, [r3, #4]
 80024a0:	4a4f      	ldr	r2, [pc, #316]	@ (80025e0 <DMA2_Stream6_IRQHandler+0x148>)
 80024a2:	6013      	str	r3, [r2, #0]

	if(DMA_HISR & DMA_HISR_FEIF6)
 80024a4:	4b4e      	ldr	r3, [pc, #312]	@ (80025e0 <DMA2_Stream6_IRQHandler+0x148>)
 80024a6:	681b      	ldr	r3, [r3, #0]
 80024a8:	f403 3380 	and.w	r3, r3, #65536	@ 0x10000
 80024ac:	2b00      	cmp	r3, #0
 80024ae:	d00e      	beq.n	80024ce <DMA2_Stream6_IRQHandler+0x36>
	{
		if (__DMA2_Stream6_Config__ -> ISR_Routines.FIFO_Error_ISR)
 80024b0:	4b4c      	ldr	r3, [pc, #304]	@ (80025e4 <DMA2_Stream6_IRQHandler+0x14c>)
 80024b2:	681b      	ldr	r3, [r3, #0]
 80024b4:	6bdb      	ldr	r3, [r3, #60]	@ 0x3c
 80024b6:	2b00      	cmp	r3, #0
 80024b8:	d009      	beq.n	80024ce <DMA2_Stream6_IRQHandler+0x36>
		{
			__DMA2_Stream6_Config__ ->ISR_Routines.FIFO_Error_ISR();
 80024ba:	4b4a      	ldr	r3, [pc, #296]	@ (80025e4 <DMA2_Stream6_IRQHandler+0x14c>)
 80024bc:	681b      	ldr	r3, [r3, #0]
 80024be:	6bdb      	ldr	r3, [r3, #60]	@ 0x3c
 80024c0:	4798      	blx	r3
			DMA2 -> HIFCR |= DMA_HIFCR_CFEIF6;
 80024c2:	4b46      	ldr	r3, [pc, #280]	@ (80025dc <DMA2_Stream6_IRQHandler+0x144>)
 80024c4:	68db      	ldr	r3, [r3, #12]
 80024c6:	4a45      	ldr	r2, [pc, #276]	@ (80025dc <DMA2_Stream6_IRQHandler+0x144>)
 80024c8:	f443 3380 	orr.w	r3, r3, #65536	@ 0x10000
 80024cc:	60d3      	str	r3, [r2, #12]
		}
	}

	if(DMA_HISR & DMA_HISR_DMEIF6)
 80024ce:	4b44      	ldr	r3, [pc, #272]	@ (80025e0 <DMA2_Stream6_IRQHandler+0x148>)
 80024d0:	681b      	ldr	r3, [r3, #0]
 80024d2:	f403 2380 	and.w	r3, r3, #262144	@ 0x40000
 80024d6:	2b00      	cmp	r3, #0
 80024d8:	d00e      	beq.n	80024f8 <DMA2_Stream6_IRQHandler+0x60>
	{
		if (__DMA2_Stream6_Config__ -> ISR_Routines.Direct_Mode_Error_ISR)
 80024da:	4b42      	ldr	r3, [pc, #264]	@ (80025e4 <DMA2_Stream6_IRQHandler+0x14c>)
 80024dc:	681b      	ldr	r3, [r3, #0]
 80024de:	6c1b      	ldr	r3, [r3, #64]	@ 0x40
 80024e0:	2b00      	cmp	r3, #0
 80024e2:	d009      	beq.n	80024f8 <DMA2_Stream6_IRQHandler+0x60>
		{
			__DMA2_Stream6_Config__ ->ISR_Routines.Direct_Mode_Error_ISR();
 80024e4:	4b3f      	ldr	r3, [pc, #252]	@ (80025e4 <DMA2_Stream6_IRQHandler+0x14c>)
 80024e6:	681b      	ldr	r3, [r3, #0]
 80024e8:	6c1b      	ldr	r3, [r3, #64]	@ 0x40
 80024ea:	4798      	blx	r3
			DMA2 -> HIFCR |= DMA_HIFCR_CDMEIF6;
 80024ec:	4b3b      	ldr	r3, [pc, #236]	@ (80025dc <DMA2_Stream6_IRQHandler+0x144>)
 80024ee:	68db      	ldr	r3, [r3, #12]
 80024f0:	4a3a      	ldr	r2, [pc, #232]	@ (80025dc <DMA2_Stream6_IRQHandler+0x144>)
 80024f2:	f443 2380 	orr.w	r3, r3, #262144	@ 0x40000
 80024f6:	60d3      	str	r3, [r2, #12]
		}
	}

	if(DMA_HISR & DMA_HISR_TEIF6)
 80024f8:	4b39      	ldr	r3, [pc, #228]	@ (80025e0 <DMA2_Stream6_IRQHandler+0x148>)
 80024fa:	681b      	ldr	r3, [r3, #0]
 80024fc:	f403 2300 	and.w	r3, r3, #524288	@ 0x80000
 8002500:	2b00      	cmp	r3, #0
 8002502:	d00e      	beq.n	8002522 <DMA2_Stream6_IRQHandler+0x8a>
	{
		if (__DMA2_Stream6_Config__ -> ISR_Routines.Transfer_Error_ISR)
 8002504:	4b37      	ldr	r3, [pc, #220]	@ (80025e4 <DMA2_Stream6_IRQHandler+0x14c>)
 8002506:	681b      	ldr	r3, [r3, #0]
 8002508:	6c5b      	ldr	r3, [r3, #68]	@ 0x44
 800250a:	2b00      	cmp	r3, #0
 800250c:	d009      	beq.n	8002522 <DMA2_Stream6_IRQHandler+0x8a>
		{
			__DMA2_Stream6_Config__ ->ISR_Routines.Transfer_Error_ISR();
 800250e:	4b35      	ldr	r3, [pc, #212]	@ (80025e4 <DMA2_Stream6_IRQHandler+0x14c>)
 8002510:	681b      	ldr	r3, [r3, #0]
 8002512:	6c5b      	ldr	r3, [r3, #68]	@ 0x44
 8002514:	4798      	blx	r3
			DMA2 -> HIFCR |= DMA_HIFCR_CTEIF6;
 8002516:	4b31      	ldr	r3, [pc, #196]	@ (80025dc <DMA2_Stream6_IRQHandler+0x144>)
 8002518:	68db      	ldr	r3, [r3, #12]
 800251a:	4a30      	ldr	r2, [pc, #192]	@ (80025dc <DMA2_Stream6_IRQHandler+0x144>)
 800251c:	f443 2300 	orr.w	r3, r3, #524288	@ 0x80000
 8002520:	60d3      	str	r3, [r2, #12]
		}
	}

	if(DMA_HISR & DMA_HISR_HTIF6)
 8002522:	4b2f      	ldr	r3, [pc, #188]	@ (80025e0 <DMA2_Stream6_IRQHandler+0x148>)
 8002524:	681b      	ldr	r3, [r3, #0]
 8002526:	f403 1380 	and.w	r3, r3, #1048576	@ 0x100000
 800252a:	2b00      	cmp	r3, #0
 800252c:	d026      	beq.n	800257c <DMA2_Stream6_IRQHandler+0xe4>
	{
		if (__DMA2_Stream6_Config__ -> ISR_Routines.Half_Transfer_Complete_ISR)
 800252e:	4b2d      	ldr	r3, [pc, #180]	@ (80025e4 <DMA2_Stream6_IRQHandler+0x14c>)
 8002530:	681b      	ldr	r3, [r3, #0]
 8002532:	6c9b      	ldr	r3, [r3, #72]	@ 0x48
 8002534:	2b00      	cmp	r3, #0
 8002536:	d021      	beq.n	800257c <DMA2_Stream6_IRQHandler+0xe4>
		{
			__DMA2_Stream6_Config__ ->ISR_Routines.Half_Transfer_Complete_ISR();
 8002538:	4b2a      	ldr	r3, [pc, #168]	@ (80025e4 <DMA2_Stream6_IRQHandler+0x14c>)
 800253a:	681b      	ldr	r3, [r3, #0]
 800253c:	6c9b      	ldr	r3, [r3, #72]	@ 0x48
 800253e:	4798      	blx	r3
			DMA2 -> HIFCR |= DMA_HIFCR_CHTIF6;
 8002540:	4b26      	ldr	r3, [pc, #152]	@ (80025dc <DMA2_Stream6_IRQHandler+0x144>)
 8002542:	68db      	ldr	r3, [r3, #12]
 8002544:	4a25      	ldr	r2, [pc, #148]	@ (80025dc <DMA2_Stream6_IRQHandler+0x144>)
 8002546:	f443 1380 	orr.w	r3, r3, #1048576	@ 0x100000
 800254a:	60d3      	str	r3, [r2, #12]

			if(__DMA2_Stream6_Config__->double_buffer_mode == DMA_Configuration.Double_Buffer_Mode.Enable )
 800254c:	4b25      	ldr	r3, [pc, #148]	@ (80025e4 <DMA2_Stream6_IRQHandler+0x14c>)
 800254e:	681b      	ldr	r3, [r3, #0]
 8002550:	6b9b      	ldr	r3, [r3, #56]	@ 0x38
 8002552:	f44f 2280 	mov.w	r2, #262144	@ 0x40000
 8002556:	4293      	cmp	r3, r2
 8002558:	d110      	bne.n	800257c <DMA2_Stream6_IRQHandler+0xe4>
			{
				if((__DMA2_Stream6_Config__->Request.Stream->CR & DMA_SxCR_DBM_Msk) != 0)
 800255a:	4b22      	ldr	r3, [pc, #136]	@ (80025e4 <DMA2_Stream6_IRQHandler+0x14c>)
 800255c:	681b      	ldr	r3, [r3, #0]
 800255e:	685b      	ldr	r3, [r3, #4]
 8002560:	681b      	ldr	r3, [r3, #0]
 8002562:	f403 2380 	and.w	r3, r3, #262144	@ 0x40000
 8002566:	2b00      	cmp	r3, #0
 8002568:	d004      	beq.n	8002574 <DMA2_Stream6_IRQHandler+0xdc>
				{
					__DMA2_Stream6_Config__ -> ISR_Routines.Double_Buffer_Mode_Target_1_ISR();
 800256a:	4b1e      	ldr	r3, [pc, #120]	@ (80025e4 <DMA2_Stream6_IRQHandler+0x14c>)
 800256c:	681b      	ldr	r3, [r3, #0]
 800256e:	6d1b      	ldr	r3, [r3, #80]	@ 0x50
 8002570:	4798      	blx	r3
 8002572:	e003      	b.n	800257c <DMA2_Stream6_IRQHandler+0xe4>
				}
				else
				{
					__DMA2_Stream6_Config__ -> ISR_Routines.Double_Buffer_Mode_Target_2_ISR();
 8002574:	4b1b      	ldr	r3, [pc, #108]	@ (80025e4 <DMA2_Stream6_IRQHandler+0x14c>)
 8002576:	681b      	ldr	r3, [r3, #0]
 8002578:	6d5b      	ldr	r3, [r3, #84]	@ 0x54
 800257a:	4798      	blx	r3
				}
			}
		}
	}

	if(DMA_HISR & DMA_HISR_TCIF6)
 800257c:	4b18      	ldr	r3, [pc, #96]	@ (80025e0 <DMA2_Stream6_IRQHandler+0x148>)
 800257e:	681b      	ldr	r3, [r3, #0]
 8002580:	f403 1300 	and.w	r3, r3, #2097152	@ 0x200000
 8002584:	2b00      	cmp	r3, #0
 8002586:	d026      	beq.n	80025d6 <DMA2_Stream6_IRQHandler+0x13e>
	{
		if (__DMA2_Stream6_Config__ -> ISR_Routines.Full_Transfer_Commplete_ISR)
 8002588:	4b16      	ldr	r3, [pc, #88]	@ (80025e4 <DMA2_Stream6_IRQHandler+0x14c>)
 800258a:	681b      	ldr	r3, [r3, #0]
 800258c:	6cdb      	ldr	r3, [r3, #76]	@ 0x4c
 800258e:	2b00      	cmp	r3, #0
 8002590:	d021      	beq.n	80025d6 <DMA2_Stream6_IRQHandler+0x13e>
		{
			__DMA2_Stream6_Config__ ->ISR_Routines.Half_Transfer_Complete_ISR();
 8002592:	4b14      	ldr	r3, [pc, #80]	@ (80025e4 <DMA2_Stream6_IRQHandler+0x14c>)
 8002594:	681b      	ldr	r3, [r3, #0]
 8002596:	6c9b      	ldr	r3, [r3, #72]	@ 0x48
 8002598:	4798      	blx	r3
			DMA2 -> HIFCR |= DMA_HIFCR_CTCIF6;
 800259a:	4b10      	ldr	r3, [pc, #64]	@ (80025dc <DMA2_Stream6_IRQHandler+0x144>)
 800259c:	68db      	ldr	r3, [r3, #12]
 800259e:	4a0f      	ldr	r2, [pc, #60]	@ (80025dc <DMA2_Stream6_IRQHandler+0x144>)
 80025a0:	f443 1300 	orr.w	r3, r3, #2097152	@ 0x200000
 80025a4:	60d3      	str	r3, [r2, #12]

			if(__DMA2_Stream6_Config__->double_buffer_mode == DMA_Configuration.Double_Buffer_Mode.Enable )
 80025a6:	4b0f      	ldr	r3, [pc, #60]	@ (80025e4 <DMA2_Stream6_IRQHandler+0x14c>)
 80025a8:	681b      	ldr	r3, [r3, #0]
 80025aa:	6b9b      	ldr	r3, [r3, #56]	@ 0x38
 80025ac:	f44f 2280 	mov.w	r2, #262144	@ 0x40000
 80025b0:	4293      	cmp	r3, r2
 80025b2:	d110      	bne.n	80025d6 <DMA2_Stream6_IRQHandler+0x13e>
			{
				if((__DMA2_Stream6_Config__->Request.Stream->CR & DMA_SxCR_DBM_Msk) != 0)
 80025b4:	4b0b      	ldr	r3, [pc, #44]	@ (80025e4 <DMA2_Stream6_IRQHandler+0x14c>)
 80025b6:	681b      	ldr	r3, [r3, #0]
 80025b8:	685b      	ldr	r3, [r3, #4]
 80025ba:	681b      	ldr	r3, [r3, #0]
 80025bc:	f403 2380 	and.w	r3, r3, #262144	@ 0x40000
 80025c0:	2b00      	cmp	r3, #0
 80025c2:	d004      	beq.n	80025ce <DMA2_Stream6_IRQHandler+0x136>
				{
					__DMA2_Stream6_Config__ -> ISR_Routines.Double_Buffer_Mode_Target_1_ISR();
 80025c4:	4b07      	ldr	r3, [pc, #28]	@ (80025e4 <DMA2_Stream6_IRQHandler+0x14c>)
 80025c6:	681b      	ldr	r3, [r3, #0]
 80025c8:	6d1b      	ldr	r3, [r3, #80]	@ 0x50
 80025ca:	4798      	blx	r3
					__DMA2_Stream6_Config__ -> ISR_Routines.Double_Buffer_Mode_Target_2_ISR();
				}
			}
		}
	}
}
 80025cc:	e003      	b.n	80025d6 <DMA2_Stream6_IRQHandler+0x13e>
					__DMA2_Stream6_Config__ -> ISR_Routines.Double_Buffer_Mode_Target_2_ISR();
 80025ce:	4b05      	ldr	r3, [pc, #20]	@ (80025e4 <DMA2_Stream6_IRQHandler+0x14c>)
 80025d0:	681b      	ldr	r3, [r3, #0]
 80025d2:	6d5b      	ldr	r3, [r3, #84]	@ 0x54
 80025d4:	4798      	blx	r3
}
 80025d6:	bf00      	nop
 80025d8:	bd80      	pop	{r7, pc}
 80025da:	bf00      	nop
 80025dc:	40026400 	.word	0x40026400
 80025e0:	20000064 	.word	0x20000064
 80025e4:	20000058 	.word	0x20000058

080025e8 <DMA2_Stream7_IRQHandler>:


void DMA2_Stream7_IRQHandler(void)
{
 80025e8:	b580      	push	{r7, lr}
 80025ea:	af00      	add	r7, sp, #0
	DMA_HISR = DMA2 -> HISR;
 80025ec:	4b4f      	ldr	r3, [pc, #316]	@ (800272c <DMA2_Stream7_IRQHandler+0x144>)
 80025ee:	685b      	ldr	r3, [r3, #4]
 80025f0:	4a4f      	ldr	r2, [pc, #316]	@ (8002730 <DMA2_Stream7_IRQHandler+0x148>)
 80025f2:	6013      	str	r3, [r2, #0]

	if(DMA_HISR & DMA_HISR_FEIF7)
 80025f4:	4b4e      	ldr	r3, [pc, #312]	@ (8002730 <DMA2_Stream7_IRQHandler+0x148>)
 80025f6:	681b      	ldr	r3, [r3, #0]
 80025f8:	f403 0380 	and.w	r3, r3, #4194304	@ 0x400000
 80025fc:	2b00      	cmp	r3, #0
 80025fe:	d00e      	beq.n	800261e <DMA2_Stream7_IRQHandler+0x36>
	{
		if (__DMA2_Stream7_Config__ -> ISR_Routines.FIFO_Error_ISR)
 8002600:	4b4c      	ldr	r3, [pc, #304]	@ (8002734 <DMA2_Stream7_IRQHandler+0x14c>)
 8002602:	681b      	ldr	r3, [r3, #0]
 8002604:	6bdb      	ldr	r3, [r3, #60]	@ 0x3c
 8002606:	2b00      	cmp	r3, #0
 8002608:	d009      	beq.n	800261e <DMA2_Stream7_IRQHandler+0x36>
		{
			__DMA2_Stream7_Config__ ->ISR_Routines.FIFO_Error_ISR();
 800260a:	4b4a      	ldr	r3, [pc, #296]	@ (8002734 <DMA2_Stream7_IRQHandler+0x14c>)
 800260c:	681b      	ldr	r3, [r3, #0]
 800260e:	6bdb      	ldr	r3, [r3, #60]	@ 0x3c
 8002610:	4798      	blx	r3
			DMA2 -> HIFCR |= DMA_HIFCR_CFEIF7;
 8002612:	4b46      	ldr	r3, [pc, #280]	@ (800272c <DMA2_Stream7_IRQHandler+0x144>)
 8002614:	68db      	ldr	r3, [r3, #12]
 8002616:	4a45      	ldr	r2, [pc, #276]	@ (800272c <DMA2_Stream7_IRQHandler+0x144>)
 8002618:	f443 0380 	orr.w	r3, r3, #4194304	@ 0x400000
 800261c:	60d3      	str	r3, [r2, #12]
		}
	}

	if(DMA_HISR & DMA_HISR_DMEIF7)
 800261e:	4b44      	ldr	r3, [pc, #272]	@ (8002730 <DMA2_Stream7_IRQHandler+0x148>)
 8002620:	681b      	ldr	r3, [r3, #0]
 8002622:	f003 7380 	and.w	r3, r3, #16777216	@ 0x1000000
 8002626:	2b00      	cmp	r3, #0
 8002628:	d00e      	beq.n	8002648 <DMA2_Stream7_IRQHandler+0x60>
	{
		if (__DMA2_Stream7_Config__ -> ISR_Routines.Direct_Mode_Error_ISR)
 800262a:	4b42      	ldr	r3, [pc, #264]	@ (8002734 <DMA2_Stream7_IRQHandler+0x14c>)
 800262c:	681b      	ldr	r3, [r3, #0]
 800262e:	6c1b      	ldr	r3, [r3, #64]	@ 0x40
 8002630:	2b00      	cmp	r3, #0
 8002632:	d009      	beq.n	8002648 <DMA2_Stream7_IRQHandler+0x60>
		{
			__DMA2_Stream7_Config__ ->ISR_Routines.Direct_Mode_Error_ISR();
 8002634:	4b3f      	ldr	r3, [pc, #252]	@ (8002734 <DMA2_Stream7_IRQHandler+0x14c>)
 8002636:	681b      	ldr	r3, [r3, #0]
 8002638:	6c1b      	ldr	r3, [r3, #64]	@ 0x40
 800263a:	4798      	blx	r3
			DMA2 -> HIFCR |= DMA_HIFCR_CDMEIF7;
 800263c:	4b3b      	ldr	r3, [pc, #236]	@ (800272c <DMA2_Stream7_IRQHandler+0x144>)
 800263e:	68db      	ldr	r3, [r3, #12]
 8002640:	4a3a      	ldr	r2, [pc, #232]	@ (800272c <DMA2_Stream7_IRQHandler+0x144>)
 8002642:	f043 7380 	orr.w	r3, r3, #16777216	@ 0x1000000
 8002646:	60d3      	str	r3, [r2, #12]
		}
	}

	if(DMA_HISR & DMA_HISR_TEIF7)
 8002648:	4b39      	ldr	r3, [pc, #228]	@ (8002730 <DMA2_Stream7_IRQHandler+0x148>)
 800264a:	681b      	ldr	r3, [r3, #0]
 800264c:	f003 7300 	and.w	r3, r3, #33554432	@ 0x2000000
 8002650:	2b00      	cmp	r3, #0
 8002652:	d00e      	beq.n	8002672 <DMA2_Stream7_IRQHandler+0x8a>
	{
		if (__DMA2_Stream7_Config__ -> ISR_Routines.Transfer_Error_ISR)
 8002654:	4b37      	ldr	r3, [pc, #220]	@ (8002734 <DMA2_Stream7_IRQHandler+0x14c>)
 8002656:	681b      	ldr	r3, [r3, #0]
 8002658:	6c5b      	ldr	r3, [r3, #68]	@ 0x44
 800265a:	2b00      	cmp	r3, #0
 800265c:	d009      	beq.n	8002672 <DMA2_Stream7_IRQHandler+0x8a>
		{
			__DMA2_Stream7_Config__ ->ISR_Routines.Transfer_Error_ISR();
 800265e:	4b35      	ldr	r3, [pc, #212]	@ (8002734 <DMA2_Stream7_IRQHandler+0x14c>)
 8002660:	681b      	ldr	r3, [r3, #0]
 8002662:	6c5b      	ldr	r3, [r3, #68]	@ 0x44
 8002664:	4798      	blx	r3
			DMA2 -> HIFCR |= DMA_HIFCR_CTEIF7;
 8002666:	4b31      	ldr	r3, [pc, #196]	@ (800272c <DMA2_Stream7_IRQHandler+0x144>)
 8002668:	68db      	ldr	r3, [r3, #12]
 800266a:	4a30      	ldr	r2, [pc, #192]	@ (800272c <DMA2_Stream7_IRQHandler+0x144>)
 800266c:	f043 7300 	orr.w	r3, r3, #33554432	@ 0x2000000
 8002670:	60d3      	str	r3, [r2, #12]
		}
	}

	if(DMA_HISR & DMA_HISR_HTIF7)
 8002672:	4b2f      	ldr	r3, [pc, #188]	@ (8002730 <DMA2_Stream7_IRQHandler+0x148>)
 8002674:	681b      	ldr	r3, [r3, #0]
 8002676:	f003 6380 	and.w	r3, r3, #67108864	@ 0x4000000
 800267a:	2b00      	cmp	r3, #0
 800267c:	d026      	beq.n	80026cc <DMA2_Stream7_IRQHandler+0xe4>
	{
		if (__DMA2_Stream7_Config__ -> ISR_Routines.Half_Transfer_Complete_ISR)
 800267e:	4b2d      	ldr	r3, [pc, #180]	@ (8002734 <DMA2_Stream7_IRQHandler+0x14c>)
 8002680:	681b      	ldr	r3, [r3, #0]
 8002682:	6c9b      	ldr	r3, [r3, #72]	@ 0x48
 8002684:	2b00      	cmp	r3, #0
 8002686:	d021      	beq.n	80026cc <DMA2_Stream7_IRQHandler+0xe4>
		{
			__DMA2_Stream7_Config__ ->ISR_Routines.Half_Transfer_Complete_ISR();
 8002688:	4b2a      	ldr	r3, [pc, #168]	@ (8002734 <DMA2_Stream7_IRQHandler+0x14c>)
 800268a:	681b      	ldr	r3, [r3, #0]
 800268c:	6c9b      	ldr	r3, [r3, #72]	@ 0x48
 800268e:	4798      	blx	r3
			DMA2 -> HIFCR |= DMA_HIFCR_CHTIF7;
 8002690:	4b26      	ldr	r3, [pc, #152]	@ (800272c <DMA2_Stream7_IRQHandler+0x144>)
 8002692:	68db      	ldr	r3, [r3, #12]
 8002694:	4a25      	ldr	r2, [pc, #148]	@ (800272c <DMA2_Stream7_IRQHandler+0x144>)
 8002696:	f043 6380 	orr.w	r3, r3, #67108864	@ 0x4000000
 800269a:	60d3      	str	r3, [r2, #12]

			if(__DMA2_Stream7_Config__->double_buffer_mode == DMA_Configuration.Double_Buffer_Mode.Enable )
 800269c:	4b25      	ldr	r3, [pc, #148]	@ (8002734 <DMA2_Stream7_IRQHandler+0x14c>)
 800269e:	681b      	ldr	r3, [r3, #0]
 80026a0:	6b9b      	ldr	r3, [r3, #56]	@ 0x38
 80026a2:	f44f 2280 	mov.w	r2, #262144	@ 0x40000
 80026a6:	4293      	cmp	r3, r2
 80026a8:	d110      	bne.n	80026cc <DMA2_Stream7_IRQHandler+0xe4>
			{
				if((__DMA2_Stream7_Config__->Request.Stream->CR & DMA_SxCR_DBM_Msk) != 0)
 80026aa:	4b22      	ldr	r3, [pc, #136]	@ (8002734 <DMA2_Stream7_IRQHandler+0x14c>)
 80026ac:	681b      	ldr	r3, [r3, #0]
 80026ae:	685b      	ldr	r3, [r3, #4]
 80026b0:	681b      	ldr	r3, [r3, #0]
 80026b2:	f403 2380 	and.w	r3, r3, #262144	@ 0x40000
 80026b6:	2b00      	cmp	r3, #0
 80026b8:	d004      	beq.n	80026c4 <DMA2_Stream7_IRQHandler+0xdc>
				{
					__DMA2_Stream7_Config__ -> ISR_Routines.Double_Buffer_Mode_Target_1_ISR();
 80026ba:	4b1e      	ldr	r3, [pc, #120]	@ (8002734 <DMA2_Stream7_IRQHandler+0x14c>)
 80026bc:	681b      	ldr	r3, [r3, #0]
 80026be:	6d1b      	ldr	r3, [r3, #80]	@ 0x50
 80026c0:	4798      	blx	r3
 80026c2:	e003      	b.n	80026cc <DMA2_Stream7_IRQHandler+0xe4>
				}
				else
				{
					__DMA2_Stream7_Config__ -> ISR_Routines.Double_Buffer_Mode_Target_2_ISR();
 80026c4:	4b1b      	ldr	r3, [pc, #108]	@ (8002734 <DMA2_Stream7_IRQHandler+0x14c>)
 80026c6:	681b      	ldr	r3, [r3, #0]
 80026c8:	6d5b      	ldr	r3, [r3, #84]	@ 0x54
 80026ca:	4798      	blx	r3
				}
			}
		}
	}

	if(DMA_HISR & DMA_HISR_TCIF7)
 80026cc:	4b18      	ldr	r3, [pc, #96]	@ (8002730 <DMA2_Stream7_IRQHandler+0x148>)
 80026ce:	681b      	ldr	r3, [r3, #0]
 80026d0:	f003 6300 	and.w	r3, r3, #134217728	@ 0x8000000
 80026d4:	2b00      	cmp	r3, #0
 80026d6:	d026      	beq.n	8002726 <DMA2_Stream7_IRQHandler+0x13e>
	{
		if (__DMA2_Stream7_Config__ -> ISR_Routines.Full_Transfer_Commplete_ISR)
 80026d8:	4b16      	ldr	r3, [pc, #88]	@ (8002734 <DMA2_Stream7_IRQHandler+0x14c>)
 80026da:	681b      	ldr	r3, [r3, #0]
 80026dc:	6cdb      	ldr	r3, [r3, #76]	@ 0x4c
 80026de:	2b00      	cmp	r3, #0
 80026e0:	d021      	beq.n	8002726 <DMA2_Stream7_IRQHandler+0x13e>
		{
			__DMA2_Stream7_Config__ ->ISR_Routines.Half_Transfer_Complete_ISR();
 80026e2:	4b14      	ldr	r3, [pc, #80]	@ (8002734 <DMA2_Stream7_IRQHandler+0x14c>)
 80026e4:	681b      	ldr	r3, [r3, #0]
 80026e6:	6c9b      	ldr	r3, [r3, #72]	@ 0x48
 80026e8:	4798      	blx	r3
			DMA2 -> HIFCR |= DMA_HIFCR_CTCIF7;
 80026ea:	4b10      	ldr	r3, [pc, #64]	@ (800272c <DMA2_Stream7_IRQHandler+0x144>)
 80026ec:	68db      	ldr	r3, [r3, #12]
 80026ee:	4a0f      	ldr	r2, [pc, #60]	@ (800272c <DMA2_Stream7_IRQHandler+0x144>)
 80026f0:	f043 6300 	orr.w	r3, r3, #134217728	@ 0x8000000
 80026f4:	60d3      	str	r3, [r2, #12]

			if(__DMA2_Stream7_Config__->double_buffer_mode == DMA_Configuration.Double_Buffer_Mode.Enable )
 80026f6:	4b0f      	ldr	r3, [pc, #60]	@ (8002734 <DMA2_Stream7_IRQHandler+0x14c>)
 80026f8:	681b      	ldr	r3, [r3, #0]
 80026fa:	6b9b      	ldr	r3, [r3, #56]	@ 0x38
 80026fc:	f44f 2280 	mov.w	r2, #262144	@ 0x40000
 8002700:	4293      	cmp	r3, r2
 8002702:	d110      	bne.n	8002726 <DMA2_Stream7_IRQHandler+0x13e>
			{
				if((__DMA2_Stream7_Config__->Request.Stream->CR & DMA_SxCR_DBM_Msk) != 0)
 8002704:	4b0b      	ldr	r3, [pc, #44]	@ (8002734 <DMA2_Stream7_IRQHandler+0x14c>)
 8002706:	681b      	ldr	r3, [r3, #0]
 8002708:	685b      	ldr	r3, [r3, #4]
 800270a:	681b      	ldr	r3, [r3, #0]
 800270c:	f403 2380 	and.w	r3, r3, #262144	@ 0x40000
 8002710:	2b00      	cmp	r3, #0
 8002712:	d004      	beq.n	800271e <DMA2_Stream7_IRQHandler+0x136>
				{
					__DMA2_Stream7_Config__ -> ISR_Routines.Double_Buffer_Mode_Target_1_ISR();
 8002714:	4b07      	ldr	r3, [pc, #28]	@ (8002734 <DMA2_Stream7_IRQHandler+0x14c>)
 8002716:	681b      	ldr	r3, [r3, #0]
 8002718:	6d1b      	ldr	r3, [r3, #80]	@ 0x50
 800271a:	4798      	blx	r3
					__DMA2_Stream7_Config__ -> ISR_Routines.Double_Buffer_Mode_Target_2_ISR();
				}
			}
		}
	}
}
 800271c:	e003      	b.n	8002726 <DMA2_Stream7_IRQHandler+0x13e>
					__DMA2_Stream7_Config__ -> ISR_Routines.Double_Buffer_Mode_Target_2_ISR();
 800271e:	4b05      	ldr	r3, [pc, #20]	@ (8002734 <DMA2_Stream7_IRQHandler+0x14c>)
 8002720:	681b      	ldr	r3, [r3, #0]
 8002722:	6d5b      	ldr	r3, [r3, #84]	@ 0x54
 8002724:	4798      	blx	r3
}
 8002726:	bf00      	nop
 8002728:	bd80      	pop	{r7, pc}
 800272a:	bf00      	nop
 800272c:	40026400 	.word	0x40026400
 8002730:	20000064 	.word	0x20000064
 8002734:	2000005c 	.word	0x2000005c

08002738 <DMA_Clock_Enable>:
 * the RCC AHB1 peripheral clock enable register.
 *
 * @param[in] config Pointer to the `DMA_Config` structure that contains the DMA controller configuration.
 */
void DMA_Clock_Enable(DMA_Config *config)
{
 8002738:	b480      	push	{r7}
 800273a:	b083      	sub	sp, #12
 800273c:	af00      	add	r7, sp, #0
 800273e:	6078      	str	r0, [r7, #4]
	if(config -> Request.Controller == DMA1){
 8002740:	687b      	ldr	r3, [r7, #4]
 8002742:	681b      	ldr	r3, [r3, #0]
 8002744:	4a0c      	ldr	r2, [pc, #48]	@ (8002778 <DMA_Clock_Enable+0x40>)
 8002746:	4293      	cmp	r3, r2
 8002748:	d105      	bne.n	8002756 <DMA_Clock_Enable+0x1e>
		RCC -> AHB1ENR |= RCC_AHB1ENR_DMA1EN;
 800274a:	4b0c      	ldr	r3, [pc, #48]	@ (800277c <DMA_Clock_Enable+0x44>)
 800274c:	6b1b      	ldr	r3, [r3, #48]	@ 0x30
 800274e:	4a0b      	ldr	r2, [pc, #44]	@ (800277c <DMA_Clock_Enable+0x44>)
 8002750:	f443 1300 	orr.w	r3, r3, #2097152	@ 0x200000
 8002754:	6313      	str	r3, [r2, #48]	@ 0x30
	}
	if(config -> Request.Controller == DMA2)
 8002756:	687b      	ldr	r3, [r7, #4]
 8002758:	681b      	ldr	r3, [r3, #0]
 800275a:	4a09      	ldr	r2, [pc, #36]	@ (8002780 <DMA_Clock_Enable+0x48>)
 800275c:	4293      	cmp	r3, r2
 800275e:	d105      	bne.n	800276c <DMA_Clock_Enable+0x34>
	{
		RCC -> AHB1ENR |= RCC_AHB1ENR_DMA2EN;
 8002760:	4b06      	ldr	r3, [pc, #24]	@ (800277c <DMA_Clock_Enable+0x44>)
 8002762:	6b1b      	ldr	r3, [r3, #48]	@ 0x30
 8002764:	4a05      	ldr	r2, [pc, #20]	@ (800277c <DMA_Clock_Enable+0x44>)
 8002766:	f443 0380 	orr.w	r3, r3, #4194304	@ 0x400000
 800276a:	6313      	str	r3, [r2, #48]	@ 0x30
	}
}
 800276c:	bf00      	nop
 800276e:	370c      	adds	r7, #12
 8002770:	46bd      	mov	sp, r7
 8002772:	f85d 7b04 	ldr.w	r7, [sp], #4
 8002776:	4770      	bx	lr
 8002778:	40026000 	.word	0x40026000
 800277c:	40023800 	.word	0x40023800
 8002780:	40026400 	.word	0x40026400

08002784 <DMA_Init>:
 * @param[in] config Pointer to the `DMA_Config` structure containing the configuration parameters.
 *
 * @return int8_t Returns 1 on successful initialization, or -1 if an error occurs.
 */
int8_t DMA_Init(DMA_Config *config)
{
 8002784:	b580      	push	{r7, lr}
 8002786:	b082      	sub	sp, #8
 8002788:	af00      	add	r7, sp, #0
 800278a:	6078      	str	r0, [r7, #4]
	//	DMA_Clock_Disable(config);
	DMA_Clock_Enable(config);  // Enable the clock for the specified DMA controller
 800278c:	6878      	ldr	r0, [r7, #4]
 800278e:	f7ff ffd3 	bl	8002738 <DMA_Clock_Enable>

	if (config->Request.Stream->CR & DMA_SxCR_EN)
 8002792:	687b      	ldr	r3, [r7, #4]
 8002794:	685b      	ldr	r3, [r3, #4]
 8002796:	681b      	ldr	r3, [r3, #0]
 8002798:	f003 0301 	and.w	r3, r3, #1
 800279c:	2b00      	cmp	r3, #0
 800279e:	d00f      	beq.n	80027c0 <DMA_Init+0x3c>
	{
		config->Request.Stream->CR &= ~DMA_SxCR_EN;
 80027a0:	687b      	ldr	r3, [r7, #4]
 80027a2:	685b      	ldr	r3, [r3, #4]
 80027a4:	681a      	ldr	r2, [r3, #0]
 80027a6:	687b      	ldr	r3, [r7, #4]
 80027a8:	685b      	ldr	r3, [r3, #4]
 80027aa:	f022 0201 	bic.w	r2, r2, #1
 80027ae:	601a      	str	r2, [r3, #0]
		while (config->Request.Stream->CR & DMA_SxCR_EN);  // Wait until disabled
 80027b0:	bf00      	nop
 80027b2:	687b      	ldr	r3, [r7, #4]
 80027b4:	685b      	ldr	r3, [r3, #4]
 80027b6:	681b      	ldr	r3, [r3, #0]
 80027b8:	f003 0301 	and.w	r3, r3, #1
 80027bc:	2b00      	cmp	r3, #0
 80027be:	d1f8      	bne.n	80027b2 <DMA_Init+0x2e>
	}


	config->Request.Stream->CR |= config->Request.channel << DMA_SxCR_CHSEL_Pos;  // Set the DMA channel
 80027c0:	687b      	ldr	r3, [r7, #4]
 80027c2:	685b      	ldr	r3, [r3, #4]
 80027c4:	6819      	ldr	r1, [r3, #0]
 80027c6:	687b      	ldr	r3, [r7, #4]
 80027c8:	7a1b      	ldrb	r3, [r3, #8]
 80027ca:	065a      	lsls	r2, r3, #25
 80027cc:	687b      	ldr	r3, [r7, #4]
 80027ce:	685b      	ldr	r3, [r3, #4]
 80027d0:	430a      	orrs	r2, r1
 80027d2:	601a      	str	r2, [r3, #0]
	config->Request.Stream->CR |= config->circular_mode;  // Configure circular mode
 80027d4:	687b      	ldr	r3, [r7, #4]
 80027d6:	685b      	ldr	r3, [r3, #4]
 80027d8:	6819      	ldr	r1, [r3, #0]
 80027da:	687b      	ldr	r3, [r7, #4]
 80027dc:	699a      	ldr	r2, [r3, #24]
 80027de:	687b      	ldr	r3, [r7, #4]
 80027e0:	685b      	ldr	r3, [r3, #4]
 80027e2:	430a      	orrs	r2, r1
 80027e4:	601a      	str	r2, [r3, #0]
	config->Request.Stream->CR |= config->flow_control;  // Set flow control
 80027e6:	687b      	ldr	r3, [r7, #4]
 80027e8:	685b      	ldr	r3, [r3, #4]
 80027ea:	6819      	ldr	r1, [r3, #0]
 80027ec:	687b      	ldr	r3, [r7, #4]
 80027ee:	68da      	ldr	r2, [r3, #12]
 80027f0:	687b      	ldr	r3, [r7, #4]
 80027f2:	685b      	ldr	r3, [r3, #4]
 80027f4:	430a      	orrs	r2, r1
 80027f6:	601a      	str	r2, [r3, #0]
	config->Request.Stream->CR |= config->priority_level;  // Set priority level
 80027f8:	687b      	ldr	r3, [r7, #4]
 80027fa:	685b      	ldr	r3, [r3, #4]
 80027fc:	6819      	ldr	r1, [r3, #0]
 80027fe:	687b      	ldr	r3, [r7, #4]
 8002800:	695a      	ldr	r2, [r3, #20]
 8002802:	687b      	ldr	r3, [r7, #4]
 8002804:	685b      	ldr	r3, [r3, #4]
 8002806:	430a      	orrs	r2, r1
 8002808:	601a      	str	r2, [r3, #0]
	config->Request.Stream->CR |= config->memory_data_size;  // Set memory data size
 800280a:	687b      	ldr	r3, [r7, #4]
 800280c:	685b      	ldr	r3, [r3, #4]
 800280e:	6819      	ldr	r1, [r3, #0]
 8002810:	687b      	ldr	r3, [r7, #4]
 8002812:	6a9a      	ldr	r2, [r3, #40]	@ 0x28
 8002814:	687b      	ldr	r3, [r7, #4]
 8002816:	685b      	ldr	r3, [r3, #4]
 8002818:	430a      	orrs	r2, r1
 800281a:	601a      	str	r2, [r3, #0]
	config->Request.Stream->CR |= config->peripheral_data_size;  // Set peripheral data size
 800281c:	687b      	ldr	r3, [r7, #4]
 800281e:	685b      	ldr	r3, [r3, #4]
 8002820:	6819      	ldr	r1, [r3, #0]
 8002822:	687b      	ldr	r3, [r7, #4]
 8002824:	6a5a      	ldr	r2, [r3, #36]	@ 0x24
 8002826:	687b      	ldr	r3, [r7, #4]
 8002828:	685b      	ldr	r3, [r3, #4]
 800282a:	430a      	orrs	r2, r1
 800282c:	601a      	str	r2, [r3, #0]
	config->Request.Stream->CR |= config->transfer_direction;  // Set transfer direction
 800282e:	687b      	ldr	r3, [r7, #4]
 8002830:	685b      	ldr	r3, [r3, #4]
 8002832:	6819      	ldr	r1, [r3, #0]
 8002834:	687b      	ldr	r3, [r7, #4]
 8002836:	691a      	ldr	r2, [r3, #16]
 8002838:	687b      	ldr	r3, [r7, #4]
 800283a:	685b      	ldr	r3, [r3, #4]
 800283c:	430a      	orrs	r2, r1
 800283e:	601a      	str	r2, [r3, #0]

	// Configure DMA interrupts if enabled


	if(config->interrupts != DMA_Configuration.DMA_Interrupts.Disable)
 8002840:	687b      	ldr	r3, [r7, #4]
 8002842:	69db      	ldr	r3, [r3, #28]
 8002844:	2200      	movs	r2, #0
 8002846:	4293      	cmp	r3, r2
 8002848:	f000 8110 	beq.w	8002a6c <DMA_Init+0x2e8>
	{

		if(config->interrupts & DMA_Configuration.DMA_Interrupts.Fifo_Error)
 800284c:	687b      	ldr	r3, [r7, #4]
 800284e:	69db      	ldr	r3, [r3, #28]
 8002850:	2280      	movs	r2, #128	@ 0x80
 8002852:	4013      	ands	r3, r2
 8002854:	2b00      	cmp	r3, #0
 8002856:	d008      	beq.n	800286a <DMA_Init+0xe6>
		{
			config->Request.Stream->FCR |= config->interrupts;
 8002858:	687b      	ldr	r3, [r7, #4]
 800285a:	685b      	ldr	r3, [r3, #4]
 800285c:	6959      	ldr	r1, [r3, #20]
 800285e:	687b      	ldr	r3, [r7, #4]
 8002860:	69da      	ldr	r2, [r3, #28]
 8002862:	687b      	ldr	r3, [r7, #4]
 8002864:	685b      	ldr	r3, [r3, #4]
 8002866:	430a      	orrs	r2, r1
 8002868:	615a      	str	r2, [r3, #20]
		}

		if(config->interrupts & DMA_Configuration.DMA_Interrupts.Transfer_Complete)
 800286a:	687b      	ldr	r3, [r7, #4]
 800286c:	69db      	ldr	r3, [r3, #28]
 800286e:	2210      	movs	r2, #16
 8002870:	4013      	ands	r3, r2
 8002872:	2b00      	cmp	r3, #0
 8002874:	d007      	beq.n	8002886 <DMA_Init+0x102>
		{
			config->Request.Stream->CR |= DMA_SxCR_TCIE;
 8002876:	687b      	ldr	r3, [r7, #4]
 8002878:	685b      	ldr	r3, [r3, #4]
 800287a:	681a      	ldr	r2, [r3, #0]
 800287c:	687b      	ldr	r3, [r7, #4]
 800287e:	685b      	ldr	r3, [r3, #4]
 8002880:	f042 0210 	orr.w	r2, r2, #16
 8002884:	601a      	str	r2, [r3, #0]
		}

		if(config->interrupts & DMA_Configuration.DMA_Interrupts.Half_Transfer_Complete)
 8002886:	687b      	ldr	r3, [r7, #4]
 8002888:	69db      	ldr	r3, [r3, #28]
 800288a:	2208      	movs	r2, #8
 800288c:	4013      	ands	r3, r2
 800288e:	2b00      	cmp	r3, #0
 8002890:	d007      	beq.n	80028a2 <DMA_Init+0x11e>
		{
			config->Request.Stream->CR |= DMA_SxCR_HTIE;
 8002892:	687b      	ldr	r3, [r7, #4]
 8002894:	685b      	ldr	r3, [r3, #4]
 8002896:	681a      	ldr	r2, [r3, #0]
 8002898:	687b      	ldr	r3, [r7, #4]
 800289a:	685b      	ldr	r3, [r3, #4]
 800289c:	f042 0208 	orr.w	r2, r2, #8
 80028a0:	601a      	str	r2, [r3, #0]
		}

		if(config->interrupts & DMA_Configuration.DMA_Interrupts.Transfer_Error)
 80028a2:	687b      	ldr	r3, [r7, #4]
 80028a4:	69db      	ldr	r3, [r3, #28]
 80028a6:	2204      	movs	r2, #4
 80028a8:	4013      	ands	r3, r2
 80028aa:	2b00      	cmp	r3, #0
 80028ac:	d007      	beq.n	80028be <DMA_Init+0x13a>
		{
			config->Request.Stream->CR |= DMA_SxCR_TEIE;
 80028ae:	687b      	ldr	r3, [r7, #4]
 80028b0:	685b      	ldr	r3, [r3, #4]
 80028b2:	681a      	ldr	r2, [r3, #0]
 80028b4:	687b      	ldr	r3, [r7, #4]
 80028b6:	685b      	ldr	r3, [r3, #4]
 80028b8:	f042 0204 	orr.w	r2, r2, #4
 80028bc:	601a      	str	r2, [r3, #0]
		}
		if(config->interrupts & DMA_Configuration.DMA_Interrupts.Direct_Mode_Error)
 80028be:	687b      	ldr	r3, [r7, #4]
 80028c0:	69db      	ldr	r3, [r3, #28]
 80028c2:	2202      	movs	r2, #2
 80028c4:	4013      	ands	r3, r2
 80028c6:	2b00      	cmp	r3, #0
 80028c8:	d007      	beq.n	80028da <DMA_Init+0x156>
		{
			config->Request.Stream->CR |= DMA_SxCR_DMEIE;
 80028ca:	687b      	ldr	r3, [r7, #4]
 80028cc:	685b      	ldr	r3, [r3, #4]
 80028ce:	681a      	ldr	r2, [r3, #0]
 80028d0:	687b      	ldr	r3, [r7, #4]
 80028d2:	685b      	ldr	r3, [r3, #4]
 80028d4:	f042 0202 	orr.w	r2, r2, #2
 80028d8:	601a      	str	r2, [r3, #0]
		}

		// Enable the corresponding NVIC interrupt for the DMA stream
		if(config->Request.Controller == DMA1)
 80028da:	687b      	ldr	r3, [r7, #4]
 80028dc:	681b      	ldr	r3, [r3, #0]
 80028de:	4a80      	ldr	r2, [pc, #512]	@ (8002ae0 <DMA_Init+0x35c>)
 80028e0:	4293      	cmp	r3, r2
 80028e2:	d15f      	bne.n	80029a4 <DMA_Init+0x220>
		{
			if(config->Request.Stream == DMA1_Stream0){
 80028e4:	687b      	ldr	r3, [r7, #4]
 80028e6:	685b      	ldr	r3, [r3, #4]
 80028e8:	4a7e      	ldr	r2, [pc, #504]	@ (8002ae4 <DMA_Init+0x360>)
 80028ea:	4293      	cmp	r3, r2
 80028ec:	d106      	bne.n	80028fc <DMA_Init+0x178>
				__DMA1_Stream0_Config__ = config;
 80028ee:	4a7e      	ldr	r2, [pc, #504]	@ (8002ae8 <DMA_Init+0x364>)
 80028f0:	687b      	ldr	r3, [r7, #4]
 80028f2:	6013      	str	r3, [r2, #0]
				NVIC_EnableIRQ(DMA1_Stream0_IRQn);
 80028f4:	200b      	movs	r0, #11
 80028f6:	f7fe fbad 	bl	8001054 <__NVIC_EnableIRQ>
 80028fa:	e0b7      	b.n	8002a6c <DMA_Init+0x2e8>
			}
			else if(config->Request.Stream == DMA1_Stream1){
 80028fc:	687b      	ldr	r3, [r7, #4]
 80028fe:	685b      	ldr	r3, [r3, #4]
 8002900:	4a7a      	ldr	r2, [pc, #488]	@ (8002aec <DMA_Init+0x368>)
 8002902:	4293      	cmp	r3, r2
 8002904:	d106      	bne.n	8002914 <DMA_Init+0x190>
				__DMA1_Stream1_Config__ = config;
 8002906:	4a7a      	ldr	r2, [pc, #488]	@ (8002af0 <DMA_Init+0x36c>)
 8002908:	687b      	ldr	r3, [r7, #4]
 800290a:	6013      	str	r3, [r2, #0]
				NVIC_EnableIRQ(DMA1_Stream1_IRQn);
 800290c:	200c      	movs	r0, #12
 800290e:	f7fe fba1 	bl	8001054 <__NVIC_EnableIRQ>
 8002912:	e0ab      	b.n	8002a6c <DMA_Init+0x2e8>
			}
			else if(config->Request.Stream == DMA1_Stream2){
 8002914:	687b      	ldr	r3, [r7, #4]
 8002916:	685b      	ldr	r3, [r3, #4]
 8002918:	4a76      	ldr	r2, [pc, #472]	@ (8002af4 <DMA_Init+0x370>)
 800291a:	4293      	cmp	r3, r2
 800291c:	d106      	bne.n	800292c <DMA_Init+0x1a8>
				__DMA1_Stream2_Config__ = config;
 800291e:	4a76      	ldr	r2, [pc, #472]	@ (8002af8 <DMA_Init+0x374>)
 8002920:	687b      	ldr	r3, [r7, #4]
 8002922:	6013      	str	r3, [r2, #0]
				NVIC_EnableIRQ(DMA1_Stream2_IRQn);
 8002924:	200d      	movs	r0, #13
 8002926:	f7fe fb95 	bl	8001054 <__NVIC_EnableIRQ>
 800292a:	e09f      	b.n	8002a6c <DMA_Init+0x2e8>
			}
			else if(config->Request.Stream == DMA1_Stream3){
 800292c:	687b      	ldr	r3, [r7, #4]
 800292e:	685b      	ldr	r3, [r3, #4]
 8002930:	4a72      	ldr	r2, [pc, #456]	@ (8002afc <DMA_Init+0x378>)
 8002932:	4293      	cmp	r3, r2
 8002934:	d106      	bne.n	8002944 <DMA_Init+0x1c0>
				__DMA1_Stream3_Config__ = config;
 8002936:	4a72      	ldr	r2, [pc, #456]	@ (8002b00 <DMA_Init+0x37c>)
 8002938:	687b      	ldr	r3, [r7, #4]
 800293a:	6013      	str	r3, [r2, #0]
				NVIC_EnableIRQ(DMA1_Stream3_IRQn);
 800293c:	200e      	movs	r0, #14
 800293e:	f7fe fb89 	bl	8001054 <__NVIC_EnableIRQ>
 8002942:	e093      	b.n	8002a6c <DMA_Init+0x2e8>
			}
			else if(config->Request.Stream == DMA1_Stream4){
 8002944:	687b      	ldr	r3, [r7, #4]
 8002946:	685b      	ldr	r3, [r3, #4]
 8002948:	4a6e      	ldr	r2, [pc, #440]	@ (8002b04 <DMA_Init+0x380>)
 800294a:	4293      	cmp	r3, r2
 800294c:	d106      	bne.n	800295c <DMA_Init+0x1d8>
				__DMA1_Stream4_Config__ = config;
 800294e:	4a6e      	ldr	r2, [pc, #440]	@ (8002b08 <DMA_Init+0x384>)
 8002950:	687b      	ldr	r3, [r7, #4]
 8002952:	6013      	str	r3, [r2, #0]
				NVIC_EnableIRQ(DMA1_Stream4_IRQn);
 8002954:	200f      	movs	r0, #15
 8002956:	f7fe fb7d 	bl	8001054 <__NVIC_EnableIRQ>
 800295a:	e087      	b.n	8002a6c <DMA_Init+0x2e8>
			}
			else if(config->Request.Stream == DMA1_Stream5){
 800295c:	687b      	ldr	r3, [r7, #4]
 800295e:	685b      	ldr	r3, [r3, #4]
 8002960:	4a6a      	ldr	r2, [pc, #424]	@ (8002b0c <DMA_Init+0x388>)
 8002962:	4293      	cmp	r3, r2
 8002964:	d106      	bne.n	8002974 <DMA_Init+0x1f0>
				__DMA1_Stream5_Config__ = config;
 8002966:	4a6a      	ldr	r2, [pc, #424]	@ (8002b10 <DMA_Init+0x38c>)
 8002968:	687b      	ldr	r3, [r7, #4]
 800296a:	6013      	str	r3, [r2, #0]
				NVIC_EnableIRQ(DMA1_Stream5_IRQn);
 800296c:	2010      	movs	r0, #16
 800296e:	f7fe fb71 	bl	8001054 <__NVIC_EnableIRQ>
 8002972:	e07b      	b.n	8002a6c <DMA_Init+0x2e8>
			}
			else if(config->Request.Stream == DMA1_Stream6) {
 8002974:	687b      	ldr	r3, [r7, #4]
 8002976:	685b      	ldr	r3, [r3, #4]
 8002978:	4a66      	ldr	r2, [pc, #408]	@ (8002b14 <DMA_Init+0x390>)
 800297a:	4293      	cmp	r3, r2
 800297c:	d106      	bne.n	800298c <DMA_Init+0x208>
				__DMA1_Stream6_Config__ = config;
 800297e:	4a66      	ldr	r2, [pc, #408]	@ (8002b18 <DMA_Init+0x394>)
 8002980:	687b      	ldr	r3, [r7, #4]
 8002982:	6013      	str	r3, [r2, #0]
				NVIC_EnableIRQ(DMA1_Stream6_IRQn);
 8002984:	2011      	movs	r0, #17
 8002986:	f7fe fb65 	bl	8001054 <__NVIC_EnableIRQ>
 800298a:	e06f      	b.n	8002a6c <DMA_Init+0x2e8>
			}
			else if(config->Request.Stream == DMA1_Stream7){
 800298c:	687b      	ldr	r3, [r7, #4]
 800298e:	685b      	ldr	r3, [r3, #4]
 8002990:	4a62      	ldr	r2, [pc, #392]	@ (8002b1c <DMA_Init+0x398>)
 8002992:	4293      	cmp	r3, r2
 8002994:	d16a      	bne.n	8002a6c <DMA_Init+0x2e8>
				__DMA1_Stream7_Config__ = config;
 8002996:	4a62      	ldr	r2, [pc, #392]	@ (8002b20 <DMA_Init+0x39c>)
 8002998:	687b      	ldr	r3, [r7, #4]
 800299a:	6013      	str	r3, [r2, #0]
				NVIC_EnableIRQ(DMA1_Stream7_IRQn);
 800299c:	202f      	movs	r0, #47	@ 0x2f
 800299e:	f7fe fb59 	bl	8001054 <__NVIC_EnableIRQ>
 80029a2:	e063      	b.n	8002a6c <DMA_Init+0x2e8>
			}
		}
		else if(config->Request.Controller == DMA2)
 80029a4:	687b      	ldr	r3, [r7, #4]
 80029a6:	681b      	ldr	r3, [r3, #0]
 80029a8:	4a5e      	ldr	r2, [pc, #376]	@ (8002b24 <DMA_Init+0x3a0>)
 80029aa:	4293      	cmp	r3, r2
 80029ac:	d15e      	bne.n	8002a6c <DMA_Init+0x2e8>
		{
			if(config->Request.Stream == DMA2_Stream0){
 80029ae:	687b      	ldr	r3, [r7, #4]
 80029b0:	685b      	ldr	r3, [r3, #4]
 80029b2:	4a5d      	ldr	r2, [pc, #372]	@ (8002b28 <DMA_Init+0x3a4>)
 80029b4:	4293      	cmp	r3, r2
 80029b6:	d106      	bne.n	80029c6 <DMA_Init+0x242>
				__DMA2_Stream0_Config__ = config;
 80029b8:	4a5c      	ldr	r2, [pc, #368]	@ (8002b2c <DMA_Init+0x3a8>)
 80029ba:	687b      	ldr	r3, [r7, #4]
 80029bc:	6013      	str	r3, [r2, #0]
				NVIC_EnableIRQ(DMA2_Stream0_IRQn);
 80029be:	2038      	movs	r0, #56	@ 0x38
 80029c0:	f7fe fb48 	bl	8001054 <__NVIC_EnableIRQ>
 80029c4:	e052      	b.n	8002a6c <DMA_Init+0x2e8>
			}
			else if(config->Request.Stream == DMA2_Stream1){
 80029c6:	687b      	ldr	r3, [r7, #4]
 80029c8:	685b      	ldr	r3, [r3, #4]
 80029ca:	4a59      	ldr	r2, [pc, #356]	@ (8002b30 <DMA_Init+0x3ac>)
 80029cc:	4293      	cmp	r3, r2
 80029ce:	d106      	bne.n	80029de <DMA_Init+0x25a>
				__DMA2_Stream1_Config__ = config;
 80029d0:	4a58      	ldr	r2, [pc, #352]	@ (8002b34 <DMA_Init+0x3b0>)
 80029d2:	687b      	ldr	r3, [r7, #4]
 80029d4:	6013      	str	r3, [r2, #0]
				NVIC_EnableIRQ(DMA2_Stream1_IRQn);
 80029d6:	2039      	movs	r0, #57	@ 0x39
 80029d8:	f7fe fb3c 	bl	8001054 <__NVIC_EnableIRQ>
 80029dc:	e046      	b.n	8002a6c <DMA_Init+0x2e8>
			}
			else if(config->Request.Stream == DMA2_Stream2){
 80029de:	687b      	ldr	r3, [r7, #4]
 80029e0:	685b      	ldr	r3, [r3, #4]
 80029e2:	4a55      	ldr	r2, [pc, #340]	@ (8002b38 <DMA_Init+0x3b4>)
 80029e4:	4293      	cmp	r3, r2
 80029e6:	d106      	bne.n	80029f6 <DMA_Init+0x272>
				__DMA2_Stream2_Config__ = config;
 80029e8:	4a54      	ldr	r2, [pc, #336]	@ (8002b3c <DMA_Init+0x3b8>)
 80029ea:	687b      	ldr	r3, [r7, #4]
 80029ec:	6013      	str	r3, [r2, #0]
				NVIC_EnableIRQ(DMA2_Stream2_IRQn);
 80029ee:	203a      	movs	r0, #58	@ 0x3a
 80029f0:	f7fe fb30 	bl	8001054 <__NVIC_EnableIRQ>
 80029f4:	e03a      	b.n	8002a6c <DMA_Init+0x2e8>
			}
			else if(config->Request.Stream == DMA2_Stream3){
 80029f6:	687b      	ldr	r3, [r7, #4]
 80029f8:	685b      	ldr	r3, [r3, #4]
 80029fa:	4a51      	ldr	r2, [pc, #324]	@ (8002b40 <DMA_Init+0x3bc>)
 80029fc:	4293      	cmp	r3, r2
 80029fe:	d106      	bne.n	8002a0e <DMA_Init+0x28a>
				__DMA2_Stream3_Config__ = config;
 8002a00:	4a50      	ldr	r2, [pc, #320]	@ (8002b44 <DMA_Init+0x3c0>)
 8002a02:	687b      	ldr	r3, [r7, #4]
 8002a04:	6013      	str	r3, [r2, #0]
				NVIC_EnableIRQ(DMA2_Stream3_IRQn);
 8002a06:	203b      	movs	r0, #59	@ 0x3b
 8002a08:	f7fe fb24 	bl	8001054 <__NVIC_EnableIRQ>
 8002a0c:	e02e      	b.n	8002a6c <DMA_Init+0x2e8>
			}
			else if(config->Request.Stream == DMA2_Stream4){
 8002a0e:	687b      	ldr	r3, [r7, #4]
 8002a10:	685b      	ldr	r3, [r3, #4]
 8002a12:	4a4d      	ldr	r2, [pc, #308]	@ (8002b48 <DMA_Init+0x3c4>)
 8002a14:	4293      	cmp	r3, r2
 8002a16:	d106      	bne.n	8002a26 <DMA_Init+0x2a2>
				__DMA2_Stream4_Config__ = config;
 8002a18:	4a4c      	ldr	r2, [pc, #304]	@ (8002b4c <DMA_Init+0x3c8>)
 8002a1a:	687b      	ldr	r3, [r7, #4]
 8002a1c:	6013      	str	r3, [r2, #0]
				NVIC_EnableIRQ(DMA2_Stream4_IRQn);
 8002a1e:	203c      	movs	r0, #60	@ 0x3c
 8002a20:	f7fe fb18 	bl	8001054 <__NVIC_EnableIRQ>
 8002a24:	e022      	b.n	8002a6c <DMA_Init+0x2e8>
			}
			else if(config->Request.Stream == DMA2_Stream5){
 8002a26:	687b      	ldr	r3, [r7, #4]
 8002a28:	685b      	ldr	r3, [r3, #4]
 8002a2a:	4a49      	ldr	r2, [pc, #292]	@ (8002b50 <DMA_Init+0x3cc>)
 8002a2c:	4293      	cmp	r3, r2
 8002a2e:	d106      	bne.n	8002a3e <DMA_Init+0x2ba>
				__DMA2_Stream5_Config__ = config;
 8002a30:	4a48      	ldr	r2, [pc, #288]	@ (8002b54 <DMA_Init+0x3d0>)
 8002a32:	687b      	ldr	r3, [r7, #4]
 8002a34:	6013      	str	r3, [r2, #0]
				NVIC_EnableIRQ(DMA2_Stream5_IRQn);
 8002a36:	2044      	movs	r0, #68	@ 0x44
 8002a38:	f7fe fb0c 	bl	8001054 <__NVIC_EnableIRQ>
 8002a3c:	e016      	b.n	8002a6c <DMA_Init+0x2e8>
			}
			else if(config->Request.Stream == DMA2_Stream6){
 8002a3e:	687b      	ldr	r3, [r7, #4]
 8002a40:	685b      	ldr	r3, [r3, #4]
 8002a42:	4a45      	ldr	r2, [pc, #276]	@ (8002b58 <DMA_Init+0x3d4>)
 8002a44:	4293      	cmp	r3, r2
 8002a46:	d106      	bne.n	8002a56 <DMA_Init+0x2d2>
				__DMA2_Stream6_Config__ = config;
 8002a48:	4a44      	ldr	r2, [pc, #272]	@ (8002b5c <DMA_Init+0x3d8>)
 8002a4a:	687b      	ldr	r3, [r7, #4]
 8002a4c:	6013      	str	r3, [r2, #0]
				NVIC_EnableIRQ(DMA2_Stream6_IRQn);
 8002a4e:	2045      	movs	r0, #69	@ 0x45
 8002a50:	f7fe fb00 	bl	8001054 <__NVIC_EnableIRQ>
 8002a54:	e00a      	b.n	8002a6c <DMA_Init+0x2e8>
			}
			else if(config->Request.Stream == DMA2_Stream7){
 8002a56:	687b      	ldr	r3, [r7, #4]
 8002a58:	685b      	ldr	r3, [r3, #4]
 8002a5a:	4a41      	ldr	r2, [pc, #260]	@ (8002b60 <DMA_Init+0x3dc>)
 8002a5c:	4293      	cmp	r3, r2
 8002a5e:	d105      	bne.n	8002a6c <DMA_Init+0x2e8>
				__DMA2_Stream7_Config__ = config;
 8002a60:	4a40      	ldr	r2, [pc, #256]	@ (8002b64 <DMA_Init+0x3e0>)
 8002a62:	687b      	ldr	r3, [r7, #4]
 8002a64:	6013      	str	r3, [r2, #0]
				//            	NVIC_SetPriority(DMA2_Stream7_IRQn,0);
				NVIC_EnableIRQ(DMA2_Stream7_IRQn);
 8002a66:	2046      	movs	r0, #70	@ 0x46
 8002a68:	f7fe faf4 	bl	8001054 <__NVIC_EnableIRQ>
			}
		}
	}

	// Configure memory and peripheral pointer increments
	config->Request.Stream->CR |= config->memory_pointer_increment;
 8002a6c:	687b      	ldr	r3, [r7, #4]
 8002a6e:	685b      	ldr	r3, [r3, #4]
 8002a70:	681a      	ldr	r2, [r3, #0]
 8002a72:	687b      	ldr	r3, [r7, #4]
 8002a74:	8c1b      	ldrh	r3, [r3, #32]
 8002a76:	4619      	mov	r1, r3
 8002a78:	687b      	ldr	r3, [r7, #4]
 8002a7a:	685b      	ldr	r3, [r3, #4]
 8002a7c:	430a      	orrs	r2, r1
 8002a7e:	601a      	str	r2, [r3, #0]
	config->Request.Stream->CR |= config->peripheral_pointer_increment;
 8002a80:	687b      	ldr	r3, [r7, #4]
 8002a82:	685b      	ldr	r3, [r3, #4]
 8002a84:	681a      	ldr	r2, [r3, #0]
 8002a86:	687b      	ldr	r3, [r7, #4]
 8002a88:	8c5b      	ldrh	r3, [r3, #34]	@ 0x22
 8002a8a:	4619      	mov	r1, r3
 8002a8c:	687b      	ldr	r3, [r7, #4]
 8002a8e:	685b      	ldr	r3, [r3, #4]
 8002a90:	430a      	orrs	r2, r1
 8002a92:	601a      	str	r2, [r3, #0]

	// Configure circular mode
	if(config->circular_mode == DMA_Configuration.Circular_Mode.Enable)
 8002a94:	687b      	ldr	r3, [r7, #4]
 8002a96:	699b      	ldr	r3, [r3, #24]
 8002a98:	f44f 7280 	mov.w	r2, #256	@ 0x100
 8002a9c:	4293      	cmp	r3, r2
 8002a9e:	d108      	bne.n	8002ab2 <DMA_Init+0x32e>
	{
		config->Request.Stream->CR |= DMA_SxCR_CIRC;
 8002aa0:	687b      	ldr	r3, [r7, #4]
 8002aa2:	685b      	ldr	r3, [r3, #4]
 8002aa4:	681a      	ldr	r2, [r3, #0]
 8002aa6:	687b      	ldr	r3, [r7, #4]
 8002aa8:	685b      	ldr	r3, [r3, #4]
 8002aaa:	f442 7280 	orr.w	r2, r2, #256	@ 0x100
 8002aae:	601a      	str	r2, [r3, #0]
 8002ab0:	e010      	b.n	8002ad4 <DMA_Init+0x350>
	}
	else if(config->circular_mode == DMA_Configuration.Circular_Mode.Disable)
 8002ab2:	687b      	ldr	r3, [r7, #4]
 8002ab4:	699b      	ldr	r3, [r3, #24]
 8002ab6:	2200      	movs	r2, #0
 8002ab8:	4293      	cmp	r3, r2
 8002aba:	d108      	bne.n	8002ace <DMA_Init+0x34a>
	{
		config->Request.Stream->CR &= ~DMA_SxCR_CIRC;
 8002abc:	687b      	ldr	r3, [r7, #4]
 8002abe:	685b      	ldr	r3, [r3, #4]
 8002ac0:	681a      	ldr	r2, [r3, #0]
 8002ac2:	687b      	ldr	r3, [r7, #4]
 8002ac4:	685b      	ldr	r3, [r3, #4]
 8002ac6:	f422 7280 	bic.w	r2, r2, #256	@ 0x100
 8002aca:	601a      	str	r2, [r3, #0]
 8002acc:	e002      	b.n	8002ad4 <DMA_Init+0x350>
	}
	else
	{
		return -1;  // Return -1 if circular mode configuration is invalid
 8002ace:	f04f 33ff 	mov.w	r3, #4294967295
 8002ad2:	e000      	b.n	8002ad6 <DMA_Init+0x352>
	}

	return 1;  // Return 1 on successful initialization
 8002ad4:	2301      	movs	r3, #1
}
 8002ad6:	4618      	mov	r0, r3
 8002ad8:	3708      	adds	r7, #8
 8002ada:	46bd      	mov	sp, r7
 8002adc:	bd80      	pop	{r7, pc}
 8002ade:	bf00      	nop
 8002ae0:	40026000 	.word	0x40026000
 8002ae4:	40026010 	.word	0x40026010
 8002ae8:	20000020 	.word	0x20000020
 8002aec:	40026028 	.word	0x40026028
 8002af0:	20000024 	.word	0x20000024
 8002af4:	40026040 	.word	0x40026040
 8002af8:	20000028 	.word	0x20000028
 8002afc:	40026058 	.word	0x40026058
 8002b00:	2000002c 	.word	0x2000002c
 8002b04:	40026070 	.word	0x40026070
 8002b08:	20000030 	.word	0x20000030
 8002b0c:	40026088 	.word	0x40026088
 8002b10:	20000034 	.word	0x20000034
 8002b14:	400260a0 	.word	0x400260a0
 8002b18:	20000038 	.word	0x20000038
 8002b1c:	400260b8 	.word	0x400260b8
 8002b20:	2000003c 	.word	0x2000003c
 8002b24:	40026400 	.word	0x40026400
 8002b28:	40026410 	.word	0x40026410
 8002b2c:	20000040 	.word	0x20000040
 8002b30:	40026428 	.word	0x40026428
 8002b34:	20000044 	.word	0x20000044
 8002b38:	40026440 	.word	0x40026440
 8002b3c:	20000048 	.word	0x20000048
 8002b40:	40026458 	.word	0x40026458
 8002b44:	2000004c 	.word	0x2000004c
 8002b48:	40026470 	.word	0x40026470
 8002b4c:	20000050 	.word	0x20000050
 8002b50:	40026488 	.word	0x40026488
 8002b54:	20000054 	.word	0x20000054
 8002b58:	400264a0 	.word	0x400264a0
 8002b5c:	20000058 	.word	0x20000058
 8002b60:	400264b8 	.word	0x400264b8
 8002b64:	2000005c 	.word	0x2000005c

08002b68 <EXTI0_IRQHandler>:
 * @brief Interrupt handler for EXTI line 0.
 *
 * This ISR handles interrupts for pin 0, invoking the associated callback
 * function if one is registered.
 */
void EXTI0_IRQHandler(void) {
 8002b68:	b580      	push	{r7, lr}
 8002b6a:	af00      	add	r7, sp, #0
    if (EXTI_ISR[0]) EXTI_ISR[0](); // Invoke registered callback
 8002b6c:	4b07      	ldr	r3, [pc, #28]	@ (8002b8c <EXTI0_IRQHandler+0x24>)
 8002b6e:	681b      	ldr	r3, [r3, #0]
 8002b70:	2b00      	cmp	r3, #0
 8002b72:	d002      	beq.n	8002b7a <EXTI0_IRQHandler+0x12>
 8002b74:	4b05      	ldr	r3, [pc, #20]	@ (8002b8c <EXTI0_IRQHandler+0x24>)
 8002b76:	681b      	ldr	r3, [r3, #0]
 8002b78:	4798      	blx	r3
    EXTI->PR |= EXTI_PR_PR0;        // Clear interrupt flag
 8002b7a:	4b05      	ldr	r3, [pc, #20]	@ (8002b90 <EXTI0_IRQHandler+0x28>)
 8002b7c:	695b      	ldr	r3, [r3, #20]
 8002b7e:	4a04      	ldr	r2, [pc, #16]	@ (8002b90 <EXTI0_IRQHandler+0x28>)
 8002b80:	f043 0301 	orr.w	r3, r3, #1
 8002b84:	6153      	str	r3, [r2, #20]
}
 8002b86:	bf00      	nop
 8002b88:	bd80      	pop	{r7, pc}
 8002b8a:	bf00      	nop
 8002b8c:	20000068 	.word	0x20000068
 8002b90:	40013c00 	.word	0x40013c00

08002b94 <EXTI1_IRQHandler>:

/**
 * @brief Interrupt handler for EXTI line 1.
 */
void EXTI1_IRQHandler(void) {
 8002b94:	b580      	push	{r7, lr}
 8002b96:	af00      	add	r7, sp, #0
    if (EXTI_ISR[1]) EXTI_ISR[1]();
 8002b98:	4b07      	ldr	r3, [pc, #28]	@ (8002bb8 <EXTI1_IRQHandler+0x24>)
 8002b9a:	685b      	ldr	r3, [r3, #4]
 8002b9c:	2b00      	cmp	r3, #0
 8002b9e:	d002      	beq.n	8002ba6 <EXTI1_IRQHandler+0x12>
 8002ba0:	4b05      	ldr	r3, [pc, #20]	@ (8002bb8 <EXTI1_IRQHandler+0x24>)
 8002ba2:	685b      	ldr	r3, [r3, #4]
 8002ba4:	4798      	blx	r3
    EXTI->PR |= EXTI_PR_PR1;
 8002ba6:	4b05      	ldr	r3, [pc, #20]	@ (8002bbc <EXTI1_IRQHandler+0x28>)
 8002ba8:	695b      	ldr	r3, [r3, #20]
 8002baa:	4a04      	ldr	r2, [pc, #16]	@ (8002bbc <EXTI1_IRQHandler+0x28>)
 8002bac:	f043 0302 	orr.w	r3, r3, #2
 8002bb0:	6153      	str	r3, [r2, #20]
}
 8002bb2:	bf00      	nop
 8002bb4:	bd80      	pop	{r7, pc}
 8002bb6:	bf00      	nop
 8002bb8:	20000068 	.word	0x20000068
 8002bbc:	40013c00 	.word	0x40013c00

08002bc0 <EXTI2_IRQHandler>:

/**
 * @brief Interrupt handler for EXTI line 2.
 */
void EXTI2_IRQHandler(void) {
 8002bc0:	b580      	push	{r7, lr}
 8002bc2:	af00      	add	r7, sp, #0
    if (EXTI_ISR[2]) EXTI_ISR[2]();
 8002bc4:	4b07      	ldr	r3, [pc, #28]	@ (8002be4 <EXTI2_IRQHandler+0x24>)
 8002bc6:	689b      	ldr	r3, [r3, #8]
 8002bc8:	2b00      	cmp	r3, #0
 8002bca:	d002      	beq.n	8002bd2 <EXTI2_IRQHandler+0x12>
 8002bcc:	4b05      	ldr	r3, [pc, #20]	@ (8002be4 <EXTI2_IRQHandler+0x24>)
 8002bce:	689b      	ldr	r3, [r3, #8]
 8002bd0:	4798      	blx	r3
    EXTI->PR |= EXTI_PR_PR2;
 8002bd2:	4b05      	ldr	r3, [pc, #20]	@ (8002be8 <EXTI2_IRQHandler+0x28>)
 8002bd4:	695b      	ldr	r3, [r3, #20]
 8002bd6:	4a04      	ldr	r2, [pc, #16]	@ (8002be8 <EXTI2_IRQHandler+0x28>)
 8002bd8:	f043 0304 	orr.w	r3, r3, #4
 8002bdc:	6153      	str	r3, [r2, #20]
}
 8002bde:	bf00      	nop
 8002be0:	bd80      	pop	{r7, pc}
 8002be2:	bf00      	nop
 8002be4:	20000068 	.word	0x20000068
 8002be8:	40013c00 	.word	0x40013c00

08002bec <EXTI3_IRQHandler>:

/**
 * @brief Interrupt handler for EXTI line 3.
 */
void EXTI3_IRQHandler(void) {
 8002bec:	b580      	push	{r7, lr}
 8002bee:	af00      	add	r7, sp, #0
    if (EXTI_ISR[3]) EXTI_ISR[3]();
 8002bf0:	4b07      	ldr	r3, [pc, #28]	@ (8002c10 <EXTI3_IRQHandler+0x24>)
 8002bf2:	68db      	ldr	r3, [r3, #12]
 8002bf4:	2b00      	cmp	r3, #0
 8002bf6:	d002      	beq.n	8002bfe <EXTI3_IRQHandler+0x12>
 8002bf8:	4b05      	ldr	r3, [pc, #20]	@ (8002c10 <EXTI3_IRQHandler+0x24>)
 8002bfa:	68db      	ldr	r3, [r3, #12]
 8002bfc:	4798      	blx	r3
    EXTI->PR |= EXTI_PR_PR3;
 8002bfe:	4b05      	ldr	r3, [pc, #20]	@ (8002c14 <EXTI3_IRQHandler+0x28>)
 8002c00:	695b      	ldr	r3, [r3, #20]
 8002c02:	4a04      	ldr	r2, [pc, #16]	@ (8002c14 <EXTI3_IRQHandler+0x28>)
 8002c04:	f043 0308 	orr.w	r3, r3, #8
 8002c08:	6153      	str	r3, [r2, #20]
}
 8002c0a:	bf00      	nop
 8002c0c:	bd80      	pop	{r7, pc}
 8002c0e:	bf00      	nop
 8002c10:	20000068 	.word	0x20000068
 8002c14:	40013c00 	.word	0x40013c00

08002c18 <EXTI4_IRQHandler>:

/**
 * @brief Interrupt handler for EXTI line 4.
 */
void EXTI4_IRQHandler(void) {
 8002c18:	b580      	push	{r7, lr}
 8002c1a:	af00      	add	r7, sp, #0
    if (EXTI_ISR[4]) EXTI_ISR[4]();
 8002c1c:	4b07      	ldr	r3, [pc, #28]	@ (8002c3c <EXTI4_IRQHandler+0x24>)
 8002c1e:	691b      	ldr	r3, [r3, #16]
 8002c20:	2b00      	cmp	r3, #0
 8002c22:	d002      	beq.n	8002c2a <EXTI4_IRQHandler+0x12>
 8002c24:	4b05      	ldr	r3, [pc, #20]	@ (8002c3c <EXTI4_IRQHandler+0x24>)
 8002c26:	691b      	ldr	r3, [r3, #16]
 8002c28:	4798      	blx	r3
    EXTI->PR |= EXTI_PR_PR4;
 8002c2a:	4b05      	ldr	r3, [pc, #20]	@ (8002c40 <EXTI4_IRQHandler+0x28>)
 8002c2c:	695b      	ldr	r3, [r3, #20]
 8002c2e:	4a04      	ldr	r2, [pc, #16]	@ (8002c40 <EXTI4_IRQHandler+0x28>)
 8002c30:	f043 0310 	orr.w	r3, r3, #16
 8002c34:	6153      	str	r3, [r2, #20]
}
 8002c36:	bf00      	nop
 8002c38:	bd80      	pop	{r7, pc}
 8002c3a:	bf00      	nop
 8002c3c:	20000068 	.word	0x20000068
 8002c40:	40013c00 	.word	0x40013c00

08002c44 <EXTI9_5_IRQHandler>:
/**
 * @brief Interrupt handler for EXTI lines 5 to 9.
 *
 * Handles interrupts for pins 5 to 9, checking each pin for active flags.
 */
void EXTI9_5_IRQHandler(void) {
 8002c44:	b580      	push	{r7, lr}
 8002c46:	b082      	sub	sp, #8
 8002c48:	af00      	add	r7, sp, #0
    for (int i = 5; i <= 9; ++i) {
 8002c4a:	2305      	movs	r3, #5
 8002c4c:	607b      	str	r3, [r7, #4]
 8002c4e:	e020      	b.n	8002c92 <EXTI9_5_IRQHandler+0x4e>
        if ((EXTI->PR & (1 << i)) && EXTI_ISR[i]) {
 8002c50:	4b14      	ldr	r3, [pc, #80]	@ (8002ca4 <EXTI9_5_IRQHandler+0x60>)
 8002c52:	695b      	ldr	r3, [r3, #20]
 8002c54:	2101      	movs	r1, #1
 8002c56:	687a      	ldr	r2, [r7, #4]
 8002c58:	fa01 f202 	lsl.w	r2, r1, r2
 8002c5c:	4013      	ands	r3, r2
 8002c5e:	2b00      	cmp	r3, #0
 8002c60:	d014      	beq.n	8002c8c <EXTI9_5_IRQHandler+0x48>
 8002c62:	4a11      	ldr	r2, [pc, #68]	@ (8002ca8 <EXTI9_5_IRQHandler+0x64>)
 8002c64:	687b      	ldr	r3, [r7, #4]
 8002c66:	f852 3023 	ldr.w	r3, [r2, r3, lsl #2]
 8002c6a:	2b00      	cmp	r3, #0
 8002c6c:	d00e      	beq.n	8002c8c <EXTI9_5_IRQHandler+0x48>
            EXTI_ISR[i]();        // Invoke callback for pin `i`
 8002c6e:	4a0e      	ldr	r2, [pc, #56]	@ (8002ca8 <EXTI9_5_IRQHandler+0x64>)
 8002c70:	687b      	ldr	r3, [r7, #4]
 8002c72:	f852 3023 	ldr.w	r3, [r2, r3, lsl #2]
 8002c76:	4798      	blx	r3
            EXTI->PR |= (1 << i); // Clear interrupt flag
 8002c78:	4b0a      	ldr	r3, [pc, #40]	@ (8002ca4 <EXTI9_5_IRQHandler+0x60>)
 8002c7a:	695b      	ldr	r3, [r3, #20]
 8002c7c:	2101      	movs	r1, #1
 8002c7e:	687a      	ldr	r2, [r7, #4]
 8002c80:	fa01 f202 	lsl.w	r2, r1, r2
 8002c84:	4611      	mov	r1, r2
 8002c86:	4a07      	ldr	r2, [pc, #28]	@ (8002ca4 <EXTI9_5_IRQHandler+0x60>)
 8002c88:	430b      	orrs	r3, r1
 8002c8a:	6153      	str	r3, [r2, #20]
    for (int i = 5; i <= 9; ++i) {
 8002c8c:	687b      	ldr	r3, [r7, #4]
 8002c8e:	3301      	adds	r3, #1
 8002c90:	607b      	str	r3, [r7, #4]
 8002c92:	687b      	ldr	r3, [r7, #4]
 8002c94:	2b09      	cmp	r3, #9
 8002c96:	dddb      	ble.n	8002c50 <EXTI9_5_IRQHandler+0xc>
        }
    }
}
 8002c98:	bf00      	nop
 8002c9a:	bf00      	nop
 8002c9c:	3708      	adds	r7, #8
 8002c9e:	46bd      	mov	sp, r7
 8002ca0:	bd80      	pop	{r7, pc}
 8002ca2:	bf00      	nop
 8002ca4:	40013c00 	.word	0x40013c00
 8002ca8:	20000068 	.word	0x20000068

08002cac <EXTI15_10_IRQHandler>:
/**
 * @brief Interrupt handler for EXTI lines 10 to 15.
 *
 * Handles interrupts for pins 10 to 15, checking each pin for active flags.
 */
void EXTI15_10_IRQHandler(void) {
 8002cac:	b580      	push	{r7, lr}
 8002cae:	b082      	sub	sp, #8
 8002cb0:	af00      	add	r7, sp, #0
    for (int i = 10; i <= 15; ++i) {
 8002cb2:	230a      	movs	r3, #10
 8002cb4:	607b      	str	r3, [r7, #4]
 8002cb6:	e020      	b.n	8002cfa <EXTI15_10_IRQHandler+0x4e>
        if ((EXTI->PR & (1 << i)) && EXTI_ISR[i]) {
 8002cb8:	4b14      	ldr	r3, [pc, #80]	@ (8002d0c <EXTI15_10_IRQHandler+0x60>)
 8002cba:	695b      	ldr	r3, [r3, #20]
 8002cbc:	2101      	movs	r1, #1
 8002cbe:	687a      	ldr	r2, [r7, #4]
 8002cc0:	fa01 f202 	lsl.w	r2, r1, r2
 8002cc4:	4013      	ands	r3, r2
 8002cc6:	2b00      	cmp	r3, #0
 8002cc8:	d014      	beq.n	8002cf4 <EXTI15_10_IRQHandler+0x48>
 8002cca:	4a11      	ldr	r2, [pc, #68]	@ (8002d10 <EXTI15_10_IRQHandler+0x64>)
 8002ccc:	687b      	ldr	r3, [r7, #4]
 8002cce:	f852 3023 	ldr.w	r3, [r2, r3, lsl #2]
 8002cd2:	2b00      	cmp	r3, #0
 8002cd4:	d00e      	beq.n	8002cf4 <EXTI15_10_IRQHandler+0x48>
            EXTI_ISR[i]();        // Invoke callback for pin `i`
 8002cd6:	4a0e      	ldr	r2, [pc, #56]	@ (8002d10 <EXTI15_10_IRQHandler+0x64>)
 8002cd8:	687b      	ldr	r3, [r7, #4]
 8002cda:	f852 3023 	ldr.w	r3, [r2, r3, lsl #2]
 8002cde:	4798      	blx	r3
            EXTI->PR |= (1 << i); // Clear interrupt flag
 8002ce0:	4b0a      	ldr	r3, [pc, #40]	@ (8002d0c <EXTI15_10_IRQHandler+0x60>)
 8002ce2:	695b      	ldr	r3, [r3, #20]
 8002ce4:	2101      	movs	r1, #1
 8002ce6:	687a      	ldr	r2, [r7, #4]
 8002ce8:	fa01 f202 	lsl.w	r2, r1, r2
 8002cec:	4611      	mov	r1, r2
 8002cee:	4a07      	ldr	r2, [pc, #28]	@ (8002d0c <EXTI15_10_IRQHandler+0x60>)
 8002cf0:	430b      	orrs	r3, r1
 8002cf2:	6153      	str	r3, [r2, #20]
    for (int i = 10; i <= 15; ++i) {
 8002cf4:	687b      	ldr	r3, [r7, #4]
 8002cf6:	3301      	adds	r3, #1
 8002cf8:	607b      	str	r3, [r7, #4]
 8002cfa:	687b      	ldr	r3, [r7, #4]
 8002cfc:	2b0f      	cmp	r3, #15
 8002cfe:	dddb      	ble.n	8002cb8 <EXTI15_10_IRQHandler+0xc>
        }
    }
}
 8002d00:	bf00      	nop
 8002d02:	bf00      	nop
 8002d04:	3708      	adds	r7, #8
 8002d06:	46bd      	mov	sp, r7
 8002d08:	bd80      	pop	{r7, pc}
 8002d0a:	bf00      	nop
 8002d0c:	40013c00 	.word	0x40013c00
 8002d10:	20000068 	.word	0x20000068

08002d14 <GPIO_Clock_Enable>:
 * @brief Enables the clock for a specific GPIO port.
 *
 * @param PORT Pointer to GPIO port base address.
 * @return GPIO_SUCCESS on success, GPIO_INVALID_PORT on failure.
 */
int GPIO_Clock_Enable(GPIO_TypeDef *PORT) {
 8002d14:	b480      	push	{r7}
 8002d16:	b083      	sub	sp, #12
 8002d18:	af00      	add	r7, sp, #0
 8002d1a:	6078      	str	r0, [r7, #4]
    switch ((uint32_t)PORT) {
 8002d1c:	687b      	ldr	r3, [r7, #4]
 8002d1e:	4a30      	ldr	r2, [pc, #192]	@ (8002de0 <GPIO_Clock_Enable+0xcc>)
 8002d20:	4293      	cmp	r3, r2
 8002d22:	d04b      	beq.n	8002dbc <GPIO_Clock_Enable+0xa8>
 8002d24:	4a2e      	ldr	r2, [pc, #184]	@ (8002de0 <GPIO_Clock_Enable+0xcc>)
 8002d26:	4293      	cmp	r3, r2
 8002d28:	d84f      	bhi.n	8002dca <GPIO_Clock_Enable+0xb6>
 8002d2a:	4a2e      	ldr	r2, [pc, #184]	@ (8002de4 <GPIO_Clock_Enable+0xd0>)
 8002d2c:	4293      	cmp	r3, r2
 8002d2e:	d03e      	beq.n	8002dae <GPIO_Clock_Enable+0x9a>
 8002d30:	4a2c      	ldr	r2, [pc, #176]	@ (8002de4 <GPIO_Clock_Enable+0xd0>)
 8002d32:	4293      	cmp	r3, r2
 8002d34:	d849      	bhi.n	8002dca <GPIO_Clock_Enable+0xb6>
 8002d36:	4a2c      	ldr	r2, [pc, #176]	@ (8002de8 <GPIO_Clock_Enable+0xd4>)
 8002d38:	4293      	cmp	r3, r2
 8002d3a:	d031      	beq.n	8002da0 <GPIO_Clock_Enable+0x8c>
 8002d3c:	4a2a      	ldr	r2, [pc, #168]	@ (8002de8 <GPIO_Clock_Enable+0xd4>)
 8002d3e:	4293      	cmp	r3, r2
 8002d40:	d843      	bhi.n	8002dca <GPIO_Clock_Enable+0xb6>
 8002d42:	4a2a      	ldr	r2, [pc, #168]	@ (8002dec <GPIO_Clock_Enable+0xd8>)
 8002d44:	4293      	cmp	r3, r2
 8002d46:	d024      	beq.n	8002d92 <GPIO_Clock_Enable+0x7e>
 8002d48:	4a28      	ldr	r2, [pc, #160]	@ (8002dec <GPIO_Clock_Enable+0xd8>)
 8002d4a:	4293      	cmp	r3, r2
 8002d4c:	d83d      	bhi.n	8002dca <GPIO_Clock_Enable+0xb6>
 8002d4e:	4a28      	ldr	r2, [pc, #160]	@ (8002df0 <GPIO_Clock_Enable+0xdc>)
 8002d50:	4293      	cmp	r3, r2
 8002d52:	d017      	beq.n	8002d84 <GPIO_Clock_Enable+0x70>
 8002d54:	4a26      	ldr	r2, [pc, #152]	@ (8002df0 <GPIO_Clock_Enable+0xdc>)
 8002d56:	4293      	cmp	r3, r2
 8002d58:	d837      	bhi.n	8002dca <GPIO_Clock_Enable+0xb6>
 8002d5a:	4a26      	ldr	r2, [pc, #152]	@ (8002df4 <GPIO_Clock_Enable+0xe0>)
 8002d5c:	4293      	cmp	r3, r2
 8002d5e:	d003      	beq.n	8002d68 <GPIO_Clock_Enable+0x54>
 8002d60:	4a25      	ldr	r2, [pc, #148]	@ (8002df8 <GPIO_Clock_Enable+0xe4>)
 8002d62:	4293      	cmp	r3, r2
 8002d64:	d007      	beq.n	8002d76 <GPIO_Clock_Enable+0x62>
 8002d66:	e030      	b.n	8002dca <GPIO_Clock_Enable+0xb6>
        case (uint32_t)GPIOA: RCC->AHB1ENR |= RCC_AHB1ENR_GPIOAEN; break;
 8002d68:	4b24      	ldr	r3, [pc, #144]	@ (8002dfc <GPIO_Clock_Enable+0xe8>)
 8002d6a:	6b1b      	ldr	r3, [r3, #48]	@ 0x30
 8002d6c:	4a23      	ldr	r2, [pc, #140]	@ (8002dfc <GPIO_Clock_Enable+0xe8>)
 8002d6e:	f043 0301 	orr.w	r3, r3, #1
 8002d72:	6313      	str	r3, [r2, #48]	@ 0x30
 8002d74:	e02c      	b.n	8002dd0 <GPIO_Clock_Enable+0xbc>
        case (uint32_t)GPIOB: RCC->AHB1ENR |= RCC_AHB1ENR_GPIOBEN; break;
 8002d76:	4b21      	ldr	r3, [pc, #132]	@ (8002dfc <GPIO_Clock_Enable+0xe8>)
 8002d78:	6b1b      	ldr	r3, [r3, #48]	@ 0x30
 8002d7a:	4a20      	ldr	r2, [pc, #128]	@ (8002dfc <GPIO_Clock_Enable+0xe8>)
 8002d7c:	f043 0302 	orr.w	r3, r3, #2
 8002d80:	6313      	str	r3, [r2, #48]	@ 0x30
 8002d82:	e025      	b.n	8002dd0 <GPIO_Clock_Enable+0xbc>
        case (uint32_t)GPIOC: RCC->AHB1ENR |= RCC_AHB1ENR_GPIOCEN; break;
 8002d84:	4b1d      	ldr	r3, [pc, #116]	@ (8002dfc <GPIO_Clock_Enable+0xe8>)
 8002d86:	6b1b      	ldr	r3, [r3, #48]	@ 0x30
 8002d88:	4a1c      	ldr	r2, [pc, #112]	@ (8002dfc <GPIO_Clock_Enable+0xe8>)
 8002d8a:	f043 0304 	orr.w	r3, r3, #4
 8002d8e:	6313      	str	r3, [r2, #48]	@ 0x30
 8002d90:	e01e      	b.n	8002dd0 <GPIO_Clock_Enable+0xbc>
        case (uint32_t)GPIOD: RCC->AHB1ENR |= RCC_AHB1ENR_GPIODEN; break;
 8002d92:	4b1a      	ldr	r3, [pc, #104]	@ (8002dfc <GPIO_Clock_Enable+0xe8>)
 8002d94:	6b1b      	ldr	r3, [r3, #48]	@ 0x30
 8002d96:	4a19      	ldr	r2, [pc, #100]	@ (8002dfc <GPIO_Clock_Enable+0xe8>)
 8002d98:	f043 0308 	orr.w	r3, r3, #8
 8002d9c:	6313      	str	r3, [r2, #48]	@ 0x30
 8002d9e:	e017      	b.n	8002dd0 <GPIO_Clock_Enable+0xbc>
        case (uint32_t)GPIOE: RCC->AHB1ENR |= RCC_AHB1ENR_GPIOEEN; break;
 8002da0:	4b16      	ldr	r3, [pc, #88]	@ (8002dfc <GPIO_Clock_Enable+0xe8>)
 8002da2:	6b1b      	ldr	r3, [r3, #48]	@ 0x30
 8002da4:	4a15      	ldr	r2, [pc, #84]	@ (8002dfc <GPIO_Clock_Enable+0xe8>)
 8002da6:	f043 0310 	orr.w	r3, r3, #16
 8002daa:	6313      	str	r3, [r2, #48]	@ 0x30
 8002dac:	e010      	b.n	8002dd0 <GPIO_Clock_Enable+0xbc>
        case (uint32_t)GPIOF: RCC->AHB1ENR |= RCC_AHB1ENR_GPIOFEN; break;
 8002dae:	4b13      	ldr	r3, [pc, #76]	@ (8002dfc <GPIO_Clock_Enable+0xe8>)
 8002db0:	6b1b      	ldr	r3, [r3, #48]	@ 0x30
 8002db2:	4a12      	ldr	r2, [pc, #72]	@ (8002dfc <GPIO_Clock_Enable+0xe8>)
 8002db4:	f043 0320 	orr.w	r3, r3, #32
 8002db8:	6313      	str	r3, [r2, #48]	@ 0x30
 8002dba:	e009      	b.n	8002dd0 <GPIO_Clock_Enable+0xbc>
        case (uint32_t)GPIOH: RCC->AHB1ENR |= RCC_AHB1ENR_GPIOHEN; break;
 8002dbc:	4b0f      	ldr	r3, [pc, #60]	@ (8002dfc <GPIO_Clock_Enable+0xe8>)
 8002dbe:	6b1b      	ldr	r3, [r3, #48]	@ 0x30
 8002dc0:	4a0e      	ldr	r2, [pc, #56]	@ (8002dfc <GPIO_Clock_Enable+0xe8>)
 8002dc2:	f043 0380 	orr.w	r3, r3, #128	@ 0x80
 8002dc6:	6313      	str	r3, [r2, #48]	@ 0x30
 8002dc8:	e002      	b.n	8002dd0 <GPIO_Clock_Enable+0xbc>
        default: return GPIO_INVALID_PORT;
 8002dca:	f04f 33ff 	mov.w	r3, #4294967295
 8002dce:	e000      	b.n	8002dd2 <GPIO_Clock_Enable+0xbe>
    }
    return GPIO_SUCCESS;
 8002dd0:	2300      	movs	r3, #0
}
 8002dd2:	4618      	mov	r0, r3
 8002dd4:	370c      	adds	r7, #12
 8002dd6:	46bd      	mov	sp, r7
 8002dd8:	f85d 7b04 	ldr.w	r7, [sp], #4
 8002ddc:	4770      	bx	lr
 8002dde:	bf00      	nop
 8002de0:	40021c00 	.word	0x40021c00
 8002de4:	40021400 	.word	0x40021400
 8002de8:	40021000 	.word	0x40021000
 8002dec:	40020c00 	.word	0x40020c00
 8002df0:	40020800 	.word	0x40020800
 8002df4:	40020000 	.word	0x40020000
 8002df8:	40020400 	.word	0x40020400
 8002dfc:	40023800 	.word	0x40023800

08002e00 <GPIO_Pin_Init>:


GPIO_Status GPIO_Pin_Init(GPIO_TypeDef *Port, uint8_t pin, uint8_t mode, uint8_t output_type, uint8_t speed, uint8_t pull, uint8_t alternate_function) {
 8002e00:	b580      	push	{r7, lr}
 8002e02:	b082      	sub	sp, #8
 8002e04:	af00      	add	r7, sp, #0
 8002e06:	6078      	str	r0, [r7, #4]
 8002e08:	4608      	mov	r0, r1
 8002e0a:	4611      	mov	r1, r2
 8002e0c:	461a      	mov	r2, r3
 8002e0e:	4603      	mov	r3, r0
 8002e10:	70fb      	strb	r3, [r7, #3]
 8002e12:	460b      	mov	r3, r1
 8002e14:	70bb      	strb	r3, [r7, #2]
 8002e16:	4613      	mov	r3, r2
 8002e18:	707b      	strb	r3, [r7, #1]
//    if (pin > 15 || mode > 3 || speed > 3 || pull > 2) return GPIO_INVALID_PIN;

    GPIO_Clock_Enable(Port);
 8002e1a:	6878      	ldr	r0, [r7, #4]
 8002e1c:	f7ff ff7a 	bl	8002d14 <GPIO_Clock_Enable>

    // Reset and set mode
    Port->MODER &= ~(3 << PIN_POS(pin));
 8002e20:	687b      	ldr	r3, [r7, #4]
 8002e22:	681b      	ldr	r3, [r3, #0]
 8002e24:	78fa      	ldrb	r2, [r7, #3]
 8002e26:	0052      	lsls	r2, r2, #1
 8002e28:	2103      	movs	r1, #3
 8002e2a:	fa01 f202 	lsl.w	r2, r1, r2
 8002e2e:	43d2      	mvns	r2, r2
 8002e30:	401a      	ands	r2, r3
 8002e32:	687b      	ldr	r3, [r7, #4]
 8002e34:	601a      	str	r2, [r3, #0]
    Port->MODER |= mode << PIN_POS(pin);
 8002e36:	687b      	ldr	r3, [r7, #4]
 8002e38:	681b      	ldr	r3, [r3, #0]
 8002e3a:	78b9      	ldrb	r1, [r7, #2]
 8002e3c:	78fa      	ldrb	r2, [r7, #3]
 8002e3e:	0052      	lsls	r2, r2, #1
 8002e40:	fa01 f202 	lsl.w	r2, r1, r2
 8002e44:	431a      	orrs	r2, r3
 8002e46:	687b      	ldr	r3, [r7, #4]
 8002e48:	601a      	str	r2, [r3, #0]

    // Reset and set output type
    Port->OTYPER &= ~(1 << pin);
 8002e4a:	687b      	ldr	r3, [r7, #4]
 8002e4c:	685b      	ldr	r3, [r3, #4]
 8002e4e:	78fa      	ldrb	r2, [r7, #3]
 8002e50:	2101      	movs	r1, #1
 8002e52:	fa01 f202 	lsl.w	r2, r1, r2
 8002e56:	43d2      	mvns	r2, r2
 8002e58:	401a      	ands	r2, r3
 8002e5a:	687b      	ldr	r3, [r7, #4]
 8002e5c:	605a      	str	r2, [r3, #4]
    if (output_type != GPIO_Configuration.Output_Type.None) {
 8002e5e:	2202      	movs	r2, #2
 8002e60:	787b      	ldrb	r3, [r7, #1]
 8002e62:	4293      	cmp	r3, r2
 8002e64:	d008      	beq.n	8002e78 <GPIO_Pin_Init+0x78>
        Port->OTYPER |= output_type << pin;
 8002e66:	687b      	ldr	r3, [r7, #4]
 8002e68:	685b      	ldr	r3, [r3, #4]
 8002e6a:	7879      	ldrb	r1, [r7, #1]
 8002e6c:	78fa      	ldrb	r2, [r7, #3]
 8002e6e:	fa01 f202 	lsl.w	r2, r1, r2
 8002e72:	431a      	orrs	r2, r3
 8002e74:	687b      	ldr	r3, [r7, #4]
 8002e76:	605a      	str	r2, [r3, #4]
    }

    // Reset and set speed
    Port->OSPEEDR &= ~(3 << PIN_POS(pin));
 8002e78:	687b      	ldr	r3, [r7, #4]
 8002e7a:	689b      	ldr	r3, [r3, #8]
 8002e7c:	78fa      	ldrb	r2, [r7, #3]
 8002e7e:	0052      	lsls	r2, r2, #1
 8002e80:	2103      	movs	r1, #3
 8002e82:	fa01 f202 	lsl.w	r2, r1, r2
 8002e86:	43d2      	mvns	r2, r2
 8002e88:	401a      	ands	r2, r3
 8002e8a:	687b      	ldr	r3, [r7, #4]
 8002e8c:	609a      	str	r2, [r3, #8]
    if (speed != GPIO_Configuration.Speed.None) {
 8002e8e:	2204      	movs	r2, #4
 8002e90:	7c3b      	ldrb	r3, [r7, #16]
 8002e92:	4293      	cmp	r3, r2
 8002e94:	d009      	beq.n	8002eaa <GPIO_Pin_Init+0xaa>
        Port->OSPEEDR |= speed << PIN_POS(pin);
 8002e96:	687b      	ldr	r3, [r7, #4]
 8002e98:	689b      	ldr	r3, [r3, #8]
 8002e9a:	7c39      	ldrb	r1, [r7, #16]
 8002e9c:	78fa      	ldrb	r2, [r7, #3]
 8002e9e:	0052      	lsls	r2, r2, #1
 8002ea0:	fa01 f202 	lsl.w	r2, r1, r2
 8002ea4:	431a      	orrs	r2, r3
 8002ea6:	687b      	ldr	r3, [r7, #4]
 8002ea8:	609a      	str	r2, [r3, #8]
    }

    // Reset and set pull-up/pull-down
    Port->PUPDR &= ~(3 << PIN_POS(pin));
 8002eaa:	687b      	ldr	r3, [r7, #4]
 8002eac:	68db      	ldr	r3, [r3, #12]
 8002eae:	78fa      	ldrb	r2, [r7, #3]
 8002eb0:	0052      	lsls	r2, r2, #1
 8002eb2:	2103      	movs	r1, #3
 8002eb4:	fa01 f202 	lsl.w	r2, r1, r2
 8002eb8:	43d2      	mvns	r2, r2
 8002eba:	401a      	ands	r2, r3
 8002ebc:	687b      	ldr	r3, [r7, #4]
 8002ebe:	60da      	str	r2, [r3, #12]
    if (pull != GPIO_Configuration.Pull.None) {
 8002ec0:	2204      	movs	r2, #4
 8002ec2:	7d3b      	ldrb	r3, [r7, #20]
 8002ec4:	4293      	cmp	r3, r2
 8002ec6:	d009      	beq.n	8002edc <GPIO_Pin_Init+0xdc>
        Port->PUPDR |= pull << PIN_POS(pin);
 8002ec8:	687b      	ldr	r3, [r7, #4]
 8002eca:	68db      	ldr	r3, [r3, #12]
 8002ecc:	7d39      	ldrb	r1, [r7, #20]
 8002ece:	78fa      	ldrb	r2, [r7, #3]
 8002ed0:	0052      	lsls	r2, r2, #1
 8002ed2:	fa01 f202 	lsl.w	r2, r1, r2
 8002ed6:	431a      	orrs	r2, r3
 8002ed8:	687b      	ldr	r3, [r7, #4]
 8002eda:	60da      	str	r2, [r3, #12]
    }

    // Set alternate function
    if (mode == GPIO_Configuration.Mode.Alternate_Function) {
 8002edc:	2202      	movs	r2, #2
 8002ede:	78bb      	ldrb	r3, [r7, #2]
 8002ee0:	4293      	cmp	r3, r2
 8002ee2:	d12f      	bne.n	8002f44 <GPIO_Pin_Init+0x144>
        if (pin < GPIO_AF_SPLIT_POINT) {
 8002ee4:	78fb      	ldrb	r3, [r7, #3]
 8002ee6:	2b07      	cmp	r3, #7
 8002ee8:	d815      	bhi.n	8002f16 <GPIO_Pin_Init+0x116>
            Port->AFR[0] &= ~(0xF << (pin * 4));
 8002eea:	687b      	ldr	r3, [r7, #4]
 8002eec:	6a1b      	ldr	r3, [r3, #32]
 8002eee:	78fa      	ldrb	r2, [r7, #3]
 8002ef0:	0092      	lsls	r2, r2, #2
 8002ef2:	210f      	movs	r1, #15
 8002ef4:	fa01 f202 	lsl.w	r2, r1, r2
 8002ef8:	43d2      	mvns	r2, r2
 8002efa:	401a      	ands	r2, r3
 8002efc:	687b      	ldr	r3, [r7, #4]
 8002efe:	621a      	str	r2, [r3, #32]
            Port->AFR[0] |= alternate_function << (pin * 4);
 8002f00:	687b      	ldr	r3, [r7, #4]
 8002f02:	6a1b      	ldr	r3, [r3, #32]
 8002f04:	7e39      	ldrb	r1, [r7, #24]
 8002f06:	78fa      	ldrb	r2, [r7, #3]
 8002f08:	0092      	lsls	r2, r2, #2
 8002f0a:	fa01 f202 	lsl.w	r2, r1, r2
 8002f0e:	431a      	orrs	r2, r3
 8002f10:	687b      	ldr	r3, [r7, #4]
 8002f12:	621a      	str	r2, [r3, #32]
 8002f14:	e016      	b.n	8002f44 <GPIO_Pin_Init+0x144>
        } else {
            Port->AFR[1] &= ~(0xF << ((pin - GPIO_AF_SPLIT_POINT) * 4));
 8002f16:	687b      	ldr	r3, [r7, #4]
 8002f18:	6a5b      	ldr	r3, [r3, #36]	@ 0x24
 8002f1a:	78fa      	ldrb	r2, [r7, #3]
 8002f1c:	3a08      	subs	r2, #8
 8002f1e:	0092      	lsls	r2, r2, #2
 8002f20:	210f      	movs	r1, #15
 8002f22:	fa01 f202 	lsl.w	r2, r1, r2
 8002f26:	43d2      	mvns	r2, r2
 8002f28:	401a      	ands	r2, r3
 8002f2a:	687b      	ldr	r3, [r7, #4]
 8002f2c:	625a      	str	r2, [r3, #36]	@ 0x24
            Port->AFR[1] |= alternate_function << ((pin - GPIO_AF_SPLIT_POINT) * 4);
 8002f2e:	687b      	ldr	r3, [r7, #4]
 8002f30:	6a5b      	ldr	r3, [r3, #36]	@ 0x24
 8002f32:	7e39      	ldrb	r1, [r7, #24]
 8002f34:	78fa      	ldrb	r2, [r7, #3]
 8002f36:	3a08      	subs	r2, #8
 8002f38:	0092      	lsls	r2, r2, #2
 8002f3a:	fa01 f202 	lsl.w	r2, r1, r2
 8002f3e:	431a      	orrs	r2, r3
 8002f40:	687b      	ldr	r3, [r7, #4]
 8002f42:	625a      	str	r2, [r3, #36]	@ 0x24
        }
    }

    return GPIO_SUCCESS;
 8002f44:	2300      	movs	r3, #0
}
 8002f46:	4618      	mov	r0, r3
 8002f48:	3708      	adds	r7, #8
 8002f4a:	46bd      	mov	sp, r7
 8002f4c:	bd80      	pop	{r7, pc}
	...

08002f50 <SPI1_TX_ISR>:

volatile bool TX_Complete = 0;
volatile bool RX_Complete = 0;

void SPI1_TX_ISR()
{
 8002f50:	b480      	push	{r7}
 8002f52:	af00      	add	r7, sp, #0
	TX_Complete = 1;
 8002f54:	4b03      	ldr	r3, [pc, #12]	@ (8002f64 <SPI1_TX_ISR+0x14>)
 8002f56:	2201      	movs	r2, #1
 8002f58:	701a      	strb	r2, [r3, #0]
}
 8002f5a:	bf00      	nop
 8002f5c:	46bd      	mov	sp, r7
 8002f5e:	f85d 7b04 	ldr.w	r7, [sp], #4
 8002f62:	4770      	bx	lr
 8002f64:	200000a8 	.word	0x200000a8

08002f68 <SPI1_RX_ISR>:

void SPI1_RX_ISR()
{
 8002f68:	b480      	push	{r7}
 8002f6a:	af00      	add	r7, sp, #0
	RX_Complete = 1;
 8002f6c:	4b03      	ldr	r3, [pc, #12]	@ (8002f7c <SPI1_RX_ISR+0x14>)
 8002f6e:	2201      	movs	r2, #1
 8002f70:	701a      	strb	r2, [r3, #0]
}
 8002f72:	bf00      	nop
 8002f74:	46bd      	mov	sp, r7
 8002f76:	f85d 7b04 	ldr.w	r7, [sp], #4
 8002f7a:	4770      	bx	lr
 8002f7c:	200000a9 	.word	0x200000a9

08002f80 <xDMA1_TX_Init>:
 * @brief Initializes the DMA for SPI1 TX.
 *
 * Configures and initializes the DMA channel for transmitting data via SPI1.
 */
static void xDMA1_TX_Init()
{
 8002f80:	b598      	push	{r3, r4, r7, lr}
 8002f82:	af00      	add	r7, sp, #0
	xDMA1_TX.Request = DMA_Configuration.Request.SPI1_TX;
 8002f84:	4a14      	ldr	r2, [pc, #80]	@ (8002fd8 <xDMA1_TX_Init+0x58>)
 8002f86:	4b15      	ldr	r3, [pc, #84]	@ (8002fdc <xDMA1_TX_Init+0x5c>)
 8002f88:	4614      	mov	r4, r2
 8002f8a:	333c      	adds	r3, #60	@ 0x3c
 8002f8c:	e893 0007 	ldmia.w	r3, {r0, r1, r2}
 8002f90:	e884 0007 	stmia.w	r4, {r0, r1, r2}
	xDMA1_TX.transfer_direction = DMA_Configuration.Transfer_Direction.Memory_to_peripheral;
 8002f94:	2240      	movs	r2, #64	@ 0x40
 8002f96:	4b10      	ldr	r3, [pc, #64]	@ (8002fd8 <xDMA1_TX_Init+0x58>)
 8002f98:	611a      	str	r2, [r3, #16]
	xDMA1_TX.circular_mode = DMA_Configuration.Circular_Mode.Disable;
 8002f9a:	2200      	movs	r2, #0
 8002f9c:	4b0e      	ldr	r3, [pc, #56]	@ (8002fd8 <xDMA1_TX_Init+0x58>)
 8002f9e:	619a      	str	r2, [r3, #24]
	xDMA1_TX.flow_control = DMA_Configuration.Flow_Control.DMA_Control;
 8002fa0:	2200      	movs	r2, #0
 8002fa2:	4b0d      	ldr	r3, [pc, #52]	@ (8002fd8 <xDMA1_TX_Init+0x58>)
 8002fa4:	60da      	str	r2, [r3, #12]
	xDMA1_TX.interrupts = DMA_Configuration.DMA_Interrupts.Transfer_Complete;
 8002fa6:	2210      	movs	r2, #16
 8002fa8:	4b0b      	ldr	r3, [pc, #44]	@ (8002fd8 <xDMA1_TX_Init+0x58>)
 8002faa:	61da      	str	r2, [r3, #28]
	xDMA1_TX.peripheral_pointer_increment = DMA_Configuration.Peripheral_Pointer_Increment.Disable;
 8002fac:	2300      	movs	r3, #0
 8002fae:	b29a      	uxth	r2, r3
 8002fb0:	4b09      	ldr	r3, [pc, #36]	@ (8002fd8 <xDMA1_TX_Init+0x58>)
 8002fb2:	845a      	strh	r2, [r3, #34]	@ 0x22
	xDMA1_TX.memory_pointer_increment = DMA_Configuration.Memory_Pointer_Increment.Enable;
 8002fb4:	f44f 6380 	mov.w	r3, #1024	@ 0x400
 8002fb8:	b29a      	uxth	r2, r3
 8002fba:	4b07      	ldr	r3, [pc, #28]	@ (8002fd8 <xDMA1_TX_Init+0x58>)
 8002fbc:	841a      	strh	r2, [r3, #32]
	xDMA1_TX.priority_level = DMA_Configuration.Priority_Level.Very_high;
 8002fbe:	f44f 3240 	mov.w	r2, #196608	@ 0x30000
 8002fc2:	4b05      	ldr	r3, [pc, #20]	@ (8002fd8 <xDMA1_TX_Init+0x58>)
 8002fc4:	615a      	str	r2, [r3, #20]
	xDMA1_TX.ISR_Routines.Full_Transfer_Commplete_ISR = SPI1_TX_ISR;
 8002fc6:	4b04      	ldr	r3, [pc, #16]	@ (8002fd8 <xDMA1_TX_Init+0x58>)
 8002fc8:	4a05      	ldr	r2, [pc, #20]	@ (8002fe0 <xDMA1_TX_Init+0x60>)
 8002fca:	64da      	str	r2, [r3, #76]	@ 0x4c
	DMA_Init(&xDMA1_TX);
 8002fcc:	4802      	ldr	r0, [pc, #8]	@ (8002fd8 <xDMA1_TX_Init+0x58>)
 8002fce:	f7ff fbd9 	bl	8002784 <DMA_Init>
}
 8002fd2:	bf00      	nop
 8002fd4:	bd98      	pop	{r3, r4, r7, pc}
 8002fd6:	bf00      	nop
 8002fd8:	200000ac 	.word	0x200000ac
 8002fdc:	08005bec 	.word	0x08005bec
 8002fe0:	08002f51 	.word	0x08002f51

08002fe4 <xDMA2_TX_Init>:
 * @brief Initializes the DMA for SPI2 TX.
 *
 * Configures and initializes the DMA channel for transmitting data via SPI2.
 */
static void xDMA2_TX_Init()
{
 8002fe4:	b598      	push	{r3, r4, r7, lr}
 8002fe6:	af00      	add	r7, sp, #0
	xDMA2_TX.Request = DMA_Configuration.Request.SPI2_TX;
 8002fe8:	4a12      	ldr	r2, [pc, #72]	@ (8003034 <xDMA2_TX_Init+0x50>)
 8002fea:	4b13      	ldr	r3, [pc, #76]	@ (8003038 <xDMA2_TX_Init+0x54>)
 8002fec:	4614      	mov	r4, r2
 8002fee:	3324      	adds	r3, #36	@ 0x24
 8002ff0:	e893 0007 	ldmia.w	r3, {r0, r1, r2}
 8002ff4:	e884 0007 	stmia.w	r4, {r0, r1, r2}
	xDMA2_TX.transfer_direction = DMA_Configuration.Transfer_Direction.Memory_to_peripheral;
 8002ff8:	2240      	movs	r2, #64	@ 0x40
 8002ffa:	4b0e      	ldr	r3, [pc, #56]	@ (8003034 <xDMA2_TX_Init+0x50>)
 8002ffc:	611a      	str	r2, [r3, #16]
	xDMA2_TX.circular_mode = DMA_Configuration.Circular_Mode.Disable;
 8002ffe:	2200      	movs	r2, #0
 8003000:	4b0c      	ldr	r3, [pc, #48]	@ (8003034 <xDMA2_TX_Init+0x50>)
 8003002:	619a      	str	r2, [r3, #24]
	xDMA2_TX.flow_control = DMA_Configuration.Flow_Control.DMA_Control;
 8003004:	2200      	movs	r2, #0
 8003006:	4b0b      	ldr	r3, [pc, #44]	@ (8003034 <xDMA2_TX_Init+0x50>)
 8003008:	60da      	str	r2, [r3, #12]
	xDMA2_TX.interrupts = DMA_Configuration.DMA_Interrupts.Disable;
 800300a:	2200      	movs	r2, #0
 800300c:	4b09      	ldr	r3, [pc, #36]	@ (8003034 <xDMA2_TX_Init+0x50>)
 800300e:	61da      	str	r2, [r3, #28]
	xDMA2_TX.peripheral_pointer_increment = DMA_Configuration.Peripheral_Pointer_Increment.Disable;
 8003010:	2300      	movs	r3, #0
 8003012:	b29a      	uxth	r2, r3
 8003014:	4b07      	ldr	r3, [pc, #28]	@ (8003034 <xDMA2_TX_Init+0x50>)
 8003016:	845a      	strh	r2, [r3, #34]	@ 0x22
	xDMA2_TX.memory_pointer_increment = DMA_Configuration.Memory_Pointer_Increment.Enable;
 8003018:	f44f 6380 	mov.w	r3, #1024	@ 0x400
 800301c:	b29a      	uxth	r2, r3
 800301e:	4b05      	ldr	r3, [pc, #20]	@ (8003034 <xDMA2_TX_Init+0x50>)
 8003020:	841a      	strh	r2, [r3, #32]
	xDMA2_TX.priority_level = DMA_Configuration.Priority_Level.Very_high;
 8003022:	f44f 3240 	mov.w	r2, #196608	@ 0x30000
 8003026:	4b03      	ldr	r3, [pc, #12]	@ (8003034 <xDMA2_TX_Init+0x50>)
 8003028:	615a      	str	r2, [r3, #20]

	DMA_Init(&xDMA2_TX);
 800302a:	4802      	ldr	r0, [pc, #8]	@ (8003034 <xDMA2_TX_Init+0x50>)
 800302c:	f7ff fbaa 	bl	8002784 <DMA_Init>
}
 8003030:	bf00      	nop
 8003032:	bd98      	pop	{r3, r4, r7, pc}
 8003034:	2000015c 	.word	0x2000015c
 8003038:	08005bec 	.word	0x08005bec

0800303c <xDMA3_TX_Init>:

static void xDMA3_TX_Init()
{
 800303c:	b598      	push	{r3, r4, r7, lr}
 800303e:	af00      	add	r7, sp, #0
	xDMA3_TX.Request = DMA_Configuration.Request.SPI3_TX;
 8003040:	4a12      	ldr	r2, [pc, #72]	@ (800308c <xDMA3_TX_Init+0x50>)
 8003042:	4b13      	ldr	r3, [pc, #76]	@ (8003090 <xDMA3_TX_Init+0x54>)
 8003044:	4614      	mov	r4, r2
 8003046:	330c      	adds	r3, #12
 8003048:	e893 0007 	ldmia.w	r3, {r0, r1, r2}
 800304c:	e884 0007 	stmia.w	r4, {r0, r1, r2}
	xDMA3_TX.transfer_direction = DMA_Configuration.Transfer_Direction.Memory_to_peripheral;
 8003050:	2240      	movs	r2, #64	@ 0x40
 8003052:	4b0e      	ldr	r3, [pc, #56]	@ (800308c <xDMA3_TX_Init+0x50>)
 8003054:	611a      	str	r2, [r3, #16]
	xDMA3_TX.circular_mode = DMA_Configuration.Circular_Mode.Disable;
 8003056:	2200      	movs	r2, #0
 8003058:	4b0c      	ldr	r3, [pc, #48]	@ (800308c <xDMA3_TX_Init+0x50>)
 800305a:	619a      	str	r2, [r3, #24]
	xDMA3_TX.flow_control = DMA_Configuration.Flow_Control.DMA_Control;
 800305c:	2200      	movs	r2, #0
 800305e:	4b0b      	ldr	r3, [pc, #44]	@ (800308c <xDMA3_TX_Init+0x50>)
 8003060:	60da      	str	r2, [r3, #12]
	xDMA3_TX.interrupts = DMA_Configuration.DMA_Interrupts.Disable;
 8003062:	2200      	movs	r2, #0
 8003064:	4b09      	ldr	r3, [pc, #36]	@ (800308c <xDMA3_TX_Init+0x50>)
 8003066:	61da      	str	r2, [r3, #28]
	xDMA3_TX.peripheral_pointer_increment = DMA_Configuration.Peripheral_Pointer_Increment.Disable;
 8003068:	2300      	movs	r3, #0
 800306a:	b29a      	uxth	r2, r3
 800306c:	4b07      	ldr	r3, [pc, #28]	@ (800308c <xDMA3_TX_Init+0x50>)
 800306e:	845a      	strh	r2, [r3, #34]	@ 0x22
	xDMA3_TX.memory_pointer_increment = DMA_Configuration.Memory_Pointer_Increment.Enable;
 8003070:	f44f 6380 	mov.w	r3, #1024	@ 0x400
 8003074:	b29a      	uxth	r2, r3
 8003076:	4b05      	ldr	r3, [pc, #20]	@ (800308c <xDMA3_TX_Init+0x50>)
 8003078:	841a      	strh	r2, [r3, #32]
	xDMA3_TX.priority_level = DMA_Configuration.Priority_Level.Very_high;
 800307a:	f44f 3240 	mov.w	r2, #196608	@ 0x30000
 800307e:	4b03      	ldr	r3, [pc, #12]	@ (800308c <xDMA3_TX_Init+0x50>)
 8003080:	615a      	str	r2, [r3, #20]
	DMA_Init(&xDMA3_TX);
 8003082:	4802      	ldr	r0, [pc, #8]	@ (800308c <xDMA3_TX_Init+0x50>)
 8003084:	f7ff fb7e 	bl	8002784 <DMA_Init>
}
 8003088:	bf00      	nop
 800308a:	bd98      	pop	{r3, r4, r7, pc}
 800308c:	2000020c 	.word	0x2000020c
 8003090:	08005bec 	.word	0x08005bec

08003094 <xDMA1_RX_Init>:
 * @brief Initializes the DMA for SPI3 TX.
 *
 * Configures and initializes the DMA channel for transmitting data via SPI3.
 */
static void xDMA1_RX_Init()
{
 8003094:	b598      	push	{r3, r4, r7, lr}
 8003096:	af00      	add	r7, sp, #0
	xDMA1_RX.Request = DMA_Configuration.Request.SPI1_RX;
 8003098:	4a14      	ldr	r2, [pc, #80]	@ (80030ec <xDMA1_RX_Init+0x58>)
 800309a:	4b15      	ldr	r3, [pc, #84]	@ (80030f0 <xDMA1_RX_Init+0x5c>)
 800309c:	4614      	mov	r4, r2
 800309e:	3330      	adds	r3, #48	@ 0x30
 80030a0:	e893 0007 	ldmia.w	r3, {r0, r1, r2}
 80030a4:	e884 0007 	stmia.w	r4, {r0, r1, r2}
	xDMA1_RX.transfer_direction = DMA_Configuration.Transfer_Direction.Peripheral_to_memory;
 80030a8:	2200      	movs	r2, #0
 80030aa:	4b10      	ldr	r3, [pc, #64]	@ (80030ec <xDMA1_RX_Init+0x58>)
 80030ac:	611a      	str	r2, [r3, #16]
	xDMA1_RX.circular_mode = DMA_Configuration.Circular_Mode.Disable;
 80030ae:	2200      	movs	r2, #0
 80030b0:	4b0e      	ldr	r3, [pc, #56]	@ (80030ec <xDMA1_RX_Init+0x58>)
 80030b2:	619a      	str	r2, [r3, #24]
	xDMA1_RX.flow_control = DMA_Configuration.Flow_Control.DMA_Control;
 80030b4:	2200      	movs	r2, #0
 80030b6:	4b0d      	ldr	r3, [pc, #52]	@ (80030ec <xDMA1_RX_Init+0x58>)
 80030b8:	60da      	str	r2, [r3, #12]
	xDMA1_RX.interrupts = DMA_Configuration.DMA_Interrupts.Transfer_Complete;
 80030ba:	2210      	movs	r2, #16
 80030bc:	4b0b      	ldr	r3, [pc, #44]	@ (80030ec <xDMA1_RX_Init+0x58>)
 80030be:	61da      	str	r2, [r3, #28]
	xDMA1_RX.peripheral_pointer_increment = DMA_Configuration.Peripheral_Pointer_Increment.Disable;
 80030c0:	2300      	movs	r3, #0
 80030c2:	b29a      	uxth	r2, r3
 80030c4:	4b09      	ldr	r3, [pc, #36]	@ (80030ec <xDMA1_RX_Init+0x58>)
 80030c6:	845a      	strh	r2, [r3, #34]	@ 0x22
	xDMA1_RX.memory_pointer_increment = DMA_Configuration.Memory_Pointer_Increment.Enable;
 80030c8:	f44f 6380 	mov.w	r3, #1024	@ 0x400
 80030cc:	b29a      	uxth	r2, r3
 80030ce:	4b07      	ldr	r3, [pc, #28]	@ (80030ec <xDMA1_RX_Init+0x58>)
 80030d0:	841a      	strh	r2, [r3, #32]
	xDMA1_RX.priority_level = DMA_Configuration.Priority_Level.Very_high;
 80030d2:	f44f 3240 	mov.w	r2, #196608	@ 0x30000
 80030d6:	4b05      	ldr	r3, [pc, #20]	@ (80030ec <xDMA1_RX_Init+0x58>)
 80030d8:	615a      	str	r2, [r3, #20]
	xDMA1_RX.ISR_Routines.Full_Transfer_Commplete_ISR = SPI1_RX_ISR;
 80030da:	4b04      	ldr	r3, [pc, #16]	@ (80030ec <xDMA1_RX_Init+0x58>)
 80030dc:	4a05      	ldr	r2, [pc, #20]	@ (80030f4 <xDMA1_RX_Init+0x60>)
 80030de:	64da      	str	r2, [r3, #76]	@ 0x4c
	DMA_Init(&xDMA1_RX);
 80030e0:	4802      	ldr	r0, [pc, #8]	@ (80030ec <xDMA1_RX_Init+0x58>)
 80030e2:	f7ff fb4f 	bl	8002784 <DMA_Init>
}
 80030e6:	bf00      	nop
 80030e8:	bd98      	pop	{r3, r4, r7, pc}
 80030ea:	bf00      	nop
 80030ec:	20000104 	.word	0x20000104
 80030f0:	08005bec 	.word	0x08005bec
 80030f4:	08002f69 	.word	0x08002f69

080030f8 <xDMA2_RX_Init>:
 * @brief Initializes the DMA for SPI1 RX.
 *
 * Configures and initializes the DMA channel for receiving data via SPI1.
 */
static void xDMA2_RX_Init()
{
 80030f8:	b598      	push	{r3, r4, r7, lr}
 80030fa:	af00      	add	r7, sp, #0
	xDMA2_RX.Request = DMA_Configuration.Request.SPI2_RX;
 80030fc:	4a12      	ldr	r2, [pc, #72]	@ (8003148 <xDMA2_RX_Init+0x50>)
 80030fe:	4b13      	ldr	r3, [pc, #76]	@ (800314c <xDMA2_RX_Init+0x54>)
 8003100:	4614      	mov	r4, r2
 8003102:	3318      	adds	r3, #24
 8003104:	e893 0007 	ldmia.w	r3, {r0, r1, r2}
 8003108:	e884 0007 	stmia.w	r4, {r0, r1, r2}
	xDMA2_RX.transfer_direction = DMA_Configuration.Transfer_Direction.Memory_to_peripheral;
 800310c:	2240      	movs	r2, #64	@ 0x40
 800310e:	4b0e      	ldr	r3, [pc, #56]	@ (8003148 <xDMA2_RX_Init+0x50>)
 8003110:	611a      	str	r2, [r3, #16]
	xDMA2_RX.circular_mode = DMA_Configuration.Circular_Mode.Disable;
 8003112:	2200      	movs	r2, #0
 8003114:	4b0c      	ldr	r3, [pc, #48]	@ (8003148 <xDMA2_RX_Init+0x50>)
 8003116:	619a      	str	r2, [r3, #24]
	xDMA2_RX.flow_control = DMA_Configuration.Flow_Control.DMA_Control;
 8003118:	2200      	movs	r2, #0
 800311a:	4b0b      	ldr	r3, [pc, #44]	@ (8003148 <xDMA2_RX_Init+0x50>)
 800311c:	60da      	str	r2, [r3, #12]
	xDMA2_RX.interrupts = DMA_Configuration.DMA_Interrupts.Disable;
 800311e:	2200      	movs	r2, #0
 8003120:	4b09      	ldr	r3, [pc, #36]	@ (8003148 <xDMA2_RX_Init+0x50>)
 8003122:	61da      	str	r2, [r3, #28]
	xDMA2_RX.peripheral_pointer_increment = DMA_Configuration.Peripheral_Pointer_Increment.Disable;
 8003124:	2300      	movs	r3, #0
 8003126:	b29a      	uxth	r2, r3
 8003128:	4b07      	ldr	r3, [pc, #28]	@ (8003148 <xDMA2_RX_Init+0x50>)
 800312a:	845a      	strh	r2, [r3, #34]	@ 0x22
	xDMA2_RX.memory_pointer_increment = DMA_Configuration.Memory_Pointer_Increment.Enable;
 800312c:	f44f 6380 	mov.w	r3, #1024	@ 0x400
 8003130:	b29a      	uxth	r2, r3
 8003132:	4b05      	ldr	r3, [pc, #20]	@ (8003148 <xDMA2_RX_Init+0x50>)
 8003134:	841a      	strh	r2, [r3, #32]
	xDMA2_RX.priority_level = DMA_Configuration.Priority_Level.Very_high;
 8003136:	f44f 3240 	mov.w	r2, #196608	@ 0x30000
 800313a:	4b03      	ldr	r3, [pc, #12]	@ (8003148 <xDMA2_RX_Init+0x50>)
 800313c:	615a      	str	r2, [r3, #20]
	DMA_Init(&xDMA2_RX);
 800313e:	4802      	ldr	r0, [pc, #8]	@ (8003148 <xDMA2_RX_Init+0x50>)
 8003140:	f7ff fb20 	bl	8002784 <DMA_Init>
}
 8003144:	bf00      	nop
 8003146:	bd98      	pop	{r3, r4, r7, pc}
 8003148:	200001b4 	.word	0x200001b4
 800314c:	08005bec 	.word	0x08005bec

08003150 <xDMA3_RX_Init>:
 * @brief Initializes the DMA for SPI2 RX.
 *
 * Configures and initializes the DMA channel for receiving data via SPI2.
 */
static void xDMA3_RX_Init()
{
 8003150:	b580      	push	{r7, lr}
 8003152:	af00      	add	r7, sp, #0
	xDMA3_RX.Request = DMA_Configuration.Request.SPI3_RX;
 8003154:	4b11      	ldr	r3, [pc, #68]	@ (800319c <xDMA3_RX_Init+0x4c>)
 8003156:	4a12      	ldr	r2, [pc, #72]	@ (80031a0 <xDMA3_RX_Init+0x50>)
 8003158:	ca07      	ldmia	r2, {r0, r1, r2}
 800315a:	e883 0007 	stmia.w	r3, {r0, r1, r2}
	xDMA3_RX.transfer_direction = DMA_Configuration.Transfer_Direction.Memory_to_peripheral;
 800315e:	2240      	movs	r2, #64	@ 0x40
 8003160:	4b0e      	ldr	r3, [pc, #56]	@ (800319c <xDMA3_RX_Init+0x4c>)
 8003162:	611a      	str	r2, [r3, #16]
	xDMA3_RX.circular_mode = DMA_Configuration.Circular_Mode.Disable;
 8003164:	2200      	movs	r2, #0
 8003166:	4b0d      	ldr	r3, [pc, #52]	@ (800319c <xDMA3_RX_Init+0x4c>)
 8003168:	619a      	str	r2, [r3, #24]
	xDMA3_RX.flow_control = DMA_Configuration.Flow_Control.DMA_Control;
 800316a:	2200      	movs	r2, #0
 800316c:	4b0b      	ldr	r3, [pc, #44]	@ (800319c <xDMA3_RX_Init+0x4c>)
 800316e:	60da      	str	r2, [r3, #12]
	xDMA3_RX.interrupts = DMA_Configuration.DMA_Interrupts.Disable;
 8003170:	2200      	movs	r2, #0
 8003172:	4b0a      	ldr	r3, [pc, #40]	@ (800319c <xDMA3_RX_Init+0x4c>)
 8003174:	61da      	str	r2, [r3, #28]
	xDMA3_RX.peripheral_pointer_increment = DMA_Configuration.Peripheral_Pointer_Increment.Disable;
 8003176:	2300      	movs	r3, #0
 8003178:	b29a      	uxth	r2, r3
 800317a:	4b08      	ldr	r3, [pc, #32]	@ (800319c <xDMA3_RX_Init+0x4c>)
 800317c:	845a      	strh	r2, [r3, #34]	@ 0x22
	xDMA3_RX.memory_pointer_increment = DMA_Configuration.Memory_Pointer_Increment.Enable;
 800317e:	f44f 6380 	mov.w	r3, #1024	@ 0x400
 8003182:	b29a      	uxth	r2, r3
 8003184:	4b05      	ldr	r3, [pc, #20]	@ (800319c <xDMA3_RX_Init+0x4c>)
 8003186:	841a      	strh	r2, [r3, #32]
	xDMA3_RX.priority_level = DMA_Configuration.Priority_Level.Very_high;
 8003188:	f44f 3240 	mov.w	r2, #196608	@ 0x30000
 800318c:	4b03      	ldr	r3, [pc, #12]	@ (800319c <xDMA3_RX_Init+0x4c>)
 800318e:	615a      	str	r2, [r3, #20]
	DMA_Init(&xDMA3_RX);
 8003190:	4802      	ldr	r0, [pc, #8]	@ (800319c <xDMA3_RX_Init+0x4c>)
 8003192:	f7ff faf7 	bl	8002784 <DMA_Init>
}
 8003196:	bf00      	nop
 8003198:	bd80      	pop	{r7, pc}
 800319a:	bf00      	nop
 800319c:	20000264 	.word	0x20000264
 80031a0:	08005bec 	.word	0x08005bec

080031a4 <SPI_Clock_Enable>:
 *
 * @param[in] config Pointer to the SPI configuration structure.
 * @return int8_t Returns 0 on success, -1 on failure.
 */
int8_t SPI_Clock_Enable(SPI_Config *config)
{
 80031a4:	b480      	push	{r7}
 80031a6:	b085      	sub	sp, #20
 80031a8:	af00      	add	r7, sp, #0
 80031aa:	6078      	str	r0, [r7, #4]
	int8_t retval = 0;
 80031ac:	2300      	movs	r3, #0
 80031ae:	73fb      	strb	r3, [r7, #15]
	if(config ->Port == SPI1)RCC -> APB2ENR |= RCC_APB2ENR_SPI1EN;
 80031b0:	687b      	ldr	r3, [r7, #4]
 80031b2:	681b      	ldr	r3, [r3, #0]
 80031b4:	4a14      	ldr	r2, [pc, #80]	@ (8003208 <SPI_Clock_Enable+0x64>)
 80031b6:	4293      	cmp	r3, r2
 80031b8:	d105      	bne.n	80031c6 <SPI_Clock_Enable+0x22>
 80031ba:	4b14      	ldr	r3, [pc, #80]	@ (800320c <SPI_Clock_Enable+0x68>)
 80031bc:	6c5b      	ldr	r3, [r3, #68]	@ 0x44
 80031be:	4a13      	ldr	r2, [pc, #76]	@ (800320c <SPI_Clock_Enable+0x68>)
 80031c0:	f443 5380 	orr.w	r3, r3, #4096	@ 0x1000
 80031c4:	6453      	str	r3, [r2, #68]	@ 0x44
	if(config ->Port == SPI2)RCC -> APB1ENR |= RCC_APB1ENR_SPI2EN;
 80031c6:	687b      	ldr	r3, [r7, #4]
 80031c8:	681b      	ldr	r3, [r3, #0]
 80031ca:	4a11      	ldr	r2, [pc, #68]	@ (8003210 <SPI_Clock_Enable+0x6c>)
 80031cc:	4293      	cmp	r3, r2
 80031ce:	d105      	bne.n	80031dc <SPI_Clock_Enable+0x38>
 80031d0:	4b0e      	ldr	r3, [pc, #56]	@ (800320c <SPI_Clock_Enable+0x68>)
 80031d2:	6c1b      	ldr	r3, [r3, #64]	@ 0x40
 80031d4:	4a0d      	ldr	r2, [pc, #52]	@ (800320c <SPI_Clock_Enable+0x68>)
 80031d6:	f443 4380 	orr.w	r3, r3, #16384	@ 0x4000
 80031da:	6413      	str	r3, [r2, #64]	@ 0x40
	if(config ->Port == SPI3)RCC -> APB1ENR |= RCC_APB1ENR_SPI3EN;
 80031dc:	687b      	ldr	r3, [r7, #4]
 80031de:	681b      	ldr	r3, [r3, #0]
 80031e0:	4a0c      	ldr	r2, [pc, #48]	@ (8003214 <SPI_Clock_Enable+0x70>)
 80031e2:	4293      	cmp	r3, r2
 80031e4:	d106      	bne.n	80031f4 <SPI_Clock_Enable+0x50>
 80031e6:	4b09      	ldr	r3, [pc, #36]	@ (800320c <SPI_Clock_Enable+0x68>)
 80031e8:	6c1b      	ldr	r3, [r3, #64]	@ 0x40
 80031ea:	4a08      	ldr	r2, [pc, #32]	@ (800320c <SPI_Clock_Enable+0x68>)
 80031ec:	f443 4300 	orr.w	r3, r3, #32768	@ 0x8000
 80031f0:	6413      	str	r3, [r2, #64]	@ 0x40
 80031f2:	e001      	b.n	80031f8 <SPI_Clock_Enable+0x54>
	else
		retval = -1;
 80031f4:	23ff      	movs	r3, #255	@ 0xff
 80031f6:	73fb      	strb	r3, [r7, #15]
	return retval;
 80031f8:	f997 300f 	ldrsb.w	r3, [r7, #15]
}
 80031fc:	4618      	mov	r0, r3
 80031fe:	3714      	adds	r7, #20
 8003200:	46bd      	mov	sp, r7
 8003202:	f85d 7b04 	ldr.w	r7, [sp], #4
 8003206:	4770      	bx	lr
 8003208:	40013000 	.word	0x40013000
 800320c:	40023800 	.word	0x40023800
 8003210:	40003800 	.word	0x40003800
 8003214:	40003c00 	.word	0x40003c00

08003218 <SPI_Pin_Init>:
 * This function configures the necessary GPIO pins for the specified SPI port.
 *
 * @param[in] config Pointer to the SPI configuration structure.
 */
static void SPI_Pin_Init(SPI_Config *config)
{
 8003218:	b590      	push	{r4, r7, lr}
 800321a:	b087      	sub	sp, #28
 800321c:	af04      	add	r7, sp, #16
 800321e:	6078      	str	r0, [r7, #4]
	if(config -> Port == SPI1)
 8003220:	687b      	ldr	r3, [r7, #4]
 8003222:	681b      	ldr	r3, [r3, #0]
 8003224:	4aa2      	ldr	r2, [pc, #648]	@ (80034b0 <SPI_Pin_Init+0x298>)
 8003226:	4293      	cmp	r3, r2
 8003228:	f040 816c 	bne.w	8003504 <SPI_Pin_Init+0x2ec>
	{
		if((config->mode == SPI_Configurations.Mode.Full_Duplex_Master) || (config->mode == SPI_Configurations.Mode.Full_Duplex_Slave))
 800322c:	687b      	ldr	r3, [r7, #4]
 800322e:	891b      	ldrh	r3, [r3, #8]
 8003230:	220b      	movs	r2, #11
 8003232:	4293      	cmp	r3, r2
 8003234:	d004      	beq.n	8003240 <SPI_Pin_Init+0x28>
 8003236:	687b      	ldr	r3, [r7, #4]
 8003238:	891b      	ldrh	r3, [r3, #8]
 800323a:	220c      	movs	r2, #12
 800323c:	4293      	cmp	r3, r2
 800323e:	d17d      	bne.n	800333c <SPI_Pin_Init+0x124>
		{
			if(config->clock_pin == SPI_Configurations.Pin._SPI1_.CLK1.PA5) GPIO_Pin_Init(GPIOA, 5, GPIO_Configuration.Mode.Alternate_Function, GPIO_Configuration.Output_Type.Push_Pull, GPIO_Configuration.Speed.Very_High_Speed, GPIO_Configuration.Pull.No_Pull_Up_Down, GPIO_Configuration.Alternate_Functions.SPI_1);
 8003240:	687b      	ldr	r3, [r7, #4]
 8003242:	791b      	ldrb	r3, [r3, #4]
 8003244:	220f      	movs	r2, #15
 8003246:	4293      	cmp	r3, r2
 8003248:	d10e      	bne.n	8003268 <SPI_Pin_Init+0x50>
 800324a:	2002      	movs	r0, #2
 800324c:	2400      	movs	r4, #0
 800324e:	2303      	movs	r3, #3
 8003250:	2200      	movs	r2, #0
 8003252:	2105      	movs	r1, #5
 8003254:	9102      	str	r1, [sp, #8]
 8003256:	9201      	str	r2, [sp, #4]
 8003258:	9300      	str	r3, [sp, #0]
 800325a:	4623      	mov	r3, r4
 800325c:	4602      	mov	r2, r0
 800325e:	2105      	movs	r1, #5
 8003260:	4894      	ldr	r0, [pc, #592]	@ (80034b4 <SPI_Pin_Init+0x29c>)
 8003262:	f7ff fdcd 	bl	8002e00 <GPIO_Pin_Init>
 8003266:	e012      	b.n	800328e <SPI_Pin_Init+0x76>
			else if(config->clock_pin == SPI_Configurations.Pin._SPI1_.CLK1.PB3) GPIO_Pin_Init(GPIOB, 3, GPIO_Configuration.Mode.Alternate_Function, GPIO_Configuration.Output_Type.Push_Pull, GPIO_Configuration.Speed.Very_High_Speed, GPIO_Configuration.Pull.No_Pull_Up_Down, GPIO_Configuration.Alternate_Functions.SPI_1);
 8003268:	687b      	ldr	r3, [r7, #4]
 800326a:	791b      	ldrb	r3, [r3, #4]
 800326c:	2221      	movs	r2, #33	@ 0x21
 800326e:	4293      	cmp	r3, r2
 8003270:	d10d      	bne.n	800328e <SPI_Pin_Init+0x76>
 8003272:	2002      	movs	r0, #2
 8003274:	2400      	movs	r4, #0
 8003276:	2303      	movs	r3, #3
 8003278:	2200      	movs	r2, #0
 800327a:	2105      	movs	r1, #5
 800327c:	9102      	str	r1, [sp, #8]
 800327e:	9201      	str	r2, [sp, #4]
 8003280:	9300      	str	r3, [sp, #0]
 8003282:	4623      	mov	r3, r4
 8003284:	4602      	mov	r2, r0
 8003286:	2103      	movs	r1, #3
 8003288:	488b      	ldr	r0, [pc, #556]	@ (80034b8 <SPI_Pin_Init+0x2a0>)
 800328a:	f7ff fdb9 	bl	8002e00 <GPIO_Pin_Init>

			if(config->miso_pin == SPI_Configurations.Pin._SPI1_.MISO1.PA6) GPIO_Pin_Init(GPIOA, 6, GPIO_Configuration.Mode.Alternate_Function, GPIO_Configuration.Output_Type.Push_Pull, GPIO_Configuration.Speed.Very_High_Speed, GPIO_Configuration.Pull.No_Pull_Up_Down, GPIO_Configuration.Alternate_Functions.SPI_1);
 800328e:	687b      	ldr	r3, [r7, #4]
 8003290:	799b      	ldrb	r3, [r3, #6]
 8003292:	2210      	movs	r2, #16
 8003294:	4293      	cmp	r3, r2
 8003296:	d10e      	bne.n	80032b6 <SPI_Pin_Init+0x9e>
 8003298:	2002      	movs	r0, #2
 800329a:	2400      	movs	r4, #0
 800329c:	2303      	movs	r3, #3
 800329e:	2200      	movs	r2, #0
 80032a0:	2105      	movs	r1, #5
 80032a2:	9102      	str	r1, [sp, #8]
 80032a4:	9201      	str	r2, [sp, #4]
 80032a6:	9300      	str	r3, [sp, #0]
 80032a8:	4623      	mov	r3, r4
 80032aa:	4602      	mov	r2, r0
 80032ac:	2106      	movs	r1, #6
 80032ae:	4881      	ldr	r0, [pc, #516]	@ (80034b4 <SPI_Pin_Init+0x29c>)
 80032b0:	f7ff fda6 	bl	8002e00 <GPIO_Pin_Init>
 80032b4:	e012      	b.n	80032dc <SPI_Pin_Init+0xc4>
			else if(config->miso_pin == SPI_Configurations.Pin._SPI1_.MISO1.PB4) GPIO_Pin_Init(GPIOB, 4, GPIO_Configuration.Mode.Alternate_Function, GPIO_Configuration.Output_Type.Push_Pull, GPIO_Configuration.Speed.Very_High_Speed, GPIO_Configuration.Pull.No_Pull_Up_Down, GPIO_Configuration.Alternate_Functions.SPI_1);
 80032b6:	687b      	ldr	r3, [r7, #4]
 80032b8:	799b      	ldrb	r3, [r3, #6]
 80032ba:	2222      	movs	r2, #34	@ 0x22
 80032bc:	4293      	cmp	r3, r2
 80032be:	d10d      	bne.n	80032dc <SPI_Pin_Init+0xc4>
 80032c0:	2002      	movs	r0, #2
 80032c2:	2400      	movs	r4, #0
 80032c4:	2303      	movs	r3, #3
 80032c6:	2200      	movs	r2, #0
 80032c8:	2105      	movs	r1, #5
 80032ca:	9102      	str	r1, [sp, #8]
 80032cc:	9201      	str	r2, [sp, #4]
 80032ce:	9300      	str	r3, [sp, #0]
 80032d0:	4623      	mov	r3, r4
 80032d2:	4602      	mov	r2, r0
 80032d4:	2104      	movs	r1, #4
 80032d6:	4878      	ldr	r0, [pc, #480]	@ (80034b8 <SPI_Pin_Init+0x2a0>)
 80032d8:	f7ff fd92 	bl	8002e00 <GPIO_Pin_Init>

			if(config->mosi_pin == SPI_Configurations.Pin._SPI1_.MOSI1.PA7) GPIO_Pin_Init(GPIOA, 7, GPIO_Configuration.Mode.Alternate_Function, GPIO_Configuration.Output_Type.Push_Pull, GPIO_Configuration.Speed.Very_High_Speed, GPIO_Configuration.Pull.No_Pull_Up_Down, GPIO_Configuration.Alternate_Functions.SPI_1);
 80032dc:	687b      	ldr	r3, [r7, #4]
 80032de:	795b      	ldrb	r3, [r3, #5]
 80032e0:	2211      	movs	r2, #17
 80032e2:	4293      	cmp	r3, r2
 80032e4:	d10e      	bne.n	8003304 <SPI_Pin_Init+0xec>
 80032e6:	2002      	movs	r0, #2
 80032e8:	2400      	movs	r4, #0
 80032ea:	2303      	movs	r3, #3
 80032ec:	2200      	movs	r2, #0
 80032ee:	2105      	movs	r1, #5
 80032f0:	9102      	str	r1, [sp, #8]
 80032f2:	9201      	str	r2, [sp, #4]
 80032f4:	9300      	str	r3, [sp, #0]
 80032f6:	4623      	mov	r3, r4
 80032f8:	4602      	mov	r2, r0
 80032fa:	2107      	movs	r1, #7
 80032fc:	486d      	ldr	r0, [pc, #436]	@ (80034b4 <SPI_Pin_Init+0x29c>)
 80032fe:	f7ff fd7f 	bl	8002e00 <GPIO_Pin_Init>
 8003302:	e012      	b.n	800332a <SPI_Pin_Init+0x112>
			else if(config->mosi_pin == SPI_Configurations.Pin._SPI1_.MOSI1.PB5) GPIO_Pin_Init(GPIOB, 5, GPIO_Configuration.Mode.Alternate_Function, GPIO_Configuration.Output_Type.Push_Pull, GPIO_Configuration.Speed.Very_High_Speed, GPIO_Configuration.Pull.No_Pull_Up_Down, GPIO_Configuration.Alternate_Functions.SPI_1);
 8003304:	687b      	ldr	r3, [r7, #4]
 8003306:	795b      	ldrb	r3, [r3, #5]
 8003308:	2223      	movs	r2, #35	@ 0x23
 800330a:	4293      	cmp	r3, r2
 800330c:	d10d      	bne.n	800332a <SPI_Pin_Init+0x112>
 800330e:	2002      	movs	r0, #2
 8003310:	2400      	movs	r4, #0
 8003312:	2303      	movs	r3, #3
 8003314:	2200      	movs	r2, #0
 8003316:	2105      	movs	r1, #5
 8003318:	9102      	str	r1, [sp, #8]
 800331a:	9201      	str	r2, [sp, #4]
 800331c:	9300      	str	r3, [sp, #0]
 800331e:	4623      	mov	r3, r4
 8003320:	4602      	mov	r2, r0
 8003322:	2105      	movs	r1, #5
 8003324:	4864      	ldr	r0, [pc, #400]	@ (80034b8 <SPI_Pin_Init+0x2a0>)
 8003326:	f7ff fd6b 	bl	8002e00 <GPIO_Pin_Init>

			config->Port -> CR1 &= ~SPI_CR1_BIDIMODE;
 800332a:	687b      	ldr	r3, [r7, #4]
 800332c:	681b      	ldr	r3, [r3, #0]
 800332e:	681a      	ldr	r2, [r3, #0]
 8003330:	687b      	ldr	r3, [r7, #4]
 8003332:	681b      	ldr	r3, [r3, #0]
 8003334:	f422 4200 	bic.w	r2, r2, #32768	@ 0x8000
 8003338:	601a      	str	r2, [r3, #0]
 800333a:	e3b9      	b.n	8003ab0 <SPI_Pin_Init+0x898>
		}
		else if((config->mode == SPI_Configurations.Mode.Half_Duplex_Master) || (config->mode == SPI_Configurations.Mode.TX_Only_Master) || (config->mode == SPI_Configurations.Mode.RX_Only_Slave))
 800333c:	687b      	ldr	r3, [r7, #4]
 800333e:	891b      	ldrh	r3, [r3, #8]
 8003340:	220d      	movs	r2, #13
 8003342:	4293      	cmp	r3, r2
 8003344:	d009      	beq.n	800335a <SPI_Pin_Init+0x142>
 8003346:	687b      	ldr	r3, [r7, #4]
 8003348:	891b      	ldrh	r3, [r3, #8]
 800334a:	2211      	movs	r2, #17
 800334c:	4293      	cmp	r3, r2
 800334e:	d004      	beq.n	800335a <SPI_Pin_Init+0x142>
 8003350:	687b      	ldr	r3, [r7, #4]
 8003352:	891b      	ldrh	r3, [r3, #8]
 8003354:	2210      	movs	r2, #16
 8003356:	4293      	cmp	r3, r2
 8003358:	d15e      	bne.n	8003418 <SPI_Pin_Init+0x200>
		{
			if(config->clock_pin == SPI_Configurations.Pin._SPI1_.CLK1.PA5) GPIO_Pin_Init(GPIOA, 5, GPIO_Configuration.Mode.Alternate_Function, GPIO_Configuration.Output_Type.Push_Pull, GPIO_Configuration.Speed.Very_High_Speed, GPIO_Configuration.Pull.No_Pull_Up_Down, GPIO_Configuration.Alternate_Functions.SPI_1);
 800335a:	687b      	ldr	r3, [r7, #4]
 800335c:	791b      	ldrb	r3, [r3, #4]
 800335e:	220f      	movs	r2, #15
 8003360:	4293      	cmp	r3, r2
 8003362:	d10e      	bne.n	8003382 <SPI_Pin_Init+0x16a>
 8003364:	2002      	movs	r0, #2
 8003366:	2400      	movs	r4, #0
 8003368:	2303      	movs	r3, #3
 800336a:	2200      	movs	r2, #0
 800336c:	2105      	movs	r1, #5
 800336e:	9102      	str	r1, [sp, #8]
 8003370:	9201      	str	r2, [sp, #4]
 8003372:	9300      	str	r3, [sp, #0]
 8003374:	4623      	mov	r3, r4
 8003376:	4602      	mov	r2, r0
 8003378:	2105      	movs	r1, #5
 800337a:	484e      	ldr	r0, [pc, #312]	@ (80034b4 <SPI_Pin_Init+0x29c>)
 800337c:	f7ff fd40 	bl	8002e00 <GPIO_Pin_Init>
 8003380:	e012      	b.n	80033a8 <SPI_Pin_Init+0x190>
			else if(config->clock_pin == SPI_Configurations.Pin._SPI1_.CLK1.PB3) GPIO_Pin_Init(GPIOB, 3, GPIO_Configuration.Mode.Alternate_Function, GPIO_Configuration.Output_Type.Push_Pull, GPIO_Configuration.Speed.Very_High_Speed, GPIO_Configuration.Pull.No_Pull_Up_Down, GPIO_Configuration.Alternate_Functions.SPI_1);
 8003382:	687b      	ldr	r3, [r7, #4]
 8003384:	791b      	ldrb	r3, [r3, #4]
 8003386:	2221      	movs	r2, #33	@ 0x21
 8003388:	4293      	cmp	r3, r2
 800338a:	d10d      	bne.n	80033a8 <SPI_Pin_Init+0x190>
 800338c:	2002      	movs	r0, #2
 800338e:	2400      	movs	r4, #0
 8003390:	2303      	movs	r3, #3
 8003392:	2200      	movs	r2, #0
 8003394:	2105      	movs	r1, #5
 8003396:	9102      	str	r1, [sp, #8]
 8003398:	9201      	str	r2, [sp, #4]
 800339a:	9300      	str	r3, [sp, #0]
 800339c:	4623      	mov	r3, r4
 800339e:	4602      	mov	r2, r0
 80033a0:	2103      	movs	r1, #3
 80033a2:	4845      	ldr	r0, [pc, #276]	@ (80034b8 <SPI_Pin_Init+0x2a0>)
 80033a4:	f7ff fd2c 	bl	8002e00 <GPIO_Pin_Init>

			if(config->mosi_pin == SPI_Configurations.Pin._SPI1_.MOSI1.PA7) GPIO_Pin_Init(GPIOA, 7, GPIO_Configuration.Mode.Alternate_Function, GPIO_Configuration.Output_Type.Push_Pull, GPIO_Configuration.Speed.Very_High_Speed, GPIO_Configuration.Pull.No_Pull_Up_Down, GPIO_Configuration.Alternate_Functions.SPI_1);
 80033a8:	687b      	ldr	r3, [r7, #4]
 80033aa:	795b      	ldrb	r3, [r3, #5]
 80033ac:	2211      	movs	r2, #17
 80033ae:	4293      	cmp	r3, r2
 80033b0:	d10e      	bne.n	80033d0 <SPI_Pin_Init+0x1b8>
 80033b2:	2002      	movs	r0, #2
 80033b4:	2400      	movs	r4, #0
 80033b6:	2303      	movs	r3, #3
 80033b8:	2200      	movs	r2, #0
 80033ba:	2105      	movs	r1, #5
 80033bc:	9102      	str	r1, [sp, #8]
 80033be:	9201      	str	r2, [sp, #4]
 80033c0:	9300      	str	r3, [sp, #0]
 80033c2:	4623      	mov	r3, r4
 80033c4:	4602      	mov	r2, r0
 80033c6:	2107      	movs	r1, #7
 80033c8:	483a      	ldr	r0, [pc, #232]	@ (80034b4 <SPI_Pin_Init+0x29c>)
 80033ca:	f7ff fd19 	bl	8002e00 <GPIO_Pin_Init>
 80033ce:	e012      	b.n	80033f6 <SPI_Pin_Init+0x1de>
			else if(config->mosi_pin == SPI_Configurations.Pin._SPI1_.MOSI1.PB5) GPIO_Pin_Init(GPIOB, 5, GPIO_Configuration.Mode.Alternate_Function, GPIO_Configuration.Output_Type.Push_Pull, GPIO_Configuration.Speed.Very_High_Speed, GPIO_Configuration.Pull.No_Pull_Up_Down, GPIO_Configuration.Alternate_Functions.SPI_1);
 80033d0:	687b      	ldr	r3, [r7, #4]
 80033d2:	795b      	ldrb	r3, [r3, #5]
 80033d4:	2223      	movs	r2, #35	@ 0x23
 80033d6:	4293      	cmp	r3, r2
 80033d8:	d10d      	bne.n	80033f6 <SPI_Pin_Init+0x1de>
 80033da:	2002      	movs	r0, #2
 80033dc:	2400      	movs	r4, #0
 80033de:	2303      	movs	r3, #3
 80033e0:	2200      	movs	r2, #0
 80033e2:	2105      	movs	r1, #5
 80033e4:	9102      	str	r1, [sp, #8]
 80033e6:	9201      	str	r2, [sp, #4]
 80033e8:	9300      	str	r3, [sp, #0]
 80033ea:	4623      	mov	r3, r4
 80033ec:	4602      	mov	r2, r0
 80033ee:	2105      	movs	r1, #5
 80033f0:	4831      	ldr	r0, [pc, #196]	@ (80034b8 <SPI_Pin_Init+0x2a0>)
 80033f2:	f7ff fd05 	bl	8002e00 <GPIO_Pin_Init>

			config->Port -> CR1 |= SPI_CR1_BIDIMODE;
 80033f6:	687b      	ldr	r3, [r7, #4]
 80033f8:	681b      	ldr	r3, [r3, #0]
 80033fa:	681a      	ldr	r2, [r3, #0]
 80033fc:	687b      	ldr	r3, [r7, #4]
 80033fe:	681b      	ldr	r3, [r3, #0]
 8003400:	f442 4200 	orr.w	r2, r2, #32768	@ 0x8000
 8003404:	601a      	str	r2, [r3, #0]
			config->Port -> CR1 |= SPI_CR1_BIDIOE;
 8003406:	687b      	ldr	r3, [r7, #4]
 8003408:	681b      	ldr	r3, [r3, #0]
 800340a:	681a      	ldr	r2, [r3, #0]
 800340c:	687b      	ldr	r3, [r7, #4]
 800340e:	681b      	ldr	r3, [r3, #0]
 8003410:	f442 4280 	orr.w	r2, r2, #16384	@ 0x4000
 8003414:	601a      	str	r2, [r3, #0]
 8003416:	e34b      	b.n	8003ab0 <SPI_Pin_Init+0x898>
		}
		else if((config->mode == SPI_Configurations.Mode.Half_Duplex_Slave) || (config->mode == SPI_Configurations.Mode.RX_Only_Master) || (config->mode == SPI_Configurations.Mode.TX_Only_Slave))
 8003418:	687b      	ldr	r3, [r7, #4]
 800341a:	891b      	ldrh	r3, [r3, #8]
 800341c:	220e      	movs	r2, #14
 800341e:	4293      	cmp	r3, r2
 8003420:	d00a      	beq.n	8003438 <SPI_Pin_Init+0x220>
 8003422:	687b      	ldr	r3, [r7, #4]
 8003424:	891b      	ldrh	r3, [r3, #8]
 8003426:	220f      	movs	r2, #15
 8003428:	4293      	cmp	r3, r2
 800342a:	d005      	beq.n	8003438 <SPI_Pin_Init+0x220>
 800342c:	687b      	ldr	r3, [r7, #4]
 800342e:	891b      	ldrh	r3, [r3, #8]
 8003430:	2212      	movs	r2, #18
 8003432:	4293      	cmp	r3, r2
 8003434:	f040 833c 	bne.w	8003ab0 <SPI_Pin_Init+0x898>
		{
			if(config->clock_pin == SPI_Configurations.Pin._SPI1_.CLK1.PA5) GPIO_Pin_Init(GPIOA, 5, GPIO_Configuration.Mode.Alternate_Function, GPIO_Configuration.Output_Type.Push_Pull, GPIO_Configuration.Speed.Very_High_Speed, GPIO_Configuration.Pull.No_Pull_Up_Down, GPIO_Configuration.Alternate_Functions.SPI_1);
 8003438:	687b      	ldr	r3, [r7, #4]
 800343a:	791b      	ldrb	r3, [r3, #4]
 800343c:	220f      	movs	r2, #15
 800343e:	4293      	cmp	r3, r2
 8003440:	d10e      	bne.n	8003460 <SPI_Pin_Init+0x248>
 8003442:	2002      	movs	r0, #2
 8003444:	2400      	movs	r4, #0
 8003446:	2303      	movs	r3, #3
 8003448:	2200      	movs	r2, #0
 800344a:	2105      	movs	r1, #5
 800344c:	9102      	str	r1, [sp, #8]
 800344e:	9201      	str	r2, [sp, #4]
 8003450:	9300      	str	r3, [sp, #0]
 8003452:	4623      	mov	r3, r4
 8003454:	4602      	mov	r2, r0
 8003456:	2105      	movs	r1, #5
 8003458:	4816      	ldr	r0, [pc, #88]	@ (80034b4 <SPI_Pin_Init+0x29c>)
 800345a:	f7ff fcd1 	bl	8002e00 <GPIO_Pin_Init>
 800345e:	e012      	b.n	8003486 <SPI_Pin_Init+0x26e>
			else if(config->clock_pin == SPI_Configurations.Pin._SPI1_.CLK1.PB3) GPIO_Pin_Init(GPIOB, 3, GPIO_Configuration.Mode.Alternate_Function, GPIO_Configuration.Output_Type.Push_Pull, GPIO_Configuration.Speed.Very_High_Speed, GPIO_Configuration.Pull.No_Pull_Up_Down, GPIO_Configuration.Alternate_Functions.SPI_1);
 8003460:	687b      	ldr	r3, [r7, #4]
 8003462:	791b      	ldrb	r3, [r3, #4]
 8003464:	2221      	movs	r2, #33	@ 0x21
 8003466:	4293      	cmp	r3, r2
 8003468:	d10d      	bne.n	8003486 <SPI_Pin_Init+0x26e>
 800346a:	2002      	movs	r0, #2
 800346c:	2400      	movs	r4, #0
 800346e:	2303      	movs	r3, #3
 8003470:	2200      	movs	r2, #0
 8003472:	2105      	movs	r1, #5
 8003474:	9102      	str	r1, [sp, #8]
 8003476:	9201      	str	r2, [sp, #4]
 8003478:	9300      	str	r3, [sp, #0]
 800347a:	4623      	mov	r3, r4
 800347c:	4602      	mov	r2, r0
 800347e:	2103      	movs	r1, #3
 8003480:	480d      	ldr	r0, [pc, #52]	@ (80034b8 <SPI_Pin_Init+0x2a0>)
 8003482:	f7ff fcbd 	bl	8002e00 <GPIO_Pin_Init>

			if(config->miso_pin == SPI_Configurations.Pin._SPI1_.MISO1.PA6) GPIO_Pin_Init(GPIOA, 6, GPIO_Configuration.Mode.Alternate_Function, GPIO_Configuration.Output_Type.Push_Pull, GPIO_Configuration.Speed.Very_High_Speed, GPIO_Configuration.Pull.No_Pull_Up_Down, GPIO_Configuration.Alternate_Functions.SPI_1);
 8003486:	687b      	ldr	r3, [r7, #4]
 8003488:	799b      	ldrb	r3, [r3, #6]
 800348a:	2210      	movs	r2, #16
 800348c:	4293      	cmp	r3, r2
 800348e:	d115      	bne.n	80034bc <SPI_Pin_Init+0x2a4>
 8003490:	2002      	movs	r0, #2
 8003492:	2400      	movs	r4, #0
 8003494:	2303      	movs	r3, #3
 8003496:	2200      	movs	r2, #0
 8003498:	2105      	movs	r1, #5
 800349a:	9102      	str	r1, [sp, #8]
 800349c:	9201      	str	r2, [sp, #4]
 800349e:	9300      	str	r3, [sp, #0]
 80034a0:	4623      	mov	r3, r4
 80034a2:	4602      	mov	r2, r0
 80034a4:	2106      	movs	r1, #6
 80034a6:	4803      	ldr	r0, [pc, #12]	@ (80034b4 <SPI_Pin_Init+0x29c>)
 80034a8:	f7ff fcaa 	bl	8002e00 <GPIO_Pin_Init>
 80034ac:	e019      	b.n	80034e2 <SPI_Pin_Init+0x2ca>
 80034ae:	bf00      	nop
 80034b0:	40013000 	.word	0x40013000
 80034b4:	40020000 	.word	0x40020000
 80034b8:	40020400 	.word	0x40020400
			else if(config->miso_pin == SPI_Configurations.Pin._SPI1_.MISO1.PB4) GPIO_Pin_Init(GPIOB, 4, GPIO_Configuration.Mode.Alternate_Function, GPIO_Configuration.Output_Type.Push_Pull, GPIO_Configuration.Speed.Very_High_Speed, GPIO_Configuration.Pull.No_Pull_Up_Down, GPIO_Configuration.Alternate_Functions.SPI_1);
 80034bc:	687b      	ldr	r3, [r7, #4]
 80034be:	799b      	ldrb	r3, [r3, #6]
 80034c0:	2222      	movs	r2, #34	@ 0x22
 80034c2:	4293      	cmp	r3, r2
 80034c4:	d10d      	bne.n	80034e2 <SPI_Pin_Init+0x2ca>
 80034c6:	2002      	movs	r0, #2
 80034c8:	2400      	movs	r4, #0
 80034ca:	2303      	movs	r3, #3
 80034cc:	2200      	movs	r2, #0
 80034ce:	2105      	movs	r1, #5
 80034d0:	9102      	str	r1, [sp, #8]
 80034d2:	9201      	str	r2, [sp, #4]
 80034d4:	9300      	str	r3, [sp, #0]
 80034d6:	4623      	mov	r3, r4
 80034d8:	4602      	mov	r2, r0
 80034da:	2104      	movs	r1, #4
 80034dc:	489f      	ldr	r0, [pc, #636]	@ (800375c <SPI_Pin_Init+0x544>)
 80034de:	f7ff fc8f 	bl	8002e00 <GPIO_Pin_Init>

			config->Port -> CR1 |= SPI_CR1_BIDIMODE;
 80034e2:	687b      	ldr	r3, [r7, #4]
 80034e4:	681b      	ldr	r3, [r3, #0]
 80034e6:	681a      	ldr	r2, [r3, #0]
 80034e8:	687b      	ldr	r3, [r7, #4]
 80034ea:	681b      	ldr	r3, [r3, #0]
 80034ec:	f442 4200 	orr.w	r2, r2, #32768	@ 0x8000
 80034f0:	601a      	str	r2, [r3, #0]
			config->Port -> CR1 &= ~SPI_CR1_BIDIOE;
 80034f2:	687b      	ldr	r3, [r7, #4]
 80034f4:	681b      	ldr	r3, [r3, #0]
 80034f6:	681a      	ldr	r2, [r3, #0]
 80034f8:	687b      	ldr	r3, [r7, #4]
 80034fa:	681b      	ldr	r3, [r3, #0]
 80034fc:	f422 4280 	bic.w	r2, r2, #16384	@ 0x4000
 8003500:	601a      	str	r2, [r3, #0]

			config->Port -> CR1 |= SPI_CR1_BIDIMODE;
			config->Port -> CR1 &= ~SPI_CR1_BIDIOE;
		}
	}
}
 8003502:	e2d5      	b.n	8003ab0 <SPI_Pin_Init+0x898>
	else if(config -> Port == SPI2)
 8003504:	687b      	ldr	r3, [r7, #4]
 8003506:	681b      	ldr	r3, [r3, #0]
 8003508:	4a95      	ldr	r2, [pc, #596]	@ (8003760 <SPI_Pin_Init+0x548>)
 800350a:	4293      	cmp	r3, r2
 800350c:	f040 8151 	bne.w	80037b2 <SPI_Pin_Init+0x59a>
		if((config->mode == SPI_Configurations.Mode.Full_Duplex_Master) || (config->mode == SPI_Configurations.Mode.Full_Duplex_Slave))
 8003510:	687b      	ldr	r3, [r7, #4]
 8003512:	891b      	ldrh	r3, [r3, #8]
 8003514:	220b      	movs	r2, #11
 8003516:	4293      	cmp	r3, r2
 8003518:	d005      	beq.n	8003526 <SPI_Pin_Init+0x30e>
 800351a:	687b      	ldr	r3, [r7, #4]
 800351c:	891b      	ldrh	r3, [r3, #8]
 800351e:	220c      	movs	r2, #12
 8003520:	4293      	cmp	r3, r2
 8003522:	f040 8084 	bne.w	800362e <SPI_Pin_Init+0x416>
			if(config->clock_pin == SPI_Configurations.Pin._SPI2_.CLK2.PB10) GPIO_Pin_Init(GPIOB, 10, GPIO_Configuration.Mode.Alternate_Function, GPIO_Configuration.Output_Type.Push_Pull, GPIO_Configuration.Speed.Very_High_Speed, GPIO_Configuration.Pull.No_Pull_Up_Down, GPIO_Configuration.Alternate_Functions.SPI_2);
 8003526:	687b      	ldr	r3, [r7, #4]
 8003528:	791b      	ldrb	r3, [r3, #4]
 800352a:	461a      	mov	r2, r3
 800352c:	2313      	movs	r3, #19
 800352e:	429a      	cmp	r2, r3
 8003530:	d10e      	bne.n	8003550 <SPI_Pin_Init+0x338>
 8003532:	2002      	movs	r0, #2
 8003534:	2400      	movs	r4, #0
 8003536:	2303      	movs	r3, #3
 8003538:	2200      	movs	r2, #0
 800353a:	2105      	movs	r1, #5
 800353c:	9102      	str	r1, [sp, #8]
 800353e:	9201      	str	r2, [sp, #4]
 8003540:	9300      	str	r3, [sp, #0]
 8003542:	4623      	mov	r3, r4
 8003544:	4602      	mov	r2, r0
 8003546:	210a      	movs	r1, #10
 8003548:	4884      	ldr	r0, [pc, #528]	@ (800375c <SPI_Pin_Init+0x544>)
 800354a:	f7ff fc59 	bl	8002e00 <GPIO_Pin_Init>
 800354e:	e013      	b.n	8003578 <SPI_Pin_Init+0x360>
			else if(config->clock_pin == SPI_Configurations.Pin._SPI2_.CLK2.PB13) GPIO_Pin_Init(GPIOB, 13, GPIO_Configuration.Mode.Alternate_Function, GPIO_Configuration.Output_Type.Push_Pull, GPIO_Configuration.Speed.Very_High_Speed, GPIO_Configuration.Pull.No_Pull_Up_Down, GPIO_Configuration.Alternate_Functions.SPI_2);
 8003550:	687b      	ldr	r3, [r7, #4]
 8003552:	791b      	ldrb	r3, [r3, #4]
 8003554:	461a      	mov	r2, r3
 8003556:	2317      	movs	r3, #23
 8003558:	429a      	cmp	r2, r3
 800355a:	d10d      	bne.n	8003578 <SPI_Pin_Init+0x360>
 800355c:	2002      	movs	r0, #2
 800355e:	2400      	movs	r4, #0
 8003560:	2303      	movs	r3, #3
 8003562:	2200      	movs	r2, #0
 8003564:	2105      	movs	r1, #5
 8003566:	9102      	str	r1, [sp, #8]
 8003568:	9201      	str	r2, [sp, #4]
 800356a:	9300      	str	r3, [sp, #0]
 800356c:	4623      	mov	r3, r4
 800356e:	4602      	mov	r2, r0
 8003570:	210d      	movs	r1, #13
 8003572:	487a      	ldr	r0, [pc, #488]	@ (800375c <SPI_Pin_Init+0x544>)
 8003574:	f7ff fc44 	bl	8002e00 <GPIO_Pin_Init>
			if(config->miso_pin == SPI_Configurations.Pin._SPI2_.MISO2.PB14) GPIO_Pin_Init(GPIOB, 14, GPIO_Configuration.Mode.Alternate_Function, GPIO_Configuration.Output_Type.Push_Pull, GPIO_Configuration.Speed.Very_High_Speed, GPIO_Configuration.Pull.No_Pull_Up_Down, GPIO_Configuration.Alternate_Functions.SPI_2);
 8003578:	687b      	ldr	r3, [r7, #4]
 800357a:	799b      	ldrb	r3, [r3, #6]
 800357c:	461a      	mov	r2, r3
 800357e:	231b      	movs	r3, #27
 8003580:	429a      	cmp	r2, r3
 8003582:	d10e      	bne.n	80035a2 <SPI_Pin_Init+0x38a>
 8003584:	2002      	movs	r0, #2
 8003586:	2400      	movs	r4, #0
 8003588:	2303      	movs	r3, #3
 800358a:	2200      	movs	r2, #0
 800358c:	2105      	movs	r1, #5
 800358e:	9102      	str	r1, [sp, #8]
 8003590:	9201      	str	r2, [sp, #4]
 8003592:	9300      	str	r3, [sp, #0]
 8003594:	4623      	mov	r3, r4
 8003596:	4602      	mov	r2, r0
 8003598:	210e      	movs	r1, #14
 800359a:	4870      	ldr	r0, [pc, #448]	@ (800375c <SPI_Pin_Init+0x544>)
 800359c:	f7ff fc30 	bl	8002e00 <GPIO_Pin_Init>
 80035a0:	e013      	b.n	80035ca <SPI_Pin_Init+0x3b2>
			else if(config->miso_pin == SPI_Configurations.Pin._SPI2_.MISO2.PC2) GPIO_Pin_Init(GPIOC, 2, GPIO_Configuration.Mode.Alternate_Function, GPIO_Configuration.Output_Type.Push_Pull, GPIO_Configuration.Speed.Very_High_Speed, GPIO_Configuration.Pull.No_Pull_Up_Down, GPIO_Configuration.Alternate_Functions.SPI_2);
 80035a2:	687b      	ldr	r3, [r7, #4]
 80035a4:	799b      	ldrb	r3, [r3, #6]
 80035a6:	461a      	mov	r2, r3
 80035a8:	2320      	movs	r3, #32
 80035aa:	429a      	cmp	r2, r3
 80035ac:	d10d      	bne.n	80035ca <SPI_Pin_Init+0x3b2>
 80035ae:	2002      	movs	r0, #2
 80035b0:	2400      	movs	r4, #0
 80035b2:	2303      	movs	r3, #3
 80035b4:	2200      	movs	r2, #0
 80035b6:	2105      	movs	r1, #5
 80035b8:	9102      	str	r1, [sp, #8]
 80035ba:	9201      	str	r2, [sp, #4]
 80035bc:	9300      	str	r3, [sp, #0]
 80035be:	4623      	mov	r3, r4
 80035c0:	4602      	mov	r2, r0
 80035c2:	2102      	movs	r1, #2
 80035c4:	4867      	ldr	r0, [pc, #412]	@ (8003764 <SPI_Pin_Init+0x54c>)
 80035c6:	f7ff fc1b 	bl	8002e00 <GPIO_Pin_Init>
			if(config->mosi_pin == SPI_Configurations.Pin._SPI2_.MOSI2.PB15) GPIO_Pin_Init(GPIOB, 15, GPIO_Configuration.Mode.Alternate_Function, GPIO_Configuration.Output_Type.Push_Pull, GPIO_Configuration.Speed.Very_High_Speed, GPIO_Configuration.Pull.No_Pull_Up_Down, GPIO_Configuration.Alternate_Functions.SPI_2);
 80035ca:	687b      	ldr	r3, [r7, #4]
 80035cc:	795b      	ldrb	r3, [r3, #5]
 80035ce:	461a      	mov	r2, r3
 80035d0:	231d      	movs	r3, #29
 80035d2:	429a      	cmp	r2, r3
 80035d4:	d10e      	bne.n	80035f4 <SPI_Pin_Init+0x3dc>
 80035d6:	2002      	movs	r0, #2
 80035d8:	2400      	movs	r4, #0
 80035da:	2303      	movs	r3, #3
 80035dc:	2200      	movs	r2, #0
 80035de:	2105      	movs	r1, #5
 80035e0:	9102      	str	r1, [sp, #8]
 80035e2:	9201      	str	r2, [sp, #4]
 80035e4:	9300      	str	r3, [sp, #0]
 80035e6:	4623      	mov	r3, r4
 80035e8:	4602      	mov	r2, r0
 80035ea:	210f      	movs	r1, #15
 80035ec:	485b      	ldr	r0, [pc, #364]	@ (800375c <SPI_Pin_Init+0x544>)
 80035ee:	f7ff fc07 	bl	8002e00 <GPIO_Pin_Init>
 80035f2:	e013      	b.n	800361c <SPI_Pin_Init+0x404>
			else if(config->mosi_pin == SPI_Configurations.Pin._SPI2_.MOSI2.PC3) GPIO_Pin_Init(GPIOC, 3, GPIO_Configuration.Mode.Alternate_Function, GPIO_Configuration.Output_Type.Push_Pull, GPIO_Configuration.Speed.Very_High_Speed, GPIO_Configuration.Pull.No_Pull_Up_Down, GPIO_Configuration.Alternate_Functions.SPI_2);
 80035f4:	687b      	ldr	r3, [r7, #4]
 80035f6:	795b      	ldrb	r3, [r3, #5]
 80035f8:	461a      	mov	r2, r3
 80035fa:	2311      	movs	r3, #17
 80035fc:	429a      	cmp	r2, r3
 80035fe:	d10d      	bne.n	800361c <SPI_Pin_Init+0x404>
 8003600:	2002      	movs	r0, #2
 8003602:	2400      	movs	r4, #0
 8003604:	2303      	movs	r3, #3
 8003606:	2200      	movs	r2, #0
 8003608:	2105      	movs	r1, #5
 800360a:	9102      	str	r1, [sp, #8]
 800360c:	9201      	str	r2, [sp, #4]
 800360e:	9300      	str	r3, [sp, #0]
 8003610:	4623      	mov	r3, r4
 8003612:	4602      	mov	r2, r0
 8003614:	2103      	movs	r1, #3
 8003616:	4853      	ldr	r0, [pc, #332]	@ (8003764 <SPI_Pin_Init+0x54c>)
 8003618:	f7ff fbf2 	bl	8002e00 <GPIO_Pin_Init>
			config->Port -> CR1 &= ~SPI_CR1_BIDIMODE;
 800361c:	687b      	ldr	r3, [r7, #4]
 800361e:	681b      	ldr	r3, [r3, #0]
 8003620:	681a      	ldr	r2, [r3, #0]
 8003622:	687b      	ldr	r3, [r7, #4]
 8003624:	681b      	ldr	r3, [r3, #0]
 8003626:	f422 4200 	bic.w	r2, r2, #32768	@ 0x8000
 800362a:	601a      	str	r2, [r3, #0]
 800362c:	e240      	b.n	8003ab0 <SPI_Pin_Init+0x898>
		else if((config->mode == SPI_Configurations.Mode.Half_Duplex_Master) || (config->mode == SPI_Configurations.Mode.TX_Only_Master) || (config->mode == SPI_Configurations.Mode.RX_Only_Slave))
 800362e:	687b      	ldr	r3, [r7, #4]
 8003630:	891b      	ldrh	r3, [r3, #8]
 8003632:	220d      	movs	r2, #13
 8003634:	4293      	cmp	r3, r2
 8003636:	d009      	beq.n	800364c <SPI_Pin_Init+0x434>
 8003638:	687b      	ldr	r3, [r7, #4]
 800363a:	891b      	ldrh	r3, [r3, #8]
 800363c:	2211      	movs	r2, #17
 800363e:	4293      	cmp	r3, r2
 8003640:	d004      	beq.n	800364c <SPI_Pin_Init+0x434>
 8003642:	687b      	ldr	r3, [r7, #4]
 8003644:	891b      	ldrh	r3, [r3, #8]
 8003646:	2210      	movs	r2, #16
 8003648:	4293      	cmp	r3, r2
 800364a:	d139      	bne.n	80036c0 <SPI_Pin_Init+0x4a8>
			if(config->clock_pin == SPI_Configurations.Pin._SPI2_.CLK2.PB10) GPIO_Pin_Init(GPIOB, 10, GPIO_Configuration.Mode.Alternate_Function, GPIO_Configuration.Output_Type.Push_Pull, GPIO_Configuration.Speed.Very_High_Speed, GPIO_Configuration.Pull.No_Pull_Up_Down, GPIO_Configuration.Alternate_Functions.SPI_2);
 800364c:	687b      	ldr	r3, [r7, #4]
 800364e:	791b      	ldrb	r3, [r3, #4]
 8003650:	461a      	mov	r2, r3
 8003652:	2313      	movs	r3, #19
 8003654:	429a      	cmp	r2, r3
 8003656:	d10e      	bne.n	8003676 <SPI_Pin_Init+0x45e>
 8003658:	2002      	movs	r0, #2
 800365a:	2400      	movs	r4, #0
 800365c:	2303      	movs	r3, #3
 800365e:	2200      	movs	r2, #0
 8003660:	2105      	movs	r1, #5
 8003662:	9102      	str	r1, [sp, #8]
 8003664:	9201      	str	r2, [sp, #4]
 8003666:	9300      	str	r3, [sp, #0]
 8003668:	4623      	mov	r3, r4
 800366a:	4602      	mov	r2, r0
 800366c:	210a      	movs	r1, #10
 800366e:	483b      	ldr	r0, [pc, #236]	@ (800375c <SPI_Pin_Init+0x544>)
 8003670:	f7ff fbc6 	bl	8002e00 <GPIO_Pin_Init>
 8003674:	e013      	b.n	800369e <SPI_Pin_Init+0x486>
			else if(config->clock_pin == SPI_Configurations.Pin._SPI2_.CLK2.PB13) GPIO_Pin_Init(GPIOB, 13, GPIO_Configuration.Mode.Alternate_Function, GPIO_Configuration.Output_Type.Push_Pull, GPIO_Configuration.Speed.Very_High_Speed, GPIO_Configuration.Pull.No_Pull_Up_Down, GPIO_Configuration.Alternate_Functions.SPI_2);
 8003676:	687b      	ldr	r3, [r7, #4]
 8003678:	791b      	ldrb	r3, [r3, #4]
 800367a:	461a      	mov	r2, r3
 800367c:	2317      	movs	r3, #23
 800367e:	429a      	cmp	r2, r3
 8003680:	d10d      	bne.n	800369e <SPI_Pin_Init+0x486>
 8003682:	2002      	movs	r0, #2
 8003684:	2400      	movs	r4, #0
 8003686:	2303      	movs	r3, #3
 8003688:	2200      	movs	r2, #0
 800368a:	2105      	movs	r1, #5
 800368c:	9102      	str	r1, [sp, #8]
 800368e:	9201      	str	r2, [sp, #4]
 8003690:	9300      	str	r3, [sp, #0]
 8003692:	4623      	mov	r3, r4
 8003694:	4602      	mov	r2, r0
 8003696:	210d      	movs	r1, #13
 8003698:	4830      	ldr	r0, [pc, #192]	@ (800375c <SPI_Pin_Init+0x544>)
 800369a:	f7ff fbb1 	bl	8002e00 <GPIO_Pin_Init>
			config->Port -> CR1 |= SPI_CR1_BIDIMODE;
 800369e:	687b      	ldr	r3, [r7, #4]
 80036a0:	681b      	ldr	r3, [r3, #0]
 80036a2:	681a      	ldr	r2, [r3, #0]
 80036a4:	687b      	ldr	r3, [r7, #4]
 80036a6:	681b      	ldr	r3, [r3, #0]
 80036a8:	f442 4200 	orr.w	r2, r2, #32768	@ 0x8000
 80036ac:	601a      	str	r2, [r3, #0]
			config->Port -> CR1 |= SPI_CR1_BIDIOE;
 80036ae:	687b      	ldr	r3, [r7, #4]
 80036b0:	681b      	ldr	r3, [r3, #0]
 80036b2:	681a      	ldr	r2, [r3, #0]
 80036b4:	687b      	ldr	r3, [r7, #4]
 80036b6:	681b      	ldr	r3, [r3, #0]
 80036b8:	f442 4280 	orr.w	r2, r2, #16384	@ 0x4000
 80036bc:	601a      	str	r2, [r3, #0]
 80036be:	e1f7      	b.n	8003ab0 <SPI_Pin_Init+0x898>
		else if((config->mode == SPI_Configurations.Mode.Half_Duplex_Slave) || (config->mode == SPI_Configurations.Mode.RX_Only_Master) || (config->mode == SPI_Configurations.Mode.TX_Only_Slave))
 80036c0:	687b      	ldr	r3, [r7, #4]
 80036c2:	891b      	ldrh	r3, [r3, #8]
 80036c4:	220e      	movs	r2, #14
 80036c6:	4293      	cmp	r3, r2
 80036c8:	d00a      	beq.n	80036e0 <SPI_Pin_Init+0x4c8>
 80036ca:	687b      	ldr	r3, [r7, #4]
 80036cc:	891b      	ldrh	r3, [r3, #8]
 80036ce:	220f      	movs	r2, #15
 80036d0:	4293      	cmp	r3, r2
 80036d2:	d005      	beq.n	80036e0 <SPI_Pin_Init+0x4c8>
 80036d4:	687b      	ldr	r3, [r7, #4]
 80036d6:	891b      	ldrh	r3, [r3, #8]
 80036d8:	2212      	movs	r2, #18
 80036da:	4293      	cmp	r3, r2
 80036dc:	f040 81e8 	bne.w	8003ab0 <SPI_Pin_Init+0x898>
			if(config->clock_pin == SPI_Configurations.Pin._SPI2_.CLK2.PB10) GPIO_Pin_Init(GPIOB, 10, GPIO_Configuration.Mode.Alternate_Function, GPIO_Configuration.Output_Type.Push_Pull, GPIO_Configuration.Speed.Very_High_Speed, GPIO_Configuration.Pull.No_Pull_Up_Down, GPIO_Configuration.Alternate_Functions.SPI_2);
 80036e0:	687b      	ldr	r3, [r7, #4]
 80036e2:	791b      	ldrb	r3, [r3, #4]
 80036e4:	461a      	mov	r2, r3
 80036e6:	2313      	movs	r3, #19
 80036e8:	429a      	cmp	r2, r3
 80036ea:	d10e      	bne.n	800370a <SPI_Pin_Init+0x4f2>
 80036ec:	2002      	movs	r0, #2
 80036ee:	2400      	movs	r4, #0
 80036f0:	2303      	movs	r3, #3
 80036f2:	2200      	movs	r2, #0
 80036f4:	2105      	movs	r1, #5
 80036f6:	9102      	str	r1, [sp, #8]
 80036f8:	9201      	str	r2, [sp, #4]
 80036fa:	9300      	str	r3, [sp, #0]
 80036fc:	4623      	mov	r3, r4
 80036fe:	4602      	mov	r2, r0
 8003700:	210a      	movs	r1, #10
 8003702:	4816      	ldr	r0, [pc, #88]	@ (800375c <SPI_Pin_Init+0x544>)
 8003704:	f7ff fb7c 	bl	8002e00 <GPIO_Pin_Init>
 8003708:	e013      	b.n	8003732 <SPI_Pin_Init+0x51a>
			else if(config->clock_pin == SPI_Configurations.Pin._SPI2_.CLK2.PB13) GPIO_Pin_Init(GPIOB, 13, GPIO_Configuration.Mode.Alternate_Function, GPIO_Configuration.Output_Type.Push_Pull, GPIO_Configuration.Speed.Very_High_Speed, GPIO_Configuration.Pull.No_Pull_Up_Down, GPIO_Configuration.Alternate_Functions.SPI_2);
 800370a:	687b      	ldr	r3, [r7, #4]
 800370c:	791b      	ldrb	r3, [r3, #4]
 800370e:	461a      	mov	r2, r3
 8003710:	2317      	movs	r3, #23
 8003712:	429a      	cmp	r2, r3
 8003714:	d10d      	bne.n	8003732 <SPI_Pin_Init+0x51a>
 8003716:	2002      	movs	r0, #2
 8003718:	2400      	movs	r4, #0
 800371a:	2303      	movs	r3, #3
 800371c:	2200      	movs	r2, #0
 800371e:	2105      	movs	r1, #5
 8003720:	9102      	str	r1, [sp, #8]
 8003722:	9201      	str	r2, [sp, #4]
 8003724:	9300      	str	r3, [sp, #0]
 8003726:	4623      	mov	r3, r4
 8003728:	4602      	mov	r2, r0
 800372a:	210d      	movs	r1, #13
 800372c:	480b      	ldr	r0, [pc, #44]	@ (800375c <SPI_Pin_Init+0x544>)
 800372e:	f7ff fb67 	bl	8002e00 <GPIO_Pin_Init>
			if(config->miso_pin == SPI_Configurations.Pin._SPI2_.MISO2.PB14) GPIO_Pin_Init(GPIOB, 14, GPIO_Configuration.Mode.Alternate_Function, GPIO_Configuration.Output_Type.Push_Pull, GPIO_Configuration.Speed.Very_High_Speed, GPIO_Configuration.Pull.No_Pull_Up_Down, GPIO_Configuration.Alternate_Functions.SPI_2);
 8003732:	687b      	ldr	r3, [r7, #4]
 8003734:	799b      	ldrb	r3, [r3, #6]
 8003736:	461a      	mov	r2, r3
 8003738:	231b      	movs	r3, #27
 800373a:	429a      	cmp	r2, r3
 800373c:	d114      	bne.n	8003768 <SPI_Pin_Init+0x550>
 800373e:	2002      	movs	r0, #2
 8003740:	2400      	movs	r4, #0
 8003742:	2303      	movs	r3, #3
 8003744:	2200      	movs	r2, #0
 8003746:	2105      	movs	r1, #5
 8003748:	9102      	str	r1, [sp, #8]
 800374a:	9201      	str	r2, [sp, #4]
 800374c:	9300      	str	r3, [sp, #0]
 800374e:	4623      	mov	r3, r4
 8003750:	4602      	mov	r2, r0
 8003752:	210e      	movs	r1, #14
 8003754:	4801      	ldr	r0, [pc, #4]	@ (800375c <SPI_Pin_Init+0x544>)
 8003756:	f7ff fb53 	bl	8002e00 <GPIO_Pin_Init>
 800375a:	e019      	b.n	8003790 <SPI_Pin_Init+0x578>
 800375c:	40020400 	.word	0x40020400
 8003760:	40003800 	.word	0x40003800
 8003764:	40020800 	.word	0x40020800
			else if(config->miso_pin == SPI_Configurations.Pin._SPI2_.MISO2.PC2) GPIO_Pin_Init(GPIOC, 2, GPIO_Configuration.Mode.Alternate_Function, GPIO_Configuration.Output_Type.Push_Pull, GPIO_Configuration.Speed.Very_High_Speed, GPIO_Configuration.Pull.No_Pull_Up_Down, GPIO_Configuration.Alternate_Functions.SPI_2);
 8003768:	687b      	ldr	r3, [r7, #4]
 800376a:	799b      	ldrb	r3, [r3, #6]
 800376c:	461a      	mov	r2, r3
 800376e:	2320      	movs	r3, #32
 8003770:	429a      	cmp	r2, r3
 8003772:	d10d      	bne.n	8003790 <SPI_Pin_Init+0x578>
 8003774:	2002      	movs	r0, #2
 8003776:	2400      	movs	r4, #0
 8003778:	2303      	movs	r3, #3
 800377a:	2200      	movs	r2, #0
 800377c:	2105      	movs	r1, #5
 800377e:	9102      	str	r1, [sp, #8]
 8003780:	9201      	str	r2, [sp, #4]
 8003782:	9300      	str	r3, [sp, #0]
 8003784:	4623      	mov	r3, r4
 8003786:	4602      	mov	r2, r0
 8003788:	2102      	movs	r1, #2
 800378a:	489f      	ldr	r0, [pc, #636]	@ (8003a08 <SPI_Pin_Init+0x7f0>)
 800378c:	f7ff fb38 	bl	8002e00 <GPIO_Pin_Init>
			config->Port -> CR1 |= SPI_CR1_BIDIMODE;
 8003790:	687b      	ldr	r3, [r7, #4]
 8003792:	681b      	ldr	r3, [r3, #0]
 8003794:	681a      	ldr	r2, [r3, #0]
 8003796:	687b      	ldr	r3, [r7, #4]
 8003798:	681b      	ldr	r3, [r3, #0]
 800379a:	f442 4200 	orr.w	r2, r2, #32768	@ 0x8000
 800379e:	601a      	str	r2, [r3, #0]
			config->Port -> CR1 &= ~SPI_CR1_BIDIOE;
 80037a0:	687b      	ldr	r3, [r7, #4]
 80037a2:	681b      	ldr	r3, [r3, #0]
 80037a4:	681a      	ldr	r2, [r3, #0]
 80037a6:	687b      	ldr	r3, [r7, #4]
 80037a8:	681b      	ldr	r3, [r3, #0]
 80037aa:	f422 4280 	bic.w	r2, r2, #16384	@ 0x4000
 80037ae:	601a      	str	r2, [r3, #0]
}
 80037b0:	e17e      	b.n	8003ab0 <SPI_Pin_Init+0x898>
	else if(config -> Port == SPI3)
 80037b2:	687b      	ldr	r3, [r7, #4]
 80037b4:	681b      	ldr	r3, [r3, #0]
 80037b6:	4a95      	ldr	r2, [pc, #596]	@ (8003a0c <SPI_Pin_Init+0x7f4>)
 80037b8:	4293      	cmp	r3, r2
 80037ba:	f040 8179 	bne.w	8003ab0 <SPI_Pin_Init+0x898>
		if((config->mode == SPI_Configurations.Mode.Full_Duplex_Master) || (config->mode == SPI_Configurations.Mode.Full_Duplex_Slave))
 80037be:	687b      	ldr	r3, [r7, #4]
 80037c0:	891b      	ldrh	r3, [r3, #8]
 80037c2:	220b      	movs	r2, #11
 80037c4:	4293      	cmp	r3, r2
 80037c6:	d005      	beq.n	80037d4 <SPI_Pin_Init+0x5bc>
 80037c8:	687b      	ldr	r3, [r7, #4]
 80037ca:	891b      	ldrh	r3, [r3, #8]
 80037cc:	220c      	movs	r2, #12
 80037ce:	4293      	cmp	r3, r2
 80037d0:	f040 8084 	bne.w	80038dc <SPI_Pin_Init+0x6c4>
			if(config->clock_pin == SPI_Configurations.Pin._SPI3_.CLK3.PB3) GPIO_Pin_Init(GPIOB, 3, GPIO_Configuration.Mode.Alternate_Function, GPIO_Configuration.Output_Type.Push_Pull, GPIO_Configuration.Speed.Very_High_Speed, GPIO_Configuration.Pull.No_Pull_Up_Down, GPIO_Configuration.Alternate_Functions.SPI_3);
 80037d4:	687b      	ldr	r3, [r7, #4]
 80037d6:	791b      	ldrb	r3, [r3, #4]
 80037d8:	461a      	mov	r2, r3
 80037da:	2317      	movs	r3, #23
 80037dc:	429a      	cmp	r2, r3
 80037de:	d10e      	bne.n	80037fe <SPI_Pin_Init+0x5e6>
 80037e0:	2002      	movs	r0, #2
 80037e2:	2400      	movs	r4, #0
 80037e4:	2303      	movs	r3, #3
 80037e6:	2200      	movs	r2, #0
 80037e8:	2106      	movs	r1, #6
 80037ea:	9102      	str	r1, [sp, #8]
 80037ec:	9201      	str	r2, [sp, #4]
 80037ee:	9300      	str	r3, [sp, #0]
 80037f0:	4623      	mov	r3, r4
 80037f2:	4602      	mov	r2, r0
 80037f4:	2103      	movs	r1, #3
 80037f6:	4886      	ldr	r0, [pc, #536]	@ (8003a10 <SPI_Pin_Init+0x7f8>)
 80037f8:	f7ff fb02 	bl	8002e00 <GPIO_Pin_Init>
 80037fc:	e013      	b.n	8003826 <SPI_Pin_Init+0x60e>
			else if(config->clock_pin == SPI_Configurations.Pin._SPI3_.CLK3.PC10) GPIO_Pin_Init(GPIOC, 10, GPIO_Configuration.Mode.Alternate_Function, GPIO_Configuration.Output_Type.Push_Pull, GPIO_Configuration.Speed.Very_High_Speed, GPIO_Configuration.Pull.No_Pull_Up_Down, GPIO_Configuration.Alternate_Functions.SPI_3);
 80037fe:	687b      	ldr	r3, [r7, #4]
 8003800:	791b      	ldrb	r3, [r3, #4]
 8003802:	461a      	mov	r2, r3
 8003804:	2325      	movs	r3, #37	@ 0x25
 8003806:	429a      	cmp	r2, r3
 8003808:	d10d      	bne.n	8003826 <SPI_Pin_Init+0x60e>
 800380a:	2002      	movs	r0, #2
 800380c:	2400      	movs	r4, #0
 800380e:	2303      	movs	r3, #3
 8003810:	2200      	movs	r2, #0
 8003812:	2106      	movs	r1, #6
 8003814:	9102      	str	r1, [sp, #8]
 8003816:	9201      	str	r2, [sp, #4]
 8003818:	9300      	str	r3, [sp, #0]
 800381a:	4623      	mov	r3, r4
 800381c:	4602      	mov	r2, r0
 800381e:	210a      	movs	r1, #10
 8003820:	4879      	ldr	r0, [pc, #484]	@ (8003a08 <SPI_Pin_Init+0x7f0>)
 8003822:	f7ff faed 	bl	8002e00 <GPIO_Pin_Init>
			if(config->miso_pin == SPI_Configurations.Pin._SPI3_.MISO3.PB4) GPIO_Pin_Init(GPIOB, 4, GPIO_Configuration.Mode.Alternate_Function, GPIO_Configuration.Output_Type.Push_Pull, GPIO_Configuration.Speed.Very_High_Speed, GPIO_Configuration.Pull.No_Pull_Up_Down, GPIO_Configuration.Alternate_Functions.SPI_3);
 8003826:	687b      	ldr	r3, [r7, #4]
 8003828:	799b      	ldrb	r3, [r3, #6]
 800382a:	461a      	mov	r2, r3
 800382c:	2318      	movs	r3, #24
 800382e:	429a      	cmp	r2, r3
 8003830:	d10e      	bne.n	8003850 <SPI_Pin_Init+0x638>
 8003832:	2002      	movs	r0, #2
 8003834:	2400      	movs	r4, #0
 8003836:	2303      	movs	r3, #3
 8003838:	2200      	movs	r2, #0
 800383a:	2106      	movs	r1, #6
 800383c:	9102      	str	r1, [sp, #8]
 800383e:	9201      	str	r2, [sp, #4]
 8003840:	9300      	str	r3, [sp, #0]
 8003842:	4623      	mov	r3, r4
 8003844:	4602      	mov	r2, r0
 8003846:	2104      	movs	r1, #4
 8003848:	4871      	ldr	r0, [pc, #452]	@ (8003a10 <SPI_Pin_Init+0x7f8>)
 800384a:	f7ff fad9 	bl	8002e00 <GPIO_Pin_Init>
 800384e:	e013      	b.n	8003878 <SPI_Pin_Init+0x660>
			else if(config->miso_pin == SPI_Configurations.Pin._SPI3_.MISO3.PC11) GPIO_Pin_Init(GPIOC,11, GPIO_Configuration.Mode.Alternate_Function, GPIO_Configuration.Output_Type.Push_Pull, GPIO_Configuration.Speed.Very_High_Speed, GPIO_Configuration.Pull.No_Pull_Up_Down, GPIO_Configuration.Alternate_Functions.SPI_3);
 8003850:	687b      	ldr	r3, [r7, #4]
 8003852:	799b      	ldrb	r3, [r3, #6]
 8003854:	461a      	mov	r2, r3
 8003856:	2327      	movs	r3, #39	@ 0x27
 8003858:	429a      	cmp	r2, r3
 800385a:	d10d      	bne.n	8003878 <SPI_Pin_Init+0x660>
 800385c:	2002      	movs	r0, #2
 800385e:	2400      	movs	r4, #0
 8003860:	2303      	movs	r3, #3
 8003862:	2200      	movs	r2, #0
 8003864:	2106      	movs	r1, #6
 8003866:	9102      	str	r1, [sp, #8]
 8003868:	9201      	str	r2, [sp, #4]
 800386a:	9300      	str	r3, [sp, #0]
 800386c:	4623      	mov	r3, r4
 800386e:	4602      	mov	r2, r0
 8003870:	210b      	movs	r1, #11
 8003872:	4865      	ldr	r0, [pc, #404]	@ (8003a08 <SPI_Pin_Init+0x7f0>)
 8003874:	f7ff fac4 	bl	8002e00 <GPIO_Pin_Init>
			if(config->mosi_pin == SPI_Configurations.Pin._SPI3_.MOSI3.PB5) GPIO_Pin_Init(GPIOB, 5, GPIO_Configuration.Mode.Alternate_Function, GPIO_Configuration.Output_Type.Push_Pull, GPIO_Configuration.Speed.Very_High_Speed, GPIO_Configuration.Pull.No_Pull_Up_Down, GPIO_Configuration.Alternate_Functions.SPI_3);
 8003878:	687b      	ldr	r3, [r7, #4]
 800387a:	795b      	ldrb	r3, [r3, #5]
 800387c:	461a      	mov	r2, r3
 800387e:	2319      	movs	r3, #25
 8003880:	429a      	cmp	r2, r3
 8003882:	d10e      	bne.n	80038a2 <SPI_Pin_Init+0x68a>
 8003884:	2002      	movs	r0, #2
 8003886:	2400      	movs	r4, #0
 8003888:	2303      	movs	r3, #3
 800388a:	2200      	movs	r2, #0
 800388c:	2106      	movs	r1, #6
 800388e:	9102      	str	r1, [sp, #8]
 8003890:	9201      	str	r2, [sp, #4]
 8003892:	9300      	str	r3, [sp, #0]
 8003894:	4623      	mov	r3, r4
 8003896:	4602      	mov	r2, r0
 8003898:	2105      	movs	r1, #5
 800389a:	485d      	ldr	r0, [pc, #372]	@ (8003a10 <SPI_Pin_Init+0x7f8>)
 800389c:	f7ff fab0 	bl	8002e00 <GPIO_Pin_Init>
 80038a0:	e013      	b.n	80038ca <SPI_Pin_Init+0x6b2>
			else if(config->mosi_pin == SPI_Configurations.Pin._SPI3_.MOSI3.PC12) GPIO_Pin_Init(GPIOC, 12, GPIO_Configuration.Mode.Alternate_Function, GPIO_Configuration.Output_Type.Push_Pull, GPIO_Configuration.Speed.Very_High_Speed, GPIO_Configuration.Pull.No_Pull_Up_Down, GPIO_Configuration.Alternate_Functions.SPI_3);
 80038a2:	687b      	ldr	r3, [r7, #4]
 80038a4:	795b      	ldrb	r3, [r3, #5]
 80038a6:	461a      	mov	r2, r3
 80038a8:	2327      	movs	r3, #39	@ 0x27
 80038aa:	429a      	cmp	r2, r3
 80038ac:	d10d      	bne.n	80038ca <SPI_Pin_Init+0x6b2>
 80038ae:	2002      	movs	r0, #2
 80038b0:	2400      	movs	r4, #0
 80038b2:	2303      	movs	r3, #3
 80038b4:	2200      	movs	r2, #0
 80038b6:	2106      	movs	r1, #6
 80038b8:	9102      	str	r1, [sp, #8]
 80038ba:	9201      	str	r2, [sp, #4]
 80038bc:	9300      	str	r3, [sp, #0]
 80038be:	4623      	mov	r3, r4
 80038c0:	4602      	mov	r2, r0
 80038c2:	210c      	movs	r1, #12
 80038c4:	4850      	ldr	r0, [pc, #320]	@ (8003a08 <SPI_Pin_Init+0x7f0>)
 80038c6:	f7ff fa9b 	bl	8002e00 <GPIO_Pin_Init>
			config->Port -> CR1 &= ~SPI_CR1_BIDIMODE;
 80038ca:	687b      	ldr	r3, [r7, #4]
 80038cc:	681b      	ldr	r3, [r3, #0]
 80038ce:	681a      	ldr	r2, [r3, #0]
 80038d0:	687b      	ldr	r3, [r7, #4]
 80038d2:	681b      	ldr	r3, [r3, #0]
 80038d4:	f422 4200 	bic.w	r2, r2, #32768	@ 0x8000
 80038d8:	601a      	str	r2, [r3, #0]
 80038da:	e0e9      	b.n	8003ab0 <SPI_Pin_Init+0x898>
		else if((config->mode == SPI_Configurations.Mode.Half_Duplex_Master) || (config->mode == SPI_Configurations.Mode.TX_Only_Master) || (config->mode == SPI_Configurations.Mode.RX_Only_Slave))
 80038dc:	687b      	ldr	r3, [r7, #4]
 80038de:	891b      	ldrh	r3, [r3, #8]
 80038e0:	220d      	movs	r2, #13
 80038e2:	4293      	cmp	r3, r2
 80038e4:	d009      	beq.n	80038fa <SPI_Pin_Init+0x6e2>
 80038e6:	687b      	ldr	r3, [r7, #4]
 80038e8:	891b      	ldrh	r3, [r3, #8]
 80038ea:	2211      	movs	r2, #17
 80038ec:	4293      	cmp	r3, r2
 80038ee:	d004      	beq.n	80038fa <SPI_Pin_Init+0x6e2>
 80038f0:	687b      	ldr	r3, [r7, #4]
 80038f2:	891b      	ldrh	r3, [r3, #8]
 80038f4:	2210      	movs	r2, #16
 80038f6:	4293      	cmp	r3, r2
 80038f8:	d162      	bne.n	80039c0 <SPI_Pin_Init+0x7a8>
			if(config->clock_pin == SPI_Configurations.Pin._SPI3_.CLK3.PB3) GPIO_Pin_Init(GPIOB, 3, GPIO_Configuration.Mode.Alternate_Function, GPIO_Configuration.Output_Type.Push_Pull, GPIO_Configuration.Speed.Very_High_Speed, GPIO_Configuration.Pull.No_Pull_Up_Down, GPIO_Configuration.Alternate_Functions.SPI_3);
 80038fa:	687b      	ldr	r3, [r7, #4]
 80038fc:	791b      	ldrb	r3, [r3, #4]
 80038fe:	461a      	mov	r2, r3
 8003900:	2317      	movs	r3, #23
 8003902:	429a      	cmp	r2, r3
 8003904:	d10e      	bne.n	8003924 <SPI_Pin_Init+0x70c>
 8003906:	2002      	movs	r0, #2
 8003908:	2400      	movs	r4, #0
 800390a:	2303      	movs	r3, #3
 800390c:	2200      	movs	r2, #0
 800390e:	2106      	movs	r1, #6
 8003910:	9102      	str	r1, [sp, #8]
 8003912:	9201      	str	r2, [sp, #4]
 8003914:	9300      	str	r3, [sp, #0]
 8003916:	4623      	mov	r3, r4
 8003918:	4602      	mov	r2, r0
 800391a:	2103      	movs	r1, #3
 800391c:	483c      	ldr	r0, [pc, #240]	@ (8003a10 <SPI_Pin_Init+0x7f8>)
 800391e:	f7ff fa6f 	bl	8002e00 <GPIO_Pin_Init>
 8003922:	e013      	b.n	800394c <SPI_Pin_Init+0x734>
			else if(config->clock_pin == SPI_Configurations.Pin._SPI3_.CLK3.PC10) GPIO_Pin_Init(GPIOC, 10, GPIO_Configuration.Mode.Alternate_Function, GPIO_Configuration.Output_Type.Push_Pull, GPIO_Configuration.Speed.Very_High_Speed, GPIO_Configuration.Pull.No_Pull_Up_Down, GPIO_Configuration.Alternate_Functions.SPI_3);
 8003924:	687b      	ldr	r3, [r7, #4]
 8003926:	791b      	ldrb	r3, [r3, #4]
 8003928:	461a      	mov	r2, r3
 800392a:	2325      	movs	r3, #37	@ 0x25
 800392c:	429a      	cmp	r2, r3
 800392e:	d10d      	bne.n	800394c <SPI_Pin_Init+0x734>
 8003930:	2002      	movs	r0, #2
 8003932:	2400      	movs	r4, #0
 8003934:	2303      	movs	r3, #3
 8003936:	2200      	movs	r2, #0
 8003938:	2106      	movs	r1, #6
 800393a:	9102      	str	r1, [sp, #8]
 800393c:	9201      	str	r2, [sp, #4]
 800393e:	9300      	str	r3, [sp, #0]
 8003940:	4623      	mov	r3, r4
 8003942:	4602      	mov	r2, r0
 8003944:	210a      	movs	r1, #10
 8003946:	4830      	ldr	r0, [pc, #192]	@ (8003a08 <SPI_Pin_Init+0x7f0>)
 8003948:	f7ff fa5a 	bl	8002e00 <GPIO_Pin_Init>
			if(config->miso_pin == SPI_Configurations.Pin._SPI3_.MISO3.PB4) GPIO_Pin_Init(GPIOB, 4, GPIO_Configuration.Mode.Alternate_Function, GPIO_Configuration.Output_Type.Push_Pull, GPIO_Configuration.Speed.Very_High_Speed, GPIO_Configuration.Pull.No_Pull_Up_Down, GPIO_Configuration.Alternate_Functions.SPI_3);
 800394c:	687b      	ldr	r3, [r7, #4]
 800394e:	799b      	ldrb	r3, [r3, #6]
 8003950:	461a      	mov	r2, r3
 8003952:	2318      	movs	r3, #24
 8003954:	429a      	cmp	r2, r3
 8003956:	d10e      	bne.n	8003976 <SPI_Pin_Init+0x75e>
 8003958:	2002      	movs	r0, #2
 800395a:	2400      	movs	r4, #0
 800395c:	2303      	movs	r3, #3
 800395e:	2200      	movs	r2, #0
 8003960:	2106      	movs	r1, #6
 8003962:	9102      	str	r1, [sp, #8]
 8003964:	9201      	str	r2, [sp, #4]
 8003966:	9300      	str	r3, [sp, #0]
 8003968:	4623      	mov	r3, r4
 800396a:	4602      	mov	r2, r0
 800396c:	2104      	movs	r1, #4
 800396e:	4828      	ldr	r0, [pc, #160]	@ (8003a10 <SPI_Pin_Init+0x7f8>)
 8003970:	f7ff fa46 	bl	8002e00 <GPIO_Pin_Init>
 8003974:	e013      	b.n	800399e <SPI_Pin_Init+0x786>
			else if(config->miso_pin == SPI_Configurations.Pin._SPI3_.MISO3.PC11) GPIO_Pin_Init(GPIOC,11, GPIO_Configuration.Mode.Alternate_Function, GPIO_Configuration.Output_Type.Push_Pull, GPIO_Configuration.Speed.Very_High_Speed, GPIO_Configuration.Pull.No_Pull_Up_Down, GPIO_Configuration.Alternate_Functions.SPI_3);
 8003976:	687b      	ldr	r3, [r7, #4]
 8003978:	799b      	ldrb	r3, [r3, #6]
 800397a:	461a      	mov	r2, r3
 800397c:	2327      	movs	r3, #39	@ 0x27
 800397e:	429a      	cmp	r2, r3
 8003980:	d10d      	bne.n	800399e <SPI_Pin_Init+0x786>
 8003982:	2002      	movs	r0, #2
 8003984:	2400      	movs	r4, #0
 8003986:	2303      	movs	r3, #3
 8003988:	2200      	movs	r2, #0
 800398a:	2106      	movs	r1, #6
 800398c:	9102      	str	r1, [sp, #8]
 800398e:	9201      	str	r2, [sp, #4]
 8003990:	9300      	str	r3, [sp, #0]
 8003992:	4623      	mov	r3, r4
 8003994:	4602      	mov	r2, r0
 8003996:	210b      	movs	r1, #11
 8003998:	481b      	ldr	r0, [pc, #108]	@ (8003a08 <SPI_Pin_Init+0x7f0>)
 800399a:	f7ff fa31 	bl	8002e00 <GPIO_Pin_Init>
			config->Port -> CR1 |= SPI_CR1_BIDIMODE;
 800399e:	687b      	ldr	r3, [r7, #4]
 80039a0:	681b      	ldr	r3, [r3, #0]
 80039a2:	681a      	ldr	r2, [r3, #0]
 80039a4:	687b      	ldr	r3, [r7, #4]
 80039a6:	681b      	ldr	r3, [r3, #0]
 80039a8:	f442 4200 	orr.w	r2, r2, #32768	@ 0x8000
 80039ac:	601a      	str	r2, [r3, #0]
			config->Port -> CR1 |= SPI_CR1_BIDIOE;
 80039ae:	687b      	ldr	r3, [r7, #4]
 80039b0:	681b      	ldr	r3, [r3, #0]
 80039b2:	681a      	ldr	r2, [r3, #0]
 80039b4:	687b      	ldr	r3, [r7, #4]
 80039b6:	681b      	ldr	r3, [r3, #0]
 80039b8:	f442 4280 	orr.w	r2, r2, #16384	@ 0x4000
 80039bc:	601a      	str	r2, [r3, #0]
 80039be:	e077      	b.n	8003ab0 <SPI_Pin_Init+0x898>
		else if((config->mode == SPI_Configurations.Mode.Half_Duplex_Slave) || (config->mode == SPI_Configurations.Mode.RX_Only_Master) || (config->mode == SPI_Configurations.Mode.TX_Only_Slave))
 80039c0:	687b      	ldr	r3, [r7, #4]
 80039c2:	891b      	ldrh	r3, [r3, #8]
 80039c4:	220e      	movs	r2, #14
 80039c6:	4293      	cmp	r3, r2
 80039c8:	d009      	beq.n	80039de <SPI_Pin_Init+0x7c6>
 80039ca:	687b      	ldr	r3, [r7, #4]
 80039cc:	891b      	ldrh	r3, [r3, #8]
 80039ce:	220f      	movs	r2, #15
 80039d0:	4293      	cmp	r3, r2
 80039d2:	d004      	beq.n	80039de <SPI_Pin_Init+0x7c6>
 80039d4:	687b      	ldr	r3, [r7, #4]
 80039d6:	891b      	ldrh	r3, [r3, #8]
 80039d8:	2212      	movs	r2, #18
 80039da:	4293      	cmp	r3, r2
 80039dc:	d168      	bne.n	8003ab0 <SPI_Pin_Init+0x898>
			if(config->clock_pin == SPI_Configurations.Pin._SPI3_.CLK3.PB3) GPIO_Pin_Init(GPIOB, 3, GPIO_Configuration.Mode.Alternate_Function, GPIO_Configuration.Output_Type.Push_Pull, GPIO_Configuration.Speed.Very_High_Speed, GPIO_Configuration.Pull.No_Pull_Up_Down, GPIO_Configuration.Alternate_Functions.SPI_3);
 80039de:	687b      	ldr	r3, [r7, #4]
 80039e0:	791b      	ldrb	r3, [r3, #4]
 80039e2:	461a      	mov	r2, r3
 80039e4:	2317      	movs	r3, #23
 80039e6:	429a      	cmp	r2, r3
 80039e8:	d114      	bne.n	8003a14 <SPI_Pin_Init+0x7fc>
 80039ea:	2002      	movs	r0, #2
 80039ec:	2400      	movs	r4, #0
 80039ee:	2303      	movs	r3, #3
 80039f0:	2200      	movs	r2, #0
 80039f2:	2106      	movs	r1, #6
 80039f4:	9102      	str	r1, [sp, #8]
 80039f6:	9201      	str	r2, [sp, #4]
 80039f8:	9300      	str	r3, [sp, #0]
 80039fa:	4623      	mov	r3, r4
 80039fc:	4602      	mov	r2, r0
 80039fe:	2103      	movs	r1, #3
 8003a00:	4803      	ldr	r0, [pc, #12]	@ (8003a10 <SPI_Pin_Init+0x7f8>)
 8003a02:	f7ff f9fd 	bl	8002e00 <GPIO_Pin_Init>
 8003a06:	e019      	b.n	8003a3c <SPI_Pin_Init+0x824>
 8003a08:	40020800 	.word	0x40020800
 8003a0c:	40003c00 	.word	0x40003c00
 8003a10:	40020400 	.word	0x40020400
			else if(config->clock_pin == SPI_Configurations.Pin._SPI3_.CLK3.PC10) GPIO_Pin_Init(GPIOC, 10, GPIO_Configuration.Mode.Alternate_Function, GPIO_Configuration.Output_Type.Push_Pull, GPIO_Configuration.Speed.Very_High_Speed, GPIO_Configuration.Pull.No_Pull_Up_Down, GPIO_Configuration.Alternate_Functions.SPI_3);
 8003a14:	687b      	ldr	r3, [r7, #4]
 8003a16:	791b      	ldrb	r3, [r3, #4]
 8003a18:	461a      	mov	r2, r3
 8003a1a:	2325      	movs	r3, #37	@ 0x25
 8003a1c:	429a      	cmp	r2, r3
 8003a1e:	d10d      	bne.n	8003a3c <SPI_Pin_Init+0x824>
 8003a20:	2002      	movs	r0, #2
 8003a22:	2400      	movs	r4, #0
 8003a24:	2303      	movs	r3, #3
 8003a26:	2200      	movs	r2, #0
 8003a28:	2106      	movs	r1, #6
 8003a2a:	9102      	str	r1, [sp, #8]
 8003a2c:	9201      	str	r2, [sp, #4]
 8003a2e:	9300      	str	r3, [sp, #0]
 8003a30:	4623      	mov	r3, r4
 8003a32:	4602      	mov	r2, r0
 8003a34:	210a      	movs	r1, #10
 8003a36:	4820      	ldr	r0, [pc, #128]	@ (8003ab8 <SPI_Pin_Init+0x8a0>)
 8003a38:	f7ff f9e2 	bl	8002e00 <GPIO_Pin_Init>
			if(config->mosi_pin == SPI_Configurations.Pin._SPI3_.MOSI3.PB5) GPIO_Pin_Init(GPIOB, 5, GPIO_Configuration.Mode.Alternate_Function, GPIO_Configuration.Output_Type.Push_Pull, GPIO_Configuration.Speed.Very_High_Speed, GPIO_Configuration.Pull.No_Pull_Up_Down, GPIO_Configuration.Alternate_Functions.SPI_3);
 8003a3c:	687b      	ldr	r3, [r7, #4]
 8003a3e:	795b      	ldrb	r3, [r3, #5]
 8003a40:	461a      	mov	r2, r3
 8003a42:	2319      	movs	r3, #25
 8003a44:	429a      	cmp	r2, r3
 8003a46:	d10e      	bne.n	8003a66 <SPI_Pin_Init+0x84e>
 8003a48:	2002      	movs	r0, #2
 8003a4a:	2400      	movs	r4, #0
 8003a4c:	2303      	movs	r3, #3
 8003a4e:	2200      	movs	r2, #0
 8003a50:	2106      	movs	r1, #6
 8003a52:	9102      	str	r1, [sp, #8]
 8003a54:	9201      	str	r2, [sp, #4]
 8003a56:	9300      	str	r3, [sp, #0]
 8003a58:	4623      	mov	r3, r4
 8003a5a:	4602      	mov	r2, r0
 8003a5c:	2105      	movs	r1, #5
 8003a5e:	4817      	ldr	r0, [pc, #92]	@ (8003abc <SPI_Pin_Init+0x8a4>)
 8003a60:	f7ff f9ce 	bl	8002e00 <GPIO_Pin_Init>
 8003a64:	e013      	b.n	8003a8e <SPI_Pin_Init+0x876>
			else if(config->mosi_pin == SPI_Configurations.Pin._SPI3_.MOSI3.PC12) GPIO_Pin_Init(GPIOC, 12, GPIO_Configuration.Mode.Alternate_Function, GPIO_Configuration.Output_Type.Push_Pull, GPIO_Configuration.Speed.Very_High_Speed, GPIO_Configuration.Pull.No_Pull_Up_Down, GPIO_Configuration.Alternate_Functions.SPI_3);
 8003a66:	687b      	ldr	r3, [r7, #4]
 8003a68:	795b      	ldrb	r3, [r3, #5]
 8003a6a:	461a      	mov	r2, r3
 8003a6c:	2327      	movs	r3, #39	@ 0x27
 8003a6e:	429a      	cmp	r2, r3
 8003a70:	d10d      	bne.n	8003a8e <SPI_Pin_Init+0x876>
 8003a72:	2002      	movs	r0, #2
 8003a74:	2400      	movs	r4, #0
 8003a76:	2303      	movs	r3, #3
 8003a78:	2200      	movs	r2, #0
 8003a7a:	2106      	movs	r1, #6
 8003a7c:	9102      	str	r1, [sp, #8]
 8003a7e:	9201      	str	r2, [sp, #4]
 8003a80:	9300      	str	r3, [sp, #0]
 8003a82:	4623      	mov	r3, r4
 8003a84:	4602      	mov	r2, r0
 8003a86:	210c      	movs	r1, #12
 8003a88:	480b      	ldr	r0, [pc, #44]	@ (8003ab8 <SPI_Pin_Init+0x8a0>)
 8003a8a:	f7ff f9b9 	bl	8002e00 <GPIO_Pin_Init>
			config->Port -> CR1 |= SPI_CR1_BIDIMODE;
 8003a8e:	687b      	ldr	r3, [r7, #4]
 8003a90:	681b      	ldr	r3, [r3, #0]
 8003a92:	681a      	ldr	r2, [r3, #0]
 8003a94:	687b      	ldr	r3, [r7, #4]
 8003a96:	681b      	ldr	r3, [r3, #0]
 8003a98:	f442 4200 	orr.w	r2, r2, #32768	@ 0x8000
 8003a9c:	601a      	str	r2, [r3, #0]
			config->Port -> CR1 &= ~SPI_CR1_BIDIOE;
 8003a9e:	687b      	ldr	r3, [r7, #4]
 8003aa0:	681b      	ldr	r3, [r3, #0]
 8003aa2:	681a      	ldr	r2, [r3, #0]
 8003aa4:	687b      	ldr	r3, [r7, #4]
 8003aa6:	681b      	ldr	r3, [r3, #0]
 8003aa8:	f422 4280 	bic.w	r2, r2, #16384	@ 0x4000
 8003aac:	601a      	str	r2, [r3, #0]
}
 8003aae:	e7ff      	b.n	8003ab0 <SPI_Pin_Init+0x898>
 8003ab0:	bf00      	nop
 8003ab2:	370c      	adds	r7, #12
 8003ab4:	46bd      	mov	sp, r7
 8003ab6:	bd90      	pop	{r4, r7, pc}
 8003ab8:	40020800 	.word	0x40020800
 8003abc:	40020400 	.word	0x40020400

08003ac0 <SPI_Init>:
 *
 * @param[in] config Pointer to the SPI configuration structure.
 * @return int8_t Returns 1 on success, -1 on failure.
 */
int8_t SPI_Init(SPI_Config *config)
{
 8003ac0:	b580      	push	{r7, lr}
 8003ac2:	b082      	sub	sp, #8
 8003ac4:	af00      	add	r7, sp, #0
 8003ac6:	6078      	str	r0, [r7, #4]
//	}
//	else if(config->type == SPI_Configurations.Type.Slave){
//		GPIO_Pin_Init(config->NSS_Port, config->NSS_Pin, GPIO_Configuration.Mode.Input, GPIO_Configuration.Output_Type.Push_Pull, GPIO_Configuration.Speed.Very_High_Speed, GPIO_Configuration.Pull.Pull_Up, GPIO_Configuration.Alternate_Functions.None);
//	}

	SPI_Clock_Enable(config);
 8003ac8:	6878      	ldr	r0, [r7, #4]
 8003aca:	f7ff fb6b 	bl	80031a4 <SPI_Clock_Enable>
	SPI_Pin_Init(config);
 8003ace:	6878      	ldr	r0, [r7, #4]
 8003ad0:	f7ff fba2 	bl	8003218 <SPI_Pin_Init>

//	SPI_NSS_High(config);

	config -> Port -> CR1 &= ~SPI_CR1_SPE;
 8003ad4:	687b      	ldr	r3, [r7, #4]
 8003ad6:	681b      	ldr	r3, [r3, #0]
 8003ad8:	681a      	ldr	r2, [r3, #0]
 8003ada:	687b      	ldr	r3, [r7, #4]
 8003adc:	681b      	ldr	r3, [r3, #0]
 8003ade:	f022 0240 	bic.w	r2, r2, #64	@ 0x40
 8003ae2:	601a      	str	r2, [r3, #0]



	if((config -> Port == SPI1) || (config -> Port == SPI2) || (config -> Port == SPI3))
 8003ae4:	687b      	ldr	r3, [r7, #4]
 8003ae6:	681b      	ldr	r3, [r3, #0]
 8003ae8:	4a89      	ldr	r2, [pc, #548]	@ (8003d10 <SPI_Init+0x250>)
 8003aea:	4293      	cmp	r3, r2
 8003aec:	d00a      	beq.n	8003b04 <SPI_Init+0x44>
 8003aee:	687b      	ldr	r3, [r7, #4]
 8003af0:	681b      	ldr	r3, [r3, #0]
 8003af2:	4a88      	ldr	r2, [pc, #544]	@ (8003d14 <SPI_Init+0x254>)
 8003af4:	4293      	cmp	r3, r2
 8003af6:	d005      	beq.n	8003b04 <SPI_Init+0x44>
 8003af8:	687b      	ldr	r3, [r7, #4]
 8003afa:	681b      	ldr	r3, [r3, #0]
 8003afc:	4a86      	ldr	r2, [pc, #536]	@ (8003d18 <SPI_Init+0x258>)
 8003afe:	4293      	cmp	r3, r2
 8003b00:	f040 81e2 	bne.w	8003ec8 <SPI_Init+0x408>
	{

		config -> Port ->CR1 |= SPI_CR1_SSM | SPI_CR1_SSI;
 8003b04:	687b      	ldr	r3, [r7, #4]
 8003b06:	681b      	ldr	r3, [r3, #0]
 8003b08:	681a      	ldr	r2, [r3, #0]
 8003b0a:	687b      	ldr	r3, [r7, #4]
 8003b0c:	681b      	ldr	r3, [r3, #0]
 8003b0e:	f442 7240 	orr.w	r2, r2, #768	@ 0x300
 8003b12:	601a      	str	r2, [r3, #0]


		     if(config -> clock_phase == SPI_Configurations.Clock_Phase.Low_0) config-> Port -> CR1 &= ~SPI_CR1_CPHA;
 8003b14:	687b      	ldr	r3, [r7, #4]
 8003b16:	8adb      	ldrh	r3, [r3, #22]
 8003b18:	2217      	movs	r2, #23
 8003b1a:	4293      	cmp	r3, r2
 8003b1c:	d108      	bne.n	8003b30 <SPI_Init+0x70>
 8003b1e:	687b      	ldr	r3, [r7, #4]
 8003b20:	681b      	ldr	r3, [r3, #0]
 8003b22:	681a      	ldr	r2, [r3, #0]
 8003b24:	687b      	ldr	r3, [r7, #4]
 8003b26:	681b      	ldr	r3, [r3, #0]
 8003b28:	f022 0201 	bic.w	r2, r2, #1
 8003b2c:	601a      	str	r2, [r3, #0]
 8003b2e:	e010      	b.n	8003b52 <SPI_Init+0x92>
		else if(config -> clock_phase == SPI_Configurations.Clock_Phase.High_1) config-> Port -> CR1 |= SPI_CR1_CPHA;
 8003b30:	687b      	ldr	r3, [r7, #4]
 8003b32:	8adb      	ldrh	r3, [r3, #22]
 8003b34:	2216      	movs	r2, #22
 8003b36:	4293      	cmp	r3, r2
 8003b38:	d108      	bne.n	8003b4c <SPI_Init+0x8c>
 8003b3a:	687b      	ldr	r3, [r7, #4]
 8003b3c:	681b      	ldr	r3, [r3, #0]
 8003b3e:	681a      	ldr	r2, [r3, #0]
 8003b40:	687b      	ldr	r3, [r7, #4]
 8003b42:	681b      	ldr	r3, [r3, #0]
 8003b44:	f042 0201 	orr.w	r2, r2, #1
 8003b48:	601a      	str	r2, [r3, #0]
 8003b4a:	e002      	b.n	8003b52 <SPI_Init+0x92>
		else {return -1;}
 8003b4c:	f04f 33ff 	mov.w	r3, #4294967295
 8003b50:	e1be      	b.n	8003ed0 <SPI_Init+0x410>

		     if(config -> clock_polarity == SPI_Configurations.Clock_Polarity.Low_0) config-> Port -> CR1 &= ~SPI_CR1_CPOL;
 8003b52:	687b      	ldr	r3, [r7, #4]
 8003b54:	8a9b      	ldrh	r3, [r3, #20]
 8003b56:	2221      	movs	r2, #33	@ 0x21
 8003b58:	4293      	cmp	r3, r2
 8003b5a:	d108      	bne.n	8003b6e <SPI_Init+0xae>
 8003b5c:	687b      	ldr	r3, [r7, #4]
 8003b5e:	681b      	ldr	r3, [r3, #0]
 8003b60:	681a      	ldr	r2, [r3, #0]
 8003b62:	687b      	ldr	r3, [r7, #4]
 8003b64:	681b      	ldr	r3, [r3, #0]
 8003b66:	f022 0202 	bic.w	r2, r2, #2
 8003b6a:	601a      	str	r2, [r3, #0]
 8003b6c:	e010      	b.n	8003b90 <SPI_Init+0xd0>
		else if(config -> clock_polarity == SPI_Configurations.Clock_Polarity.High_1) config-> Port -> CR1 |= SPI_CR1_CPOL;
 8003b6e:	687b      	ldr	r3, [r7, #4]
 8003b70:	8a9b      	ldrh	r3, [r3, #20]
 8003b72:	2220      	movs	r2, #32
 8003b74:	4293      	cmp	r3, r2
 8003b76:	d108      	bne.n	8003b8a <SPI_Init+0xca>
 8003b78:	687b      	ldr	r3, [r7, #4]
 8003b7a:	681b      	ldr	r3, [r3, #0]
 8003b7c:	681a      	ldr	r2, [r3, #0]
 8003b7e:	687b      	ldr	r3, [r7, #4]
 8003b80:	681b      	ldr	r3, [r3, #0]
 8003b82:	f042 0202 	orr.w	r2, r2, #2
 8003b86:	601a      	str	r2, [r3, #0]
 8003b88:	e002      	b.n	8003b90 <SPI_Init+0xd0>
		else {return -1;}
 8003b8a:	f04f 33ff 	mov.w	r3, #4294967295
 8003b8e:	e19f      	b.n	8003ed0 <SPI_Init+0x410>

		     if(config -> crc == SPI_Configurations.CRC_Enable.Disable) config -> Port -> CR1 &= ~SPI_CR1_CRCEN;
 8003b90:	687b      	ldr	r3, [r7, #4]
 8003b92:	895b      	ldrh	r3, [r3, #10]
 8003b94:	2200      	movs	r2, #0
 8003b96:	4293      	cmp	r3, r2
 8003b98:	d108      	bne.n	8003bac <SPI_Init+0xec>
 8003b9a:	687b      	ldr	r3, [r7, #4]
 8003b9c:	681b      	ldr	r3, [r3, #0]
 8003b9e:	681a      	ldr	r2, [r3, #0]
 8003ba0:	687b      	ldr	r3, [r7, #4]
 8003ba2:	681b      	ldr	r3, [r3, #0]
 8003ba4:	f422 5200 	bic.w	r2, r2, #8192	@ 0x2000
 8003ba8:	601a      	str	r2, [r3, #0]
 8003baa:	e010      	b.n	8003bce <SPI_Init+0x10e>
		else if(config -> crc == SPI_Configurations.CRC_Enable.Enable) config -> Port -> CR1 |=  SPI_CR1_CRCEN;
 8003bac:	687b      	ldr	r3, [r7, #4]
 8003bae:	895b      	ldrh	r3, [r3, #10]
 8003bb0:	2201      	movs	r2, #1
 8003bb2:	4293      	cmp	r3, r2
 8003bb4:	d108      	bne.n	8003bc8 <SPI_Init+0x108>
 8003bb6:	687b      	ldr	r3, [r7, #4]
 8003bb8:	681b      	ldr	r3, [r3, #0]
 8003bba:	681a      	ldr	r2, [r3, #0]
 8003bbc:	687b      	ldr	r3, [r7, #4]
 8003bbe:	681b      	ldr	r3, [r3, #0]
 8003bc0:	f442 5200 	orr.w	r2, r2, #8192	@ 0x2000
 8003bc4:	601a      	str	r2, [r3, #0]
 8003bc6:	e002      	b.n	8003bce <SPI_Init+0x10e>
		else {return -1;}
 8003bc8:	f04f 33ff 	mov.w	r3, #4294967295
 8003bcc:	e180      	b.n	8003ed0 <SPI_Init+0x410>

		     if(config -> data_format == SPI_Configurations.Data_Format.Bit8) config -> Port -> CR1 &= ~SPI_CR1_DFF;
 8003bce:	687b      	ldr	r3, [r7, #4]
 8003bd0:	899b      	ldrh	r3, [r3, #12]
 8003bd2:	220b      	movs	r2, #11
 8003bd4:	4293      	cmp	r3, r2
 8003bd6:	d108      	bne.n	8003bea <SPI_Init+0x12a>
 8003bd8:	687b      	ldr	r3, [r7, #4]
 8003bda:	681b      	ldr	r3, [r3, #0]
 8003bdc:	681a      	ldr	r2, [r3, #0]
 8003bde:	687b      	ldr	r3, [r7, #4]
 8003be0:	681b      	ldr	r3, [r3, #0]
 8003be2:	f422 6200 	bic.w	r2, r2, #2048	@ 0x800
 8003be6:	601a      	str	r2, [r3, #0]
 8003be8:	e010      	b.n	8003c0c <SPI_Init+0x14c>
		else if(config -> data_format == SPI_Configurations.Data_Format.Bit16) config -> Port -> CR1 |=  SPI_CR1_DFF;
 8003bea:	687b      	ldr	r3, [r7, #4]
 8003bec:	899b      	ldrh	r3, [r3, #12]
 8003bee:	220c      	movs	r2, #12
 8003bf0:	4293      	cmp	r3, r2
 8003bf2:	d108      	bne.n	8003c06 <SPI_Init+0x146>
 8003bf4:	687b      	ldr	r3, [r7, #4]
 8003bf6:	681b      	ldr	r3, [r3, #0]
 8003bf8:	681a      	ldr	r2, [r3, #0]
 8003bfa:	687b      	ldr	r3, [r7, #4]
 8003bfc:	681b      	ldr	r3, [r3, #0]
 8003bfe:	f442 6200 	orr.w	r2, r2, #2048	@ 0x800
 8003c02:	601a      	str	r2, [r3, #0]
 8003c04:	e002      	b.n	8003c0c <SPI_Init+0x14c>
		else {return -1;}
 8003c06:	f04f 33ff 	mov.w	r3, #4294967295
 8003c0a:	e161      	b.n	8003ed0 <SPI_Init+0x410>

		     if(config -> frame_format == SPI_Configurations.Frame_Format.LSB_First) config -> Port -> CR1 |= SPI_CR1_LSBFIRST;
 8003c0c:	687b      	ldr	r3, [r7, #4]
 8003c0e:	89db      	ldrh	r3, [r3, #14]
 8003c10:	2218      	movs	r2, #24
 8003c12:	4293      	cmp	r3, r2
 8003c14:	d108      	bne.n	8003c28 <SPI_Init+0x168>
 8003c16:	687b      	ldr	r3, [r7, #4]
 8003c18:	681b      	ldr	r3, [r3, #0]
 8003c1a:	681a      	ldr	r2, [r3, #0]
 8003c1c:	687b      	ldr	r3, [r7, #4]
 8003c1e:	681b      	ldr	r3, [r3, #0]
 8003c20:	f042 0280 	orr.w	r2, r2, #128	@ 0x80
 8003c24:	601a      	str	r2, [r3, #0]
 8003c26:	e010      	b.n	8003c4a <SPI_Init+0x18a>
		else if(config -> frame_format == SPI_Configurations.Frame_Format.MSB_First) config -> Port -> CR1 &= ~SPI_CR1_LSBFIRST;
 8003c28:	687b      	ldr	r3, [r7, #4]
 8003c2a:	89db      	ldrh	r3, [r3, #14]
 8003c2c:	2217      	movs	r2, #23
 8003c2e:	4293      	cmp	r3, r2
 8003c30:	d108      	bne.n	8003c44 <SPI_Init+0x184>
 8003c32:	687b      	ldr	r3, [r7, #4]
 8003c34:	681b      	ldr	r3, [r3, #0]
 8003c36:	681a      	ldr	r2, [r3, #0]
 8003c38:	687b      	ldr	r3, [r7, #4]
 8003c3a:	681b      	ldr	r3, [r3, #0]
 8003c3c:	f022 0280 	bic.w	r2, r2, #128	@ 0x80
 8003c40:	601a      	str	r2, [r3, #0]
 8003c42:	e002      	b.n	8003c4a <SPI_Init+0x18a>
		else {return -1;}
 8003c44:	f04f 33ff 	mov.w	r3, #4294967295
 8003c48:	e142      	b.n	8003ed0 <SPI_Init+0x410>

		     if(config->prescaler == SPI_Configurations.Prescaler.CLK_div_2) config -> Port -> CR1 &=   ~SPI_CR1_BR;
 8003c4a:	687b      	ldr	r3, [r7, #4]
 8003c4c:	8a1b      	ldrh	r3, [r3, #16]
 8003c4e:	2228      	movs	r2, #40	@ 0x28
 8003c50:	4293      	cmp	r3, r2
 8003c52:	d108      	bne.n	8003c66 <SPI_Init+0x1a6>
 8003c54:	687b      	ldr	r3, [r7, #4]
 8003c56:	681b      	ldr	r3, [r3, #0]
 8003c58:	681a      	ldr	r2, [r3, #0]
 8003c5a:	687b      	ldr	r3, [r7, #4]
 8003c5c:	681b      	ldr	r3, [r3, #0]
 8003c5e:	f022 0238 	bic.w	r2, r2, #56	@ 0x38
 8003c62:	601a      	str	r2, [r3, #0]
 8003c64:	e06b      	b.n	8003d3e <SPI_Init+0x27e>
		else if(config->prescaler == SPI_Configurations.Prescaler.CLK_div_4) config -> Port -> CR1 |=    SPI_CR1_BR_0;
 8003c66:	687b      	ldr	r3, [r7, #4]
 8003c68:	8a1b      	ldrh	r3, [r3, #16]
 8003c6a:	2229      	movs	r2, #41	@ 0x29
 8003c6c:	4293      	cmp	r3, r2
 8003c6e:	d108      	bne.n	8003c82 <SPI_Init+0x1c2>
 8003c70:	687b      	ldr	r3, [r7, #4]
 8003c72:	681b      	ldr	r3, [r3, #0]
 8003c74:	681a      	ldr	r2, [r3, #0]
 8003c76:	687b      	ldr	r3, [r7, #4]
 8003c78:	681b      	ldr	r3, [r3, #0]
 8003c7a:	f042 0208 	orr.w	r2, r2, #8
 8003c7e:	601a      	str	r2, [r3, #0]
 8003c80:	e05d      	b.n	8003d3e <SPI_Init+0x27e>
		else if(config->prescaler == SPI_Configurations.Prescaler.CLK_div_8) config -> Port -> CR1 |=    SPI_CR1_BR_1;
 8003c82:	687b      	ldr	r3, [r7, #4]
 8003c84:	8a1b      	ldrh	r3, [r3, #16]
 8003c86:	222a      	movs	r2, #42	@ 0x2a
 8003c88:	4293      	cmp	r3, r2
 8003c8a:	d108      	bne.n	8003c9e <SPI_Init+0x1de>
 8003c8c:	687b      	ldr	r3, [r7, #4]
 8003c8e:	681b      	ldr	r3, [r3, #0]
 8003c90:	681a      	ldr	r2, [r3, #0]
 8003c92:	687b      	ldr	r3, [r7, #4]
 8003c94:	681b      	ldr	r3, [r3, #0]
 8003c96:	f042 0210 	orr.w	r2, r2, #16
 8003c9a:	601a      	str	r2, [r3, #0]
 8003c9c:	e04f      	b.n	8003d3e <SPI_Init+0x27e>
		else if(config->prescaler == SPI_Configurations.Prescaler.CLK_div_16) config -> Port -> CR1 |=   SPI_CR1_BR_0 | SPI_CR1_BR_1;
 8003c9e:	687b      	ldr	r3, [r7, #4]
 8003ca0:	8a1b      	ldrh	r3, [r3, #16]
 8003ca2:	222b      	movs	r2, #43	@ 0x2b
 8003ca4:	4293      	cmp	r3, r2
 8003ca6:	d108      	bne.n	8003cba <SPI_Init+0x1fa>
 8003ca8:	687b      	ldr	r3, [r7, #4]
 8003caa:	681b      	ldr	r3, [r3, #0]
 8003cac:	681a      	ldr	r2, [r3, #0]
 8003cae:	687b      	ldr	r3, [r7, #4]
 8003cb0:	681b      	ldr	r3, [r3, #0]
 8003cb2:	f042 0218 	orr.w	r2, r2, #24
 8003cb6:	601a      	str	r2, [r3, #0]
 8003cb8:	e041      	b.n	8003d3e <SPI_Init+0x27e>
		else if(config->prescaler == SPI_Configurations.Prescaler.CLK_div_32) config -> Port -> CR1 |=   SPI_CR1_BR_2;
 8003cba:	687b      	ldr	r3, [r7, #4]
 8003cbc:	8a1b      	ldrh	r3, [r3, #16]
 8003cbe:	222c      	movs	r2, #44	@ 0x2c
 8003cc0:	4293      	cmp	r3, r2
 8003cc2:	d108      	bne.n	8003cd6 <SPI_Init+0x216>
 8003cc4:	687b      	ldr	r3, [r7, #4]
 8003cc6:	681b      	ldr	r3, [r3, #0]
 8003cc8:	681a      	ldr	r2, [r3, #0]
 8003cca:	687b      	ldr	r3, [r7, #4]
 8003ccc:	681b      	ldr	r3, [r3, #0]
 8003cce:	f042 0220 	orr.w	r2, r2, #32
 8003cd2:	601a      	str	r2, [r3, #0]
 8003cd4:	e033      	b.n	8003d3e <SPI_Init+0x27e>
		else if(config->prescaler == SPI_Configurations.Prescaler.CLK_div_64) config -> Port -> CR1 |=   SPI_CR1_BR_2 | SPI_CR1_BR_0;
 8003cd6:	687b      	ldr	r3, [r7, #4]
 8003cd8:	8a1b      	ldrh	r3, [r3, #16]
 8003cda:	222d      	movs	r2, #45	@ 0x2d
 8003cdc:	4293      	cmp	r3, r2
 8003cde:	d108      	bne.n	8003cf2 <SPI_Init+0x232>
 8003ce0:	687b      	ldr	r3, [r7, #4]
 8003ce2:	681b      	ldr	r3, [r3, #0]
 8003ce4:	681a      	ldr	r2, [r3, #0]
 8003ce6:	687b      	ldr	r3, [r7, #4]
 8003ce8:	681b      	ldr	r3, [r3, #0]
 8003cea:	f042 0228 	orr.w	r2, r2, #40	@ 0x28
 8003cee:	601a      	str	r2, [r3, #0]
 8003cf0:	e025      	b.n	8003d3e <SPI_Init+0x27e>
		else if(config->prescaler == SPI_Configurations.Prescaler.CLK_div_128) config -> Port -> CR1 |=  SPI_CR1_BR_2 | SPI_CR1_BR_1;
 8003cf2:	687b      	ldr	r3, [r7, #4]
 8003cf4:	8a1b      	ldrh	r3, [r3, #16]
 8003cf6:	222e      	movs	r2, #46	@ 0x2e
 8003cf8:	4293      	cmp	r3, r2
 8003cfa:	d10f      	bne.n	8003d1c <SPI_Init+0x25c>
 8003cfc:	687b      	ldr	r3, [r7, #4]
 8003cfe:	681b      	ldr	r3, [r3, #0]
 8003d00:	681a      	ldr	r2, [r3, #0]
 8003d02:	687b      	ldr	r3, [r7, #4]
 8003d04:	681b      	ldr	r3, [r3, #0]
 8003d06:	f042 0230 	orr.w	r2, r2, #48	@ 0x30
 8003d0a:	601a      	str	r2, [r3, #0]
 8003d0c:	e017      	b.n	8003d3e <SPI_Init+0x27e>
 8003d0e:	bf00      	nop
 8003d10:	40013000 	.word	0x40013000
 8003d14:	40003800 	.word	0x40003800
 8003d18:	40003c00 	.word	0x40003c00
		else if(config->prescaler == SPI_Configurations.Prescaler.CLK_div_256) config -> Port -> CR1 |=  SPI_CR1_BR_2 | SPI_CR1_BR_1 | SPI_CR1_BR_0;
 8003d1c:	687b      	ldr	r3, [r7, #4]
 8003d1e:	8a1b      	ldrh	r3, [r3, #16]
 8003d20:	222f      	movs	r2, #47	@ 0x2f
 8003d22:	4293      	cmp	r3, r2
 8003d24:	d108      	bne.n	8003d38 <SPI_Init+0x278>
 8003d26:	687b      	ldr	r3, [r7, #4]
 8003d28:	681b      	ldr	r3, [r3, #0]
 8003d2a:	681a      	ldr	r2, [r3, #0]
 8003d2c:	687b      	ldr	r3, [r7, #4]
 8003d2e:	681b      	ldr	r3, [r3, #0]
 8003d30:	f042 0238 	orr.w	r2, r2, #56	@ 0x38
 8003d34:	601a      	str	r2, [r3, #0]
 8003d36:	e002      	b.n	8003d3e <SPI_Init+0x27e>
		else {return -1;}
 8003d38:	f04f 33ff 	mov.w	r3, #4294967295
 8003d3c:	e0c8      	b.n	8003ed0 <SPI_Init+0x410>

		     if(config->type == SPI_Configurations.Type.Master) config -> Port -> CR1 |= SPI_CR1_MSTR;
 8003d3e:	687b      	ldr	r3, [r7, #4]
 8003d40:	8a5b      	ldrh	r3, [r3, #18]
 8003d42:	2232      	movs	r2, #50	@ 0x32
 8003d44:	4293      	cmp	r3, r2
 8003d46:	d108      	bne.n	8003d5a <SPI_Init+0x29a>
 8003d48:	687b      	ldr	r3, [r7, #4]
 8003d4a:	681b      	ldr	r3, [r3, #0]
 8003d4c:	681a      	ldr	r2, [r3, #0]
 8003d4e:	687b      	ldr	r3, [r7, #4]
 8003d50:	681b      	ldr	r3, [r3, #0]
 8003d52:	f042 0204 	orr.w	r2, r2, #4
 8003d56:	601a      	str	r2, [r3, #0]
 8003d58:	e010      	b.n	8003d7c <SPI_Init+0x2bc>
		else if(config->type == SPI_Configurations.Type.Slave) config -> Port -> CR1 &= ~SPI_CR1_MSTR;
 8003d5a:	687b      	ldr	r3, [r7, #4]
 8003d5c:	8a5b      	ldrh	r3, [r3, #18]
 8003d5e:	2233      	movs	r2, #51	@ 0x33
 8003d60:	4293      	cmp	r3, r2
 8003d62:	d108      	bne.n	8003d76 <SPI_Init+0x2b6>
 8003d64:	687b      	ldr	r3, [r7, #4]
 8003d66:	681b      	ldr	r3, [r3, #0]
 8003d68:	681a      	ldr	r2, [r3, #0]
 8003d6a:	687b      	ldr	r3, [r7, #4]
 8003d6c:	681b      	ldr	r3, [r3, #0]
 8003d6e:	f022 0204 	bic.w	r2, r2, #4
 8003d72:	601a      	str	r2, [r3, #0]
 8003d74:	e002      	b.n	8003d7c <SPI_Init+0x2bc>
		else {return -1;}
 8003d76:	f04f 33ff 	mov.w	r3, #4294967295
 8003d7a:	e0a9      	b.n	8003ed0 <SPI_Init+0x410>

		     if(config->interrupt == SPI_Configurations.Interrupts.Disable) config -> Port ->  CR2 &= ~(SPI_CR2_TXEIE | SPI_CR2_RXNEIE | SPI_CR2_ERRIE);
 8003d7c:	687b      	ldr	r3, [r7, #4]
 8003d7e:	8b1b      	ldrh	r3, [r3, #24]
 8003d80:	2246      	movs	r2, #70	@ 0x46
 8003d82:	4293      	cmp	r3, r2
 8003d84:	d108      	bne.n	8003d98 <SPI_Init+0x2d8>
 8003d86:	687b      	ldr	r3, [r7, #4]
 8003d88:	681b      	ldr	r3, [r3, #0]
 8003d8a:	685a      	ldr	r2, [r3, #4]
 8003d8c:	687b      	ldr	r3, [r7, #4]
 8003d8e:	681b      	ldr	r3, [r3, #0]
 8003d90:	f022 02e0 	bic.w	r2, r2, #224	@ 0xe0
 8003d94:	605a      	str	r2, [r3, #4]
 8003d96:	e02c      	b.n	8003df2 <SPI_Init+0x332>
		else if(config->interrupt == SPI_Configurations.Interrupts.Tx_Buffer_Empty) config -> Port ->  CR2 |= SPI_CR2_TXEIE;
 8003d98:	687b      	ldr	r3, [r7, #4]
 8003d9a:	8b1b      	ldrh	r3, [r3, #24]
 8003d9c:	2249      	movs	r2, #73	@ 0x49
 8003d9e:	4293      	cmp	r3, r2
 8003da0:	d108      	bne.n	8003db4 <SPI_Init+0x2f4>
 8003da2:	687b      	ldr	r3, [r7, #4]
 8003da4:	681b      	ldr	r3, [r3, #0]
 8003da6:	685a      	ldr	r2, [r3, #4]
 8003da8:	687b      	ldr	r3, [r7, #4]
 8003daa:	681b      	ldr	r3, [r3, #0]
 8003dac:	f042 0280 	orr.w	r2, r2, #128	@ 0x80
 8003db0:	605a      	str	r2, [r3, #4]
 8003db2:	e01e      	b.n	8003df2 <SPI_Init+0x332>
		else if(config->interrupt == SPI_Configurations.Interrupts.RX_Buffer_not_Empty) config -> Port ->  CR2 |= SPI_CR2_RXNEIE ;
 8003db4:	687b      	ldr	r3, [r7, #4]
 8003db6:	8b1b      	ldrh	r3, [r3, #24]
 8003db8:	2248      	movs	r2, #72	@ 0x48
 8003dba:	4293      	cmp	r3, r2
 8003dbc:	d108      	bne.n	8003dd0 <SPI_Init+0x310>
 8003dbe:	687b      	ldr	r3, [r7, #4]
 8003dc0:	681b      	ldr	r3, [r3, #0]
 8003dc2:	685a      	ldr	r2, [r3, #4]
 8003dc4:	687b      	ldr	r3, [r7, #4]
 8003dc6:	681b      	ldr	r3, [r3, #0]
 8003dc8:	f042 0240 	orr.w	r2, r2, #64	@ 0x40
 8003dcc:	605a      	str	r2, [r3, #4]
 8003dce:	e010      	b.n	8003df2 <SPI_Init+0x332>
		else if(config->interrupt == SPI_Configurations.Interrupts.Error) config -> Port ->  CR2 |=  SPI_CR2_ERRIE;
 8003dd0:	687b      	ldr	r3, [r7, #4]
 8003dd2:	8b1b      	ldrh	r3, [r3, #24]
 8003dd4:	2247      	movs	r2, #71	@ 0x47
 8003dd6:	4293      	cmp	r3, r2
 8003dd8:	d108      	bne.n	8003dec <SPI_Init+0x32c>
 8003dda:	687b      	ldr	r3, [r7, #4]
 8003ddc:	681b      	ldr	r3, [r3, #0]
 8003dde:	685a      	ldr	r2, [r3, #4]
 8003de0:	687b      	ldr	r3, [r7, #4]
 8003de2:	681b      	ldr	r3, [r3, #0]
 8003de4:	f042 0220 	orr.w	r2, r2, #32
 8003de8:	605a      	str	r2, [r3, #4]
 8003dea:	e002      	b.n	8003df2 <SPI_Init+0x332>
		else { return -1;}
 8003dec:	f04f 33ff 	mov.w	r3, #4294967295
 8003df0:	e06e      	b.n	8003ed0 <SPI_Init+0x410>




		if((config -> dma & SPI_Configurations.DMA_Type.RX_DMA_Disable) == SPI_Configurations.DMA_Type.RX_DMA_Disable){
 8003df2:	687b      	ldr	r3, [r7, #4]
 8003df4:	8b5b      	ldrh	r3, [r3, #26]
 8003df6:	461a      	mov	r2, r3
 8003df8:	2310      	movs	r3, #16
 8003dfa:	4013      	ands	r3, r2
 8003dfc:	2210      	movs	r2, #16
 8003dfe:	4293      	cmp	r3, r2
 8003e00:	d108      	bne.n	8003e14 <SPI_Init+0x354>
		    config -> Port -> CR2 &= ~SPI_CR2_RXDMAEN;
 8003e02:	687b      	ldr	r3, [r7, #4]
 8003e04:	681b      	ldr	r3, [r3, #0]
 8003e06:	685a      	ldr	r2, [r3, #4]
 8003e08:	687b      	ldr	r3, [r7, #4]
 8003e0a:	681b      	ldr	r3, [r3, #0]
 8003e0c:	f022 0201 	bic.w	r2, r2, #1
 8003e10:	605a      	str	r2, [r3, #4]
 8003e12:	e022      	b.n	8003e5a <SPI_Init+0x39a>
		 }
		else if((config -> dma & SPI_Configurations.DMA_Type.RX_DMA_Enable) == SPI_Configurations.DMA_Type.RX_DMA_Enable)
 8003e14:	687b      	ldr	r3, [r7, #4]
 8003e16:	8b5b      	ldrh	r3, [r3, #26]
 8003e18:	461a      	mov	r2, r3
 8003e1a:	2308      	movs	r3, #8
 8003e1c:	4013      	ands	r3, r2
 8003e1e:	2208      	movs	r2, #8
 8003e20:	4293      	cmp	r3, r2
 8003e22:	d11a      	bne.n	8003e5a <SPI_Init+0x39a>
		{
//			config -> Port -> CR2 |=  SPI_CR2_RXDMAEN;
//			config -> Port -> CR2 |=  SPI_CR2_TXDMAEN;
			if(config -> Port == SPI1){
 8003e24:	687b      	ldr	r3, [r7, #4]
 8003e26:	681b      	ldr	r3, [r3, #0]
 8003e28:	4a2b      	ldr	r2, [pc, #172]	@ (8003ed8 <SPI_Init+0x418>)
 8003e2a:	4293      	cmp	r3, r2
 8003e2c:	d102      	bne.n	8003e34 <SPI_Init+0x374>
				xDMA1_RX_Init();
 8003e2e:	f7ff f931 	bl	8003094 <xDMA1_RX_Init>
 8003e32:	e012      	b.n	8003e5a <SPI_Init+0x39a>
			}
			else if(config -> Port == SPI2){
 8003e34:	687b      	ldr	r3, [r7, #4]
 8003e36:	681b      	ldr	r3, [r3, #0]
 8003e38:	4a28      	ldr	r2, [pc, #160]	@ (8003edc <SPI_Init+0x41c>)
 8003e3a:	4293      	cmp	r3, r2
 8003e3c:	d102      	bne.n	8003e44 <SPI_Init+0x384>
				xDMA2_RX_Init();
 8003e3e:	f7ff f95b 	bl	80030f8 <xDMA2_RX_Init>
 8003e42:	e00a      	b.n	8003e5a <SPI_Init+0x39a>
			}
			else if(config -> Port == SPI3){
 8003e44:	687b      	ldr	r3, [r7, #4]
 8003e46:	681b      	ldr	r3, [r3, #0]
 8003e48:	4a25      	ldr	r2, [pc, #148]	@ (8003ee0 <SPI_Init+0x420>)
 8003e4a:	4293      	cmp	r3, r2
 8003e4c:	d102      	bne.n	8003e54 <SPI_Init+0x394>
				xDMA3_RX_Init();
 8003e4e:	f7ff f97f 	bl	8003150 <xDMA3_RX_Init>
 8003e52:	e002      	b.n	8003e5a <SPI_Init+0x39a>
			}
			else {return -1;}
 8003e54:	f04f 33ff 	mov.w	r3, #4294967295
 8003e58:	e03a      	b.n	8003ed0 <SPI_Init+0x410>
		}

		if((config -> dma & SPI_Configurations.DMA_Type.TX_DMA_Disable) == SPI_Configurations.DMA_Type.TX_DMA_Disable){
 8003e5a:	687b      	ldr	r3, [r7, #4]
 8003e5c:	8b5b      	ldrh	r3, [r3, #26]
 8003e5e:	461a      	mov	r2, r3
 8003e60:	2304      	movs	r3, #4
 8003e62:	4013      	ands	r3, r2
 8003e64:	2204      	movs	r2, #4
 8003e66:	4293      	cmp	r3, r2
 8003e68:	d108      	bne.n	8003e7c <SPI_Init+0x3bc>
			config -> Port -> CR2 &= ~SPI_CR2_TXDMAEN;
 8003e6a:	687b      	ldr	r3, [r7, #4]
 8003e6c:	681b      	ldr	r3, [r3, #0]
 8003e6e:	685a      	ldr	r2, [r3, #4]
 8003e70:	687b      	ldr	r3, [r7, #4]
 8003e72:	681b      	ldr	r3, [r3, #0]
 8003e74:	f022 0202 	bic.w	r2, r2, #2
 8003e78:	605a      	str	r2, [r3, #4]
		if((config -> dma & SPI_Configurations.DMA_Type.TX_DMA_Disable) == SPI_Configurations.DMA_Type.TX_DMA_Disable){
 8003e7a:	e028      	b.n	8003ece <SPI_Init+0x40e>
		}
		else if((config -> dma & SPI_Configurations.DMA_Type.TX_DMA_Enable) == SPI_Configurations.DMA_Type.TX_DMA_Enable){
 8003e7c:	687b      	ldr	r3, [r7, #4]
 8003e7e:	8b5b      	ldrh	r3, [r3, #26]
 8003e80:	461a      	mov	r2, r3
 8003e82:	2302      	movs	r3, #2
 8003e84:	4013      	ands	r3, r2
 8003e86:	2202      	movs	r2, #2
 8003e88:	4293      	cmp	r3, r2
 8003e8a:	d11a      	bne.n	8003ec2 <SPI_Init+0x402>
//			config -> Port -> CR2 |=  SPI_CR2_TXDMAEN;
			if(config -> Port == SPI1){
 8003e8c:	687b      	ldr	r3, [r7, #4]
 8003e8e:	681b      	ldr	r3, [r3, #0]
 8003e90:	4a11      	ldr	r2, [pc, #68]	@ (8003ed8 <SPI_Init+0x418>)
 8003e92:	4293      	cmp	r3, r2
 8003e94:	d102      	bne.n	8003e9c <SPI_Init+0x3dc>
				xDMA1_TX_Init();
 8003e96:	f7ff f873 	bl	8002f80 <xDMA1_TX_Init>
		if((config -> dma & SPI_Configurations.DMA_Type.TX_DMA_Disable) == SPI_Configurations.DMA_Type.TX_DMA_Disable){
 8003e9a:	e018      	b.n	8003ece <SPI_Init+0x40e>
			}
			else if(config -> Port == SPI2){
 8003e9c:	687b      	ldr	r3, [r7, #4]
 8003e9e:	681b      	ldr	r3, [r3, #0]
 8003ea0:	4a0e      	ldr	r2, [pc, #56]	@ (8003edc <SPI_Init+0x41c>)
 8003ea2:	4293      	cmp	r3, r2
 8003ea4:	d102      	bne.n	8003eac <SPI_Init+0x3ec>
				xDMA2_TX_Init();
 8003ea6:	f7ff f89d 	bl	8002fe4 <xDMA2_TX_Init>
		if((config -> dma & SPI_Configurations.DMA_Type.TX_DMA_Disable) == SPI_Configurations.DMA_Type.TX_DMA_Disable){
 8003eaa:	e010      	b.n	8003ece <SPI_Init+0x40e>
			}
			else if(config -> Port == SPI3){
 8003eac:	687b      	ldr	r3, [r7, #4]
 8003eae:	681b      	ldr	r3, [r3, #0]
 8003eb0:	4a0b      	ldr	r2, [pc, #44]	@ (8003ee0 <SPI_Init+0x420>)
 8003eb2:	4293      	cmp	r3, r2
 8003eb4:	d102      	bne.n	8003ebc <SPI_Init+0x3fc>
				xDMA3_TX_Init();
 8003eb6:	f7ff f8c1 	bl	800303c <xDMA3_TX_Init>
		if((config -> dma & SPI_Configurations.DMA_Type.TX_DMA_Disable) == SPI_Configurations.DMA_Type.TX_DMA_Disable){
 8003eba:	e008      	b.n	8003ece <SPI_Init+0x40e>
			}
			else {return -1;}
 8003ebc:	f04f 33ff 	mov.w	r3, #4294967295
 8003ec0:	e006      	b.n	8003ed0 <SPI_Init+0x410>
		}
		else {return -1;}
 8003ec2:	f04f 33ff 	mov.w	r3, #4294967295
 8003ec6:	e003      	b.n	8003ed0 <SPI_Init+0x410>


	}
	else
	{
		return -1;
 8003ec8:	f04f 33ff 	mov.w	r3, #4294967295
 8003ecc:	e000      	b.n	8003ed0 <SPI_Init+0x410>
	}

	return 1;
 8003ece:	2301      	movs	r3, #1
}
 8003ed0:	4618      	mov	r0, r3
 8003ed2:	3708      	adds	r7, #8
 8003ed4:	46bd      	mov	sp, r7
 8003ed6:	bd80      	pop	{r7, pc}
 8003ed8:	40013000 	.word	0x40013000
 8003edc:	40003800 	.word	0x40003800
 8003ee0:	40003c00 	.word	0x40003c00

08003ee4 <SPI_Enable>:
 * This function enables the SPI peripheral, allowing data transmission and reception.
 *
 * @param[in] config Pointer to the SPI configuration structure.
 */
void SPI_Enable(SPI_Config *config)
{
 8003ee4:	b480      	push	{r7}
 8003ee6:	b083      	sub	sp, #12
 8003ee8:	af00      	add	r7, sp, #0
 8003eea:	6078      	str	r0, [r7, #4]
	config->Port -> CR1 |= SPI_CR1_SPE;
 8003eec:	687b      	ldr	r3, [r7, #4]
 8003eee:	681b      	ldr	r3, [r3, #0]
 8003ef0:	681a      	ldr	r2, [r3, #0]
 8003ef2:	687b      	ldr	r3, [r7, #4]
 8003ef4:	681b      	ldr	r3, [r3, #0]
 8003ef6:	f042 0240 	orr.w	r2, r2, #64	@ 0x40
 8003efa:	601a      	str	r2, [r3, #0]
}
 8003efc:	bf00      	nop
 8003efe:	370c      	adds	r7, #12
 8003f00:	46bd      	mov	sp, r7
 8003f02:	f85d 7b04 	ldr.w	r7, [sp], #4
 8003f06:	4770      	bx	lr

08003f08 <SPI_TRX_Byte>:
 * @param[in] config Pointer to the SPI configuration structure.
 * @param[in] tx_data Data to transmit.
 * @return uint16_t Received data.
 */
uint16_t SPI_TRX_Byte(SPI_Config *config,uint16_t tx_data)
{
 8003f08:	b480      	push	{r7}
 8003f0a:	b085      	sub	sp, #20
 8003f0c:	af00      	add	r7, sp, #0
 8003f0e:	6078      	str	r0, [r7, #4]
 8003f10:	460b      	mov	r3, r1
 8003f12:	807b      	strh	r3, [r7, #2]
	volatile uint16_t temp = 0;
 8003f14:	2300      	movs	r3, #0
 8003f16:	81fb      	strh	r3, [r7, #14]
	while (!(config->Port->SR & SPI_SR_TXE));
 8003f18:	bf00      	nop
 8003f1a:	687b      	ldr	r3, [r7, #4]
 8003f1c:	681b      	ldr	r3, [r3, #0]
 8003f1e:	689b      	ldr	r3, [r3, #8]
 8003f20:	f003 0302 	and.w	r3, r3, #2
 8003f24:	2b00      	cmp	r3, #0
 8003f26:	d0f8      	beq.n	8003f1a <SPI_TRX_Byte+0x12>
	config->Port -> DR = tx_data;
 8003f28:	687b      	ldr	r3, [r7, #4]
 8003f2a:	681b      	ldr	r3, [r3, #0]
 8003f2c:	887a      	ldrh	r2, [r7, #2]
 8003f2e:	60da      	str	r2, [r3, #12]
	while (!(config->Port->SR & SPI_SR_RXNE));
 8003f30:	bf00      	nop
 8003f32:	687b      	ldr	r3, [r7, #4]
 8003f34:	681b      	ldr	r3, [r3, #0]
 8003f36:	689b      	ldr	r3, [r3, #8]
 8003f38:	f003 0301 	and.w	r3, r3, #1
 8003f3c:	2b00      	cmp	r3, #0
 8003f3e:	d0f8      	beq.n	8003f32 <SPI_TRX_Byte+0x2a>
	temp = config->Port -> DR;
 8003f40:	687b      	ldr	r3, [r7, #4]
 8003f42:	681b      	ldr	r3, [r3, #0]
 8003f44:	68db      	ldr	r3, [r3, #12]
 8003f46:	b29b      	uxth	r3, r3
 8003f48:	81fb      	strh	r3, [r7, #14]
	while (!(config->Port->SR & SPI_SR_TXE));
 8003f4a:	bf00      	nop
 8003f4c:	687b      	ldr	r3, [r7, #4]
 8003f4e:	681b      	ldr	r3, [r3, #0]
 8003f50:	689b      	ldr	r3, [r3, #8]
 8003f52:	f003 0302 	and.w	r3, r3, #2
 8003f56:	2b00      	cmp	r3, #0
 8003f58:	d0f8      	beq.n	8003f4c <SPI_TRX_Byte+0x44>
	while (config->Port->SR & SPI_SR_BSY);
 8003f5a:	bf00      	nop
 8003f5c:	687b      	ldr	r3, [r7, #4]
 8003f5e:	681b      	ldr	r3, [r3, #0]
 8003f60:	689b      	ldr	r3, [r3, #8]
 8003f62:	f003 0380 	and.w	r3, r3, #128	@ 0x80
 8003f66:	2b00      	cmp	r3, #0
 8003f68:	d1f8      	bne.n	8003f5c <SPI_TRX_Byte+0x54>
	return temp;
 8003f6a:	89fb      	ldrh	r3, [r7, #14]
 8003f6c:	b29b      	uxth	r3, r3
}
 8003f6e:	4618      	mov	r0, r3
 8003f70:	3714      	adds	r7, #20
 8003f72:	46bd      	mov	sp, r7
 8003f74:	f85d 7b04 	ldr.w	r7, [sp], #4
 8003f78:	4770      	bx	lr
	...

08003f7c <TIM1_BRK_TIM9_IRQHandler>:
Timer_Config *__timer_13_config__;
Timer_Config *__timer_14_config__;



void TIM1_BRK_TIM9_IRQHandler(void) {
 8003f7c:	b580      	push	{r7, lr}
 8003f7e:	af00      	add	r7, sp, #0
    if (__timer_1_config__ ->ISR_Routines.Break_ISR) {
 8003f80:	4b2b      	ldr	r3, [pc, #172]	@ (8004030 <TIM1_BRK_TIM9_IRQHandler+0xb4>)
 8003f82:	681b      	ldr	r3, [r3, #0]
 8003f84:	f8d3 30a8 	ldr.w	r3, [r3, #168]	@ 0xa8
 8003f88:	2b00      	cmp	r3, #0
 8003f8a:	d00a      	beq.n	8003fa2 <TIM1_BRK_TIM9_IRQHandler+0x26>
    	__timer_1_config__ ->ISR_Routines.Break_ISR();
 8003f8c:	4b28      	ldr	r3, [pc, #160]	@ (8004030 <TIM1_BRK_TIM9_IRQHandler+0xb4>)
 8003f8e:	681b      	ldr	r3, [r3, #0]
 8003f90:	f8d3 30a8 	ldr.w	r3, [r3, #168]	@ 0xa8
 8003f94:	4798      	blx	r3
    	TIM1->SR &= ~TIM_SR_BIF;  // Clear the Break interrupt flag
 8003f96:	4b27      	ldr	r3, [pc, #156]	@ (8004034 <TIM1_BRK_TIM9_IRQHandler+0xb8>)
 8003f98:	691b      	ldr	r3, [r3, #16]
 8003f9a:	4a26      	ldr	r2, [pc, #152]	@ (8004034 <TIM1_BRK_TIM9_IRQHandler+0xb8>)
 8003f9c:	f023 0380 	bic.w	r3, r3, #128	@ 0x80
 8003fa0:	6113      	str	r3, [r2, #16]
    }

    if (__timer_9_config__ ->ISR_Routines.Capture_Compare_1_ISR){
 8003fa2:	4b25      	ldr	r3, [pc, #148]	@ (8004038 <TIM1_BRK_TIM9_IRQHandler+0xbc>)
 8003fa4:	681b      	ldr	r3, [r3, #0]
 8003fa6:	f8d3 3090 	ldr.w	r3, [r3, #144]	@ 0x90
 8003faa:	2b00      	cmp	r3, #0
 8003fac:	d00a      	beq.n	8003fc4 <TIM1_BRK_TIM9_IRQHandler+0x48>
    	__timer_9_config__ ->ISR_Routines.Capture_Compare_1_ISR();
 8003fae:	4b22      	ldr	r3, [pc, #136]	@ (8004038 <TIM1_BRK_TIM9_IRQHandler+0xbc>)
 8003fb0:	681b      	ldr	r3, [r3, #0]
 8003fb2:	f8d3 3090 	ldr.w	r3, [r3, #144]	@ 0x90
 8003fb6:	4798      	blx	r3
    	TIM9->SR &= ~TIM_SR_CC1IF;  // Clear the Break interrupt flag
 8003fb8:	4b20      	ldr	r3, [pc, #128]	@ (800403c <TIM1_BRK_TIM9_IRQHandler+0xc0>)
 8003fba:	691b      	ldr	r3, [r3, #16]
 8003fbc:	4a1f      	ldr	r2, [pc, #124]	@ (800403c <TIM1_BRK_TIM9_IRQHandler+0xc0>)
 8003fbe:	f023 0302 	bic.w	r3, r3, #2
 8003fc2:	6113      	str	r3, [r2, #16]
    }

    if (__timer_9_config__ ->ISR_Routines.Capture_Compare_2_ISR){
 8003fc4:	4b1c      	ldr	r3, [pc, #112]	@ (8004038 <TIM1_BRK_TIM9_IRQHandler+0xbc>)
 8003fc6:	681b      	ldr	r3, [r3, #0]
 8003fc8:	f8d3 3094 	ldr.w	r3, [r3, #148]	@ 0x94
 8003fcc:	2b00      	cmp	r3, #0
 8003fce:	d00a      	beq.n	8003fe6 <TIM1_BRK_TIM9_IRQHandler+0x6a>
    	__timer_9_config__ ->ISR_Routines.Capture_Compare_2_ISR();
 8003fd0:	4b19      	ldr	r3, [pc, #100]	@ (8004038 <TIM1_BRK_TIM9_IRQHandler+0xbc>)
 8003fd2:	681b      	ldr	r3, [r3, #0]
 8003fd4:	f8d3 3094 	ldr.w	r3, [r3, #148]	@ 0x94
 8003fd8:	4798      	blx	r3
    	TIM9->SR &= ~TIM_SR_CC2IF;  // Clear the Break interrupt flag
 8003fda:	4b18      	ldr	r3, [pc, #96]	@ (800403c <TIM1_BRK_TIM9_IRQHandler+0xc0>)
 8003fdc:	691b      	ldr	r3, [r3, #16]
 8003fde:	4a17      	ldr	r2, [pc, #92]	@ (800403c <TIM1_BRK_TIM9_IRQHandler+0xc0>)
 8003fe0:	f023 0304 	bic.w	r3, r3, #4
 8003fe4:	6113      	str	r3, [r2, #16]
    }

    if (__timer_9_config__ ->ISR_Routines.Update_ISR){
 8003fe6:	4b14      	ldr	r3, [pc, #80]	@ (8004038 <TIM1_BRK_TIM9_IRQHandler+0xbc>)
 8003fe8:	681b      	ldr	r3, [r3, #0]
 8003fea:	f8d3 308c 	ldr.w	r3, [r3, #140]	@ 0x8c
 8003fee:	2b00      	cmp	r3, #0
 8003ff0:	d00a      	beq.n	8004008 <TIM1_BRK_TIM9_IRQHandler+0x8c>
    	__timer_9_config__ ->ISR_Routines.Update_ISR();
 8003ff2:	4b11      	ldr	r3, [pc, #68]	@ (8004038 <TIM1_BRK_TIM9_IRQHandler+0xbc>)
 8003ff4:	681b      	ldr	r3, [r3, #0]
 8003ff6:	f8d3 308c 	ldr.w	r3, [r3, #140]	@ 0x8c
 8003ffa:	4798      	blx	r3
    	TIM9->SR &= ~TIM_SR_UIF;  // Clear the Break interrupt flag
 8003ffc:	4b0f      	ldr	r3, [pc, #60]	@ (800403c <TIM1_BRK_TIM9_IRQHandler+0xc0>)
 8003ffe:	691b      	ldr	r3, [r3, #16]
 8004000:	4a0e      	ldr	r2, [pc, #56]	@ (800403c <TIM1_BRK_TIM9_IRQHandler+0xc0>)
 8004002:	f023 0301 	bic.w	r3, r3, #1
 8004006:	6113      	str	r3, [r2, #16]
    }

    if (__timer_9_config__ ->ISR_Routines.Trigger_ISR){
 8004008:	4b0b      	ldr	r3, [pc, #44]	@ (8004038 <TIM1_BRK_TIM9_IRQHandler+0xbc>)
 800400a:	681b      	ldr	r3, [r3, #0]
 800400c:	f8d3 30a4 	ldr.w	r3, [r3, #164]	@ 0xa4
 8004010:	2b00      	cmp	r3, #0
 8004012:	d00a      	beq.n	800402a <TIM1_BRK_TIM9_IRQHandler+0xae>
    	__timer_9_config__ ->ISR_Routines.Trigger_ISR();
 8004014:	4b08      	ldr	r3, [pc, #32]	@ (8004038 <TIM1_BRK_TIM9_IRQHandler+0xbc>)
 8004016:	681b      	ldr	r3, [r3, #0]
 8004018:	f8d3 30a4 	ldr.w	r3, [r3, #164]	@ 0xa4
 800401c:	4798      	blx	r3
    	TIM9->SR &= ~TIM_SR_TIF;  // Clear the Break interrupt flag
 800401e:	4b07      	ldr	r3, [pc, #28]	@ (800403c <TIM1_BRK_TIM9_IRQHandler+0xc0>)
 8004020:	691b      	ldr	r3, [r3, #16]
 8004022:	4a06      	ldr	r2, [pc, #24]	@ (800403c <TIM1_BRK_TIM9_IRQHandler+0xc0>)
 8004024:	f023 0340 	bic.w	r3, r3, #64	@ 0x40
 8004028:	6113      	str	r3, [r2, #16]
    }

}
 800402a:	bf00      	nop
 800402c:	bd80      	pop	{r7, pc}
 800402e:	bf00      	nop
 8004030:	200002bc 	.word	0x200002bc
 8004034:	40010000 	.word	0x40010000
 8004038:	200002dc 	.word	0x200002dc
 800403c:	40014000 	.word	0x40014000

08004040 <TIM1_UP_TIM10_IRQHandler>:

void TIM1_UP_TIM10_IRQHandler(void) {
 8004040:	b580      	push	{r7, lr}
 8004042:	af00      	add	r7, sp, #0
    if (__timer_1_config__ ->ISR_Routines.Update_ISR) {
 8004044:	4b1a      	ldr	r3, [pc, #104]	@ (80040b0 <TIM1_UP_TIM10_IRQHandler+0x70>)
 8004046:	681b      	ldr	r3, [r3, #0]
 8004048:	f8d3 308c 	ldr.w	r3, [r3, #140]	@ 0x8c
 800404c:	2b00      	cmp	r3, #0
 800404e:	d00a      	beq.n	8004066 <TIM1_UP_TIM10_IRQHandler+0x26>
    	__timer_1_config__ ->ISR_Routines.Update_ISR();
 8004050:	4b17      	ldr	r3, [pc, #92]	@ (80040b0 <TIM1_UP_TIM10_IRQHandler+0x70>)
 8004052:	681b      	ldr	r3, [r3, #0]
 8004054:	f8d3 308c 	ldr.w	r3, [r3, #140]	@ 0x8c
 8004058:	4798      	blx	r3
    	TIM1->SR &= ~TIM_SR_UIF;  // Clear the Update interrupt flag
 800405a:	4b16      	ldr	r3, [pc, #88]	@ (80040b4 <TIM1_UP_TIM10_IRQHandler+0x74>)
 800405c:	691b      	ldr	r3, [r3, #16]
 800405e:	4a15      	ldr	r2, [pc, #84]	@ (80040b4 <TIM1_UP_TIM10_IRQHandler+0x74>)
 8004060:	f023 0301 	bic.w	r3, r3, #1
 8004064:	6113      	str	r3, [r2, #16]
    }

    if (__timer_10_config__ ->ISR_Routines.Update_ISR) {
 8004066:	4b14      	ldr	r3, [pc, #80]	@ (80040b8 <TIM1_UP_TIM10_IRQHandler+0x78>)
 8004068:	681b      	ldr	r3, [r3, #0]
 800406a:	f8d3 308c 	ldr.w	r3, [r3, #140]	@ 0x8c
 800406e:	2b00      	cmp	r3, #0
 8004070:	d00a      	beq.n	8004088 <TIM1_UP_TIM10_IRQHandler+0x48>
    	__timer_10_config__ ->ISR_Routines.Update_ISR();
 8004072:	4b11      	ldr	r3, [pc, #68]	@ (80040b8 <TIM1_UP_TIM10_IRQHandler+0x78>)
 8004074:	681b      	ldr	r3, [r3, #0]
 8004076:	f8d3 308c 	ldr.w	r3, [r3, #140]	@ 0x8c
 800407a:	4798      	blx	r3
    	TIM10->SR &= ~TIM_SR_UIF;  // Clear the Update interrupt flag
 800407c:	4b0f      	ldr	r3, [pc, #60]	@ (80040bc <TIM1_UP_TIM10_IRQHandler+0x7c>)
 800407e:	691b      	ldr	r3, [r3, #16]
 8004080:	4a0e      	ldr	r2, [pc, #56]	@ (80040bc <TIM1_UP_TIM10_IRQHandler+0x7c>)
 8004082:	f023 0301 	bic.w	r3, r3, #1
 8004086:	6113      	str	r3, [r2, #16]
    }

    if (__timer_10_config__ ->ISR_Routines.Capture_Compare_1_ISR) {
 8004088:	4b0b      	ldr	r3, [pc, #44]	@ (80040b8 <TIM1_UP_TIM10_IRQHandler+0x78>)
 800408a:	681b      	ldr	r3, [r3, #0]
 800408c:	f8d3 3090 	ldr.w	r3, [r3, #144]	@ 0x90
 8004090:	2b00      	cmp	r3, #0
 8004092:	d00a      	beq.n	80040aa <TIM1_UP_TIM10_IRQHandler+0x6a>
    	__timer_10_config__ ->ISR_Routines.Capture_Compare_1_ISR();
 8004094:	4b08      	ldr	r3, [pc, #32]	@ (80040b8 <TIM1_UP_TIM10_IRQHandler+0x78>)
 8004096:	681b      	ldr	r3, [r3, #0]
 8004098:	f8d3 3090 	ldr.w	r3, [r3, #144]	@ 0x90
 800409c:	4798      	blx	r3
    	TIM10->SR &= ~TIM_SR_CC1IF;  // Clear the Update interrupt flag
 800409e:	4b07      	ldr	r3, [pc, #28]	@ (80040bc <TIM1_UP_TIM10_IRQHandler+0x7c>)
 80040a0:	691b      	ldr	r3, [r3, #16]
 80040a2:	4a06      	ldr	r2, [pc, #24]	@ (80040bc <TIM1_UP_TIM10_IRQHandler+0x7c>)
 80040a4:	f023 0302 	bic.w	r3, r3, #2
 80040a8:	6113      	str	r3, [r2, #16]
    }

}
 80040aa:	bf00      	nop
 80040ac:	bd80      	pop	{r7, pc}
 80040ae:	bf00      	nop
 80040b0:	200002bc 	.word	0x200002bc
 80040b4:	40010000 	.word	0x40010000
 80040b8:	200002e0 	.word	0x200002e0
 80040bc:	40014400 	.word	0x40014400

080040c0 <TIM1_TRG_COM_TIM11_IRQHandler>:

void TIM1_TRG_COM_TIM11_IRQHandler(void) {
 80040c0:	b580      	push	{r7, lr}
 80040c2:	af00      	add	r7, sp, #0
    if (__timer_1_config__ ->ISR_Routines.Trigger_ISR) {
 80040c4:	4b22      	ldr	r3, [pc, #136]	@ (8004150 <TIM1_TRG_COM_TIM11_IRQHandler+0x90>)
 80040c6:	681b      	ldr	r3, [r3, #0]
 80040c8:	f8d3 30a4 	ldr.w	r3, [r3, #164]	@ 0xa4
 80040cc:	2b00      	cmp	r3, #0
 80040ce:	d00a      	beq.n	80040e6 <TIM1_TRG_COM_TIM11_IRQHandler+0x26>
    	__timer_1_config__ ->ISR_Routines.Trigger_ISR();
 80040d0:	4b1f      	ldr	r3, [pc, #124]	@ (8004150 <TIM1_TRG_COM_TIM11_IRQHandler+0x90>)
 80040d2:	681b      	ldr	r3, [r3, #0]
 80040d4:	f8d3 30a4 	ldr.w	r3, [r3, #164]	@ 0xa4
 80040d8:	4798      	blx	r3

    	TIM1->SR &= ~TIM_SR_TIF;  // Clear the Trigger interrupt flag
 80040da:	4b1e      	ldr	r3, [pc, #120]	@ (8004154 <TIM1_TRG_COM_TIM11_IRQHandler+0x94>)
 80040dc:	691b      	ldr	r3, [r3, #16]
 80040de:	4a1d      	ldr	r2, [pc, #116]	@ (8004154 <TIM1_TRG_COM_TIM11_IRQHandler+0x94>)
 80040e0:	f023 0340 	bic.w	r3, r3, #64	@ 0x40
 80040e4:	6113      	str	r3, [r2, #16]
    }

    if (__timer_1_config__ ->ISR_Routines.Commutation_ISR) {
 80040e6:	4b1a      	ldr	r3, [pc, #104]	@ (8004150 <TIM1_TRG_COM_TIM11_IRQHandler+0x90>)
 80040e8:	681b      	ldr	r3, [r3, #0]
 80040ea:	f8d3 30a0 	ldr.w	r3, [r3, #160]	@ 0xa0
 80040ee:	2b00      	cmp	r3, #0
 80040f0:	d00a      	beq.n	8004108 <TIM1_TRG_COM_TIM11_IRQHandler+0x48>
    	__timer_1_config__ ->ISR_Routines.Commutation_ISR();
 80040f2:	4b17      	ldr	r3, [pc, #92]	@ (8004150 <TIM1_TRG_COM_TIM11_IRQHandler+0x90>)
 80040f4:	681b      	ldr	r3, [r3, #0]
 80040f6:	f8d3 30a0 	ldr.w	r3, [r3, #160]	@ 0xa0
 80040fa:	4798      	blx	r3

    	TIM1->SR &= ~TIM_SR_COMIF;  // Clear the Trigger interrupt flag
 80040fc:	4b15      	ldr	r3, [pc, #84]	@ (8004154 <TIM1_TRG_COM_TIM11_IRQHandler+0x94>)
 80040fe:	691b      	ldr	r3, [r3, #16]
 8004100:	4a14      	ldr	r2, [pc, #80]	@ (8004154 <TIM1_TRG_COM_TIM11_IRQHandler+0x94>)
 8004102:	f023 0320 	bic.w	r3, r3, #32
 8004106:	6113      	str	r3, [r2, #16]
    }

    if (__timer_11_config__ ->ISR_Routines.Update_ISR) {
 8004108:	4b13      	ldr	r3, [pc, #76]	@ (8004158 <TIM1_TRG_COM_TIM11_IRQHandler+0x98>)
 800410a:	681b      	ldr	r3, [r3, #0]
 800410c:	f8d3 308c 	ldr.w	r3, [r3, #140]	@ 0x8c
 8004110:	2b00      	cmp	r3, #0
 8004112:	d00a      	beq.n	800412a <TIM1_TRG_COM_TIM11_IRQHandler+0x6a>
    	__timer_11_config__ ->ISR_Routines.Update_ISR();
 8004114:	4b10      	ldr	r3, [pc, #64]	@ (8004158 <TIM1_TRG_COM_TIM11_IRQHandler+0x98>)
 8004116:	681b      	ldr	r3, [r3, #0]
 8004118:	f8d3 308c 	ldr.w	r3, [r3, #140]	@ 0x8c
 800411c:	4798      	blx	r3
    	TIM11->SR &= ~TIM_SR_UIF;  // Clear the Update interrupt flag
 800411e:	4b0f      	ldr	r3, [pc, #60]	@ (800415c <TIM1_TRG_COM_TIM11_IRQHandler+0x9c>)
 8004120:	691b      	ldr	r3, [r3, #16]
 8004122:	4a0e      	ldr	r2, [pc, #56]	@ (800415c <TIM1_TRG_COM_TIM11_IRQHandler+0x9c>)
 8004124:	f023 0301 	bic.w	r3, r3, #1
 8004128:	6113      	str	r3, [r2, #16]
    }

    if (__timer_11_config__ ->ISR_Routines.Capture_Compare_1_ISR) {
 800412a:	4b0b      	ldr	r3, [pc, #44]	@ (8004158 <TIM1_TRG_COM_TIM11_IRQHandler+0x98>)
 800412c:	681b      	ldr	r3, [r3, #0]
 800412e:	f8d3 3090 	ldr.w	r3, [r3, #144]	@ 0x90
 8004132:	2b00      	cmp	r3, #0
 8004134:	d00a      	beq.n	800414c <TIM1_TRG_COM_TIM11_IRQHandler+0x8c>
    	__timer_11_config__ ->ISR_Routines.Capture_Compare_1_ISR();
 8004136:	4b08      	ldr	r3, [pc, #32]	@ (8004158 <TIM1_TRG_COM_TIM11_IRQHandler+0x98>)
 8004138:	681b      	ldr	r3, [r3, #0]
 800413a:	f8d3 3090 	ldr.w	r3, [r3, #144]	@ 0x90
 800413e:	4798      	blx	r3
    	TIM11->SR &= ~TIM_SR_CC1IF;  // Clear the Update interrupt flag
 8004140:	4b06      	ldr	r3, [pc, #24]	@ (800415c <TIM1_TRG_COM_TIM11_IRQHandler+0x9c>)
 8004142:	691b      	ldr	r3, [r3, #16]
 8004144:	4a05      	ldr	r2, [pc, #20]	@ (800415c <TIM1_TRG_COM_TIM11_IRQHandler+0x9c>)
 8004146:	f023 0302 	bic.w	r3, r3, #2
 800414a:	6113      	str	r3, [r2, #16]
    }

}
 800414c:	bf00      	nop
 800414e:	bd80      	pop	{r7, pc}
 8004150:	200002bc 	.word	0x200002bc
 8004154:	40010000 	.word	0x40010000
 8004158:	200002e4 	.word	0x200002e4
 800415c:	40014800 	.word	0x40014800

08004160 <TIM1_CC_IRQHandler>:

void TIM1_CC_IRQHandler(void) {
 8004160:	b580      	push	{r7, lr}
 8004162:	af00      	add	r7, sp, #0
    if (__timer_1_config__ ->ISR_Routines.Capture_Compare_1_ISR) {
 8004164:	4b22      	ldr	r3, [pc, #136]	@ (80041f0 <TIM1_CC_IRQHandler+0x90>)
 8004166:	681b      	ldr	r3, [r3, #0]
 8004168:	f8d3 3090 	ldr.w	r3, [r3, #144]	@ 0x90
 800416c:	2b00      	cmp	r3, #0
 800416e:	d00a      	beq.n	8004186 <TIM1_CC_IRQHandler+0x26>
    	__timer_1_config__ ->ISR_Routines.Capture_Compare_1_ISR();
 8004170:	4b1f      	ldr	r3, [pc, #124]	@ (80041f0 <TIM1_CC_IRQHandler+0x90>)
 8004172:	681b      	ldr	r3, [r3, #0]
 8004174:	f8d3 3090 	ldr.w	r3, [r3, #144]	@ 0x90
 8004178:	4798      	blx	r3

    	TIM1->SR &= ~TIM_SR_CC1IF;  // Clear the Capture Compare interrupt flag
 800417a:	4b1e      	ldr	r3, [pc, #120]	@ (80041f4 <TIM1_CC_IRQHandler+0x94>)
 800417c:	691b      	ldr	r3, [r3, #16]
 800417e:	4a1d      	ldr	r2, [pc, #116]	@ (80041f4 <TIM1_CC_IRQHandler+0x94>)
 8004180:	f023 0302 	bic.w	r3, r3, #2
 8004184:	6113      	str	r3, [r2, #16]
    }

    if (__timer_1_config__ ->ISR_Routines.Capture_Compare_2_ISR) {
 8004186:	4b1a      	ldr	r3, [pc, #104]	@ (80041f0 <TIM1_CC_IRQHandler+0x90>)
 8004188:	681b      	ldr	r3, [r3, #0]
 800418a:	f8d3 3094 	ldr.w	r3, [r3, #148]	@ 0x94
 800418e:	2b00      	cmp	r3, #0
 8004190:	d00a      	beq.n	80041a8 <TIM1_CC_IRQHandler+0x48>
    	__timer_1_config__ ->ISR_Routines.Capture_Compare_2_ISR();
 8004192:	4b17      	ldr	r3, [pc, #92]	@ (80041f0 <TIM1_CC_IRQHandler+0x90>)
 8004194:	681b      	ldr	r3, [r3, #0]
 8004196:	f8d3 3094 	ldr.w	r3, [r3, #148]	@ 0x94
 800419a:	4798      	blx	r3

    	TIM1->SR &= ~TIM_SR_CC2IF;  // Clear the Capture Compare interrupt flag
 800419c:	4b15      	ldr	r3, [pc, #84]	@ (80041f4 <TIM1_CC_IRQHandler+0x94>)
 800419e:	691b      	ldr	r3, [r3, #16]
 80041a0:	4a14      	ldr	r2, [pc, #80]	@ (80041f4 <TIM1_CC_IRQHandler+0x94>)
 80041a2:	f023 0304 	bic.w	r3, r3, #4
 80041a6:	6113      	str	r3, [r2, #16]
    }

    if (__timer_1_config__ ->ISR_Routines.Capture_Compare_3_ISR) {
 80041a8:	4b11      	ldr	r3, [pc, #68]	@ (80041f0 <TIM1_CC_IRQHandler+0x90>)
 80041aa:	681b      	ldr	r3, [r3, #0]
 80041ac:	f8d3 3098 	ldr.w	r3, [r3, #152]	@ 0x98
 80041b0:	2b00      	cmp	r3, #0
 80041b2:	d00a      	beq.n	80041ca <TIM1_CC_IRQHandler+0x6a>
    	__timer_1_config__ ->ISR_Routines.Capture_Compare_3_ISR();
 80041b4:	4b0e      	ldr	r3, [pc, #56]	@ (80041f0 <TIM1_CC_IRQHandler+0x90>)
 80041b6:	681b      	ldr	r3, [r3, #0]
 80041b8:	f8d3 3098 	ldr.w	r3, [r3, #152]	@ 0x98
 80041bc:	4798      	blx	r3

    	TIM1->SR &= ~TIM_SR_CC3IF;  // Clear the Capture Compare interrupt flag
 80041be:	4b0d      	ldr	r3, [pc, #52]	@ (80041f4 <TIM1_CC_IRQHandler+0x94>)
 80041c0:	691b      	ldr	r3, [r3, #16]
 80041c2:	4a0c      	ldr	r2, [pc, #48]	@ (80041f4 <TIM1_CC_IRQHandler+0x94>)
 80041c4:	f023 0308 	bic.w	r3, r3, #8
 80041c8:	6113      	str	r3, [r2, #16]
    }

    if (__timer_1_config__ ->ISR_Routines.Capture_Compare_4_ISR) {
 80041ca:	4b09      	ldr	r3, [pc, #36]	@ (80041f0 <TIM1_CC_IRQHandler+0x90>)
 80041cc:	681b      	ldr	r3, [r3, #0]
 80041ce:	f8d3 309c 	ldr.w	r3, [r3, #156]	@ 0x9c
 80041d2:	2b00      	cmp	r3, #0
 80041d4:	d00a      	beq.n	80041ec <TIM1_CC_IRQHandler+0x8c>
    	__timer_1_config__ ->ISR_Routines.Capture_Compare_4_ISR();
 80041d6:	4b06      	ldr	r3, [pc, #24]	@ (80041f0 <TIM1_CC_IRQHandler+0x90>)
 80041d8:	681b      	ldr	r3, [r3, #0]
 80041da:	f8d3 309c 	ldr.w	r3, [r3, #156]	@ 0x9c
 80041de:	4798      	blx	r3

    	TIM1->SR &= ~TIM_SR_CC4IF;  // Clear the Capture Compare interrupt flag
 80041e0:	4b04      	ldr	r3, [pc, #16]	@ (80041f4 <TIM1_CC_IRQHandler+0x94>)
 80041e2:	691b      	ldr	r3, [r3, #16]
 80041e4:	4a03      	ldr	r2, [pc, #12]	@ (80041f4 <TIM1_CC_IRQHandler+0x94>)
 80041e6:	f023 0310 	bic.w	r3, r3, #16
 80041ea:	6113      	str	r3, [r2, #16]
    }
}
 80041ec:	bf00      	nop
 80041ee:	bd80      	pop	{r7, pc}
 80041f0:	200002bc 	.word	0x200002bc
 80041f4:	40010000 	.word	0x40010000

080041f8 <TIM2_IRQHandler>:


void TIM2_IRQHandler(void)
{
 80041f8:	b580      	push	{r7, lr}
 80041fa:	af00      	add	r7, sp, #0
    if (__timer_2_config__ ->ISR_Routines.Capture_Compare_1_ISR) {
 80041fc:	4b39      	ldr	r3, [pc, #228]	@ (80042e4 <TIM2_IRQHandler+0xec>)
 80041fe:	681b      	ldr	r3, [r3, #0]
 8004200:	f8d3 3090 	ldr.w	r3, [r3, #144]	@ 0x90
 8004204:	2b00      	cmp	r3, #0
 8004206:	d00c      	beq.n	8004222 <TIM2_IRQHandler+0x2a>
    	__timer_2_config__ ->ISR_Routines.Capture_Compare_1_ISR();
 8004208:	4b36      	ldr	r3, [pc, #216]	@ (80042e4 <TIM2_IRQHandler+0xec>)
 800420a:	681b      	ldr	r3, [r3, #0]
 800420c:	f8d3 3090 	ldr.w	r3, [r3, #144]	@ 0x90
 8004210:	4798      	blx	r3

    	TIM2->SR &= ~TIM_SR_CC1IF;  // Clear the Capture Compare interrupt flag
 8004212:	f04f 4380 	mov.w	r3, #1073741824	@ 0x40000000
 8004216:	691b      	ldr	r3, [r3, #16]
 8004218:	f04f 4280 	mov.w	r2, #1073741824	@ 0x40000000
 800421c:	f023 0302 	bic.w	r3, r3, #2
 8004220:	6113      	str	r3, [r2, #16]
    }
    if (__timer_2_config__ ->ISR_Routines.Capture_Compare_2_ISR) {
 8004222:	4b30      	ldr	r3, [pc, #192]	@ (80042e4 <TIM2_IRQHandler+0xec>)
 8004224:	681b      	ldr	r3, [r3, #0]
 8004226:	f8d3 3094 	ldr.w	r3, [r3, #148]	@ 0x94
 800422a:	2b00      	cmp	r3, #0
 800422c:	d00c      	beq.n	8004248 <TIM2_IRQHandler+0x50>
    	__timer_2_config__ ->ISR_Routines.Capture_Compare_2_ISR();
 800422e:	4b2d      	ldr	r3, [pc, #180]	@ (80042e4 <TIM2_IRQHandler+0xec>)
 8004230:	681b      	ldr	r3, [r3, #0]
 8004232:	f8d3 3094 	ldr.w	r3, [r3, #148]	@ 0x94
 8004236:	4798      	blx	r3

    	TIM2->SR &= ~TIM_SR_CC2IF;  // Clear the Capture Compare interrupt flag
 8004238:	f04f 4380 	mov.w	r3, #1073741824	@ 0x40000000
 800423c:	691b      	ldr	r3, [r3, #16]
 800423e:	f04f 4280 	mov.w	r2, #1073741824	@ 0x40000000
 8004242:	f023 0304 	bic.w	r3, r3, #4
 8004246:	6113      	str	r3, [r2, #16]
    }
    if (__timer_2_config__ ->ISR_Routines.Capture_Compare_3_ISR) {
 8004248:	4b26      	ldr	r3, [pc, #152]	@ (80042e4 <TIM2_IRQHandler+0xec>)
 800424a:	681b      	ldr	r3, [r3, #0]
 800424c:	f8d3 3098 	ldr.w	r3, [r3, #152]	@ 0x98
 8004250:	2b00      	cmp	r3, #0
 8004252:	d00c      	beq.n	800426e <TIM2_IRQHandler+0x76>
    	__timer_2_config__ ->ISR_Routines.Capture_Compare_3_ISR();
 8004254:	4b23      	ldr	r3, [pc, #140]	@ (80042e4 <TIM2_IRQHandler+0xec>)
 8004256:	681b      	ldr	r3, [r3, #0]
 8004258:	f8d3 3098 	ldr.w	r3, [r3, #152]	@ 0x98
 800425c:	4798      	blx	r3

    	TIM2->SR &= ~TIM_SR_CC3IF;  // Clear the Capture Compare interrupt flag
 800425e:	f04f 4380 	mov.w	r3, #1073741824	@ 0x40000000
 8004262:	691b      	ldr	r3, [r3, #16]
 8004264:	f04f 4280 	mov.w	r2, #1073741824	@ 0x40000000
 8004268:	f023 0308 	bic.w	r3, r3, #8
 800426c:	6113      	str	r3, [r2, #16]
    }
    if (__timer_2_config__ ->ISR_Routines.Capture_Compare_4_ISR) {
 800426e:	4b1d      	ldr	r3, [pc, #116]	@ (80042e4 <TIM2_IRQHandler+0xec>)
 8004270:	681b      	ldr	r3, [r3, #0]
 8004272:	f8d3 309c 	ldr.w	r3, [r3, #156]	@ 0x9c
 8004276:	2b00      	cmp	r3, #0
 8004278:	d00c      	beq.n	8004294 <TIM2_IRQHandler+0x9c>
    	__timer_2_config__ ->ISR_Routines.Capture_Compare_4_ISR();
 800427a:	4b1a      	ldr	r3, [pc, #104]	@ (80042e4 <TIM2_IRQHandler+0xec>)
 800427c:	681b      	ldr	r3, [r3, #0]
 800427e:	f8d3 309c 	ldr.w	r3, [r3, #156]	@ 0x9c
 8004282:	4798      	blx	r3

    	TIM2->SR &= ~TIM_SR_CC4IF;  // Clear the Capture Compare interrupt flag
 8004284:	f04f 4380 	mov.w	r3, #1073741824	@ 0x40000000
 8004288:	691b      	ldr	r3, [r3, #16]
 800428a:	f04f 4280 	mov.w	r2, #1073741824	@ 0x40000000
 800428e:	f023 0310 	bic.w	r3, r3, #16
 8004292:	6113      	str	r3, [r2, #16]
    }
    if (__timer_2_config__ ->ISR_Routines.Update_ISR) {
 8004294:	4b13      	ldr	r3, [pc, #76]	@ (80042e4 <TIM2_IRQHandler+0xec>)
 8004296:	681b      	ldr	r3, [r3, #0]
 8004298:	f8d3 308c 	ldr.w	r3, [r3, #140]	@ 0x8c
 800429c:	2b00      	cmp	r3, #0
 800429e:	d00c      	beq.n	80042ba <TIM2_IRQHandler+0xc2>
    	__timer_2_config__ ->ISR_Routines.Update_ISR();
 80042a0:	4b10      	ldr	r3, [pc, #64]	@ (80042e4 <TIM2_IRQHandler+0xec>)
 80042a2:	681b      	ldr	r3, [r3, #0]
 80042a4:	f8d3 308c 	ldr.w	r3, [r3, #140]	@ 0x8c
 80042a8:	4798      	blx	r3

    	TIM2->SR &= ~TIM_SR_UIF;  // Clear the Capture Compare interrupt flag
 80042aa:	f04f 4380 	mov.w	r3, #1073741824	@ 0x40000000
 80042ae:	691b      	ldr	r3, [r3, #16]
 80042b0:	f04f 4280 	mov.w	r2, #1073741824	@ 0x40000000
 80042b4:	f023 0301 	bic.w	r3, r3, #1
 80042b8:	6113      	str	r3, [r2, #16]
    }
    if (__timer_2_config__ ->ISR_Routines.Trigger_ISR) {
 80042ba:	4b0a      	ldr	r3, [pc, #40]	@ (80042e4 <TIM2_IRQHandler+0xec>)
 80042bc:	681b      	ldr	r3, [r3, #0]
 80042be:	f8d3 30a4 	ldr.w	r3, [r3, #164]	@ 0xa4
 80042c2:	2b00      	cmp	r3, #0
 80042c4:	d00c      	beq.n	80042e0 <TIM2_IRQHandler+0xe8>
    	__timer_2_config__ ->ISR_Routines.Trigger_ISR();
 80042c6:	4b07      	ldr	r3, [pc, #28]	@ (80042e4 <TIM2_IRQHandler+0xec>)
 80042c8:	681b      	ldr	r3, [r3, #0]
 80042ca:	f8d3 30a4 	ldr.w	r3, [r3, #164]	@ 0xa4
 80042ce:	4798      	blx	r3

    	TIM2->SR &= ~TIM_SR_TIF;  // Clear the Capture Compare interrupt flag
 80042d0:	f04f 4380 	mov.w	r3, #1073741824	@ 0x40000000
 80042d4:	691b      	ldr	r3, [r3, #16]
 80042d6:	f04f 4280 	mov.w	r2, #1073741824	@ 0x40000000
 80042da:	f023 0340 	bic.w	r3, r3, #64	@ 0x40
 80042de:	6113      	str	r3, [r2, #16]
    }
}
 80042e0:	bf00      	nop
 80042e2:	bd80      	pop	{r7, pc}
 80042e4:	200002c0 	.word	0x200002c0

080042e8 <TIM3_IRQHandler>:

void TIM3_IRQHandler(void)
{
 80042e8:	b580      	push	{r7, lr}
 80042ea:	af00      	add	r7, sp, #0
    if (__timer_3_config__ ->ISR_Routines.Capture_Compare_1_ISR) {
 80042ec:	4b33      	ldr	r3, [pc, #204]	@ (80043bc <TIM3_IRQHandler+0xd4>)
 80042ee:	681b      	ldr	r3, [r3, #0]
 80042f0:	f8d3 3090 	ldr.w	r3, [r3, #144]	@ 0x90
 80042f4:	2b00      	cmp	r3, #0
 80042f6:	d00a      	beq.n	800430e <TIM3_IRQHandler+0x26>
    	__timer_3_config__ ->ISR_Routines.Capture_Compare_1_ISR();
 80042f8:	4b30      	ldr	r3, [pc, #192]	@ (80043bc <TIM3_IRQHandler+0xd4>)
 80042fa:	681b      	ldr	r3, [r3, #0]
 80042fc:	f8d3 3090 	ldr.w	r3, [r3, #144]	@ 0x90
 8004300:	4798      	blx	r3

    	TIM3->SR &= ~TIM_SR_CC1IF;  // Clear the Capture Compare interrupt flag
 8004302:	4b2f      	ldr	r3, [pc, #188]	@ (80043c0 <TIM3_IRQHandler+0xd8>)
 8004304:	691b      	ldr	r3, [r3, #16]
 8004306:	4a2e      	ldr	r2, [pc, #184]	@ (80043c0 <TIM3_IRQHandler+0xd8>)
 8004308:	f023 0302 	bic.w	r3, r3, #2
 800430c:	6113      	str	r3, [r2, #16]
    }
    if (__timer_3_config__ ->ISR_Routines.Capture_Compare_2_ISR) {
 800430e:	4b2b      	ldr	r3, [pc, #172]	@ (80043bc <TIM3_IRQHandler+0xd4>)
 8004310:	681b      	ldr	r3, [r3, #0]
 8004312:	f8d3 3094 	ldr.w	r3, [r3, #148]	@ 0x94
 8004316:	2b00      	cmp	r3, #0
 8004318:	d00a      	beq.n	8004330 <TIM3_IRQHandler+0x48>
    	__timer_3_config__ ->ISR_Routines.Capture_Compare_2_ISR();
 800431a:	4b28      	ldr	r3, [pc, #160]	@ (80043bc <TIM3_IRQHandler+0xd4>)
 800431c:	681b      	ldr	r3, [r3, #0]
 800431e:	f8d3 3094 	ldr.w	r3, [r3, #148]	@ 0x94
 8004322:	4798      	blx	r3

    	TIM3->SR &= ~TIM_SR_CC2IF;  // Clear the Capture Compare interrupt flag
 8004324:	4b26      	ldr	r3, [pc, #152]	@ (80043c0 <TIM3_IRQHandler+0xd8>)
 8004326:	691b      	ldr	r3, [r3, #16]
 8004328:	4a25      	ldr	r2, [pc, #148]	@ (80043c0 <TIM3_IRQHandler+0xd8>)
 800432a:	f023 0304 	bic.w	r3, r3, #4
 800432e:	6113      	str	r3, [r2, #16]
    }
    if (__timer_3_config__ ->ISR_Routines.Capture_Compare_3_ISR) {
 8004330:	4b22      	ldr	r3, [pc, #136]	@ (80043bc <TIM3_IRQHandler+0xd4>)
 8004332:	681b      	ldr	r3, [r3, #0]
 8004334:	f8d3 3098 	ldr.w	r3, [r3, #152]	@ 0x98
 8004338:	2b00      	cmp	r3, #0
 800433a:	d00a      	beq.n	8004352 <TIM3_IRQHandler+0x6a>
    	__timer_3_config__ ->ISR_Routines.Capture_Compare_3_ISR();
 800433c:	4b1f      	ldr	r3, [pc, #124]	@ (80043bc <TIM3_IRQHandler+0xd4>)
 800433e:	681b      	ldr	r3, [r3, #0]
 8004340:	f8d3 3098 	ldr.w	r3, [r3, #152]	@ 0x98
 8004344:	4798      	blx	r3

    	TIM3->SR &= ~TIM_SR_CC3IF;  // Clear the Capture Compare interrupt flag
 8004346:	4b1e      	ldr	r3, [pc, #120]	@ (80043c0 <TIM3_IRQHandler+0xd8>)
 8004348:	691b      	ldr	r3, [r3, #16]
 800434a:	4a1d      	ldr	r2, [pc, #116]	@ (80043c0 <TIM3_IRQHandler+0xd8>)
 800434c:	f023 0308 	bic.w	r3, r3, #8
 8004350:	6113      	str	r3, [r2, #16]
    }
    if (__timer_3_config__ ->ISR_Routines.Capture_Compare_4_ISR) {
 8004352:	4b1a      	ldr	r3, [pc, #104]	@ (80043bc <TIM3_IRQHandler+0xd4>)
 8004354:	681b      	ldr	r3, [r3, #0]
 8004356:	f8d3 309c 	ldr.w	r3, [r3, #156]	@ 0x9c
 800435a:	2b00      	cmp	r3, #0
 800435c:	d00a      	beq.n	8004374 <TIM3_IRQHandler+0x8c>
    	__timer_3_config__ ->ISR_Routines.Capture_Compare_4_ISR();
 800435e:	4b17      	ldr	r3, [pc, #92]	@ (80043bc <TIM3_IRQHandler+0xd4>)
 8004360:	681b      	ldr	r3, [r3, #0]
 8004362:	f8d3 309c 	ldr.w	r3, [r3, #156]	@ 0x9c
 8004366:	4798      	blx	r3

    	TIM3->SR &= ~TIM_SR_CC4IF;  // Clear the Capture Compare interrupt flag
 8004368:	4b15      	ldr	r3, [pc, #84]	@ (80043c0 <TIM3_IRQHandler+0xd8>)
 800436a:	691b      	ldr	r3, [r3, #16]
 800436c:	4a14      	ldr	r2, [pc, #80]	@ (80043c0 <TIM3_IRQHandler+0xd8>)
 800436e:	f023 0310 	bic.w	r3, r3, #16
 8004372:	6113      	str	r3, [r2, #16]
    }
    if (__timer_3_config__ ->ISR_Routines.Update_ISR) {
 8004374:	4b11      	ldr	r3, [pc, #68]	@ (80043bc <TIM3_IRQHandler+0xd4>)
 8004376:	681b      	ldr	r3, [r3, #0]
 8004378:	f8d3 308c 	ldr.w	r3, [r3, #140]	@ 0x8c
 800437c:	2b00      	cmp	r3, #0
 800437e:	d00a      	beq.n	8004396 <TIM3_IRQHandler+0xae>
    	__timer_3_config__ ->ISR_Routines.Update_ISR();
 8004380:	4b0e      	ldr	r3, [pc, #56]	@ (80043bc <TIM3_IRQHandler+0xd4>)
 8004382:	681b      	ldr	r3, [r3, #0]
 8004384:	f8d3 308c 	ldr.w	r3, [r3, #140]	@ 0x8c
 8004388:	4798      	blx	r3

    	TIM3->SR &= ~TIM_SR_UIF;  // Clear the Capture Compare interrupt flag
 800438a:	4b0d      	ldr	r3, [pc, #52]	@ (80043c0 <TIM3_IRQHandler+0xd8>)
 800438c:	691b      	ldr	r3, [r3, #16]
 800438e:	4a0c      	ldr	r2, [pc, #48]	@ (80043c0 <TIM3_IRQHandler+0xd8>)
 8004390:	f023 0301 	bic.w	r3, r3, #1
 8004394:	6113      	str	r3, [r2, #16]
    }
    if (__timer_3_config__ ->ISR_Routines.Trigger_ISR) {
 8004396:	4b09      	ldr	r3, [pc, #36]	@ (80043bc <TIM3_IRQHandler+0xd4>)
 8004398:	681b      	ldr	r3, [r3, #0]
 800439a:	f8d3 30a4 	ldr.w	r3, [r3, #164]	@ 0xa4
 800439e:	2b00      	cmp	r3, #0
 80043a0:	d00a      	beq.n	80043b8 <TIM3_IRQHandler+0xd0>
    	__timer_3_config__ ->ISR_Routines.Trigger_ISR();
 80043a2:	4b06      	ldr	r3, [pc, #24]	@ (80043bc <TIM3_IRQHandler+0xd4>)
 80043a4:	681b      	ldr	r3, [r3, #0]
 80043a6:	f8d3 30a4 	ldr.w	r3, [r3, #164]	@ 0xa4
 80043aa:	4798      	blx	r3

    	TIM3->SR &= ~TIM_SR_TIF;  // Clear the Capture Compare interrupt flag
 80043ac:	4b04      	ldr	r3, [pc, #16]	@ (80043c0 <TIM3_IRQHandler+0xd8>)
 80043ae:	691b      	ldr	r3, [r3, #16]
 80043b0:	4a03      	ldr	r2, [pc, #12]	@ (80043c0 <TIM3_IRQHandler+0xd8>)
 80043b2:	f023 0340 	bic.w	r3, r3, #64	@ 0x40
 80043b6:	6113      	str	r3, [r2, #16]
    }
}
 80043b8:	bf00      	nop
 80043ba:	bd80      	pop	{r7, pc}
 80043bc:	200002c4 	.word	0x200002c4
 80043c0:	40000400 	.word	0x40000400

080043c4 <TIM4_IRQHandler>:

void TIM4_IRQHandler(void)
{
 80043c4:	b580      	push	{r7, lr}
 80043c6:	af00      	add	r7, sp, #0
    if (__timer_4_config__ ->ISR_Routines.Capture_Compare_1_ISR) {
 80043c8:	4b33      	ldr	r3, [pc, #204]	@ (8004498 <TIM4_IRQHandler+0xd4>)
 80043ca:	681b      	ldr	r3, [r3, #0]
 80043cc:	f8d3 3090 	ldr.w	r3, [r3, #144]	@ 0x90
 80043d0:	2b00      	cmp	r3, #0
 80043d2:	d00a      	beq.n	80043ea <TIM4_IRQHandler+0x26>
    	__timer_4_config__ ->ISR_Routines.Capture_Compare_1_ISR();
 80043d4:	4b30      	ldr	r3, [pc, #192]	@ (8004498 <TIM4_IRQHandler+0xd4>)
 80043d6:	681b      	ldr	r3, [r3, #0]
 80043d8:	f8d3 3090 	ldr.w	r3, [r3, #144]	@ 0x90
 80043dc:	4798      	blx	r3

    	TIM4->SR &= ~TIM_SR_CC1IF;  // Clear the Capture Compare interrupt flag
 80043de:	4b2f      	ldr	r3, [pc, #188]	@ (800449c <TIM4_IRQHandler+0xd8>)
 80043e0:	691b      	ldr	r3, [r3, #16]
 80043e2:	4a2e      	ldr	r2, [pc, #184]	@ (800449c <TIM4_IRQHandler+0xd8>)
 80043e4:	f023 0302 	bic.w	r3, r3, #2
 80043e8:	6113      	str	r3, [r2, #16]
    }
    if (__timer_4_config__ ->ISR_Routines.Capture_Compare_2_ISR) {
 80043ea:	4b2b      	ldr	r3, [pc, #172]	@ (8004498 <TIM4_IRQHandler+0xd4>)
 80043ec:	681b      	ldr	r3, [r3, #0]
 80043ee:	f8d3 3094 	ldr.w	r3, [r3, #148]	@ 0x94
 80043f2:	2b00      	cmp	r3, #0
 80043f4:	d00a      	beq.n	800440c <TIM4_IRQHandler+0x48>
    	__timer_4_config__ ->ISR_Routines.Capture_Compare_2_ISR();
 80043f6:	4b28      	ldr	r3, [pc, #160]	@ (8004498 <TIM4_IRQHandler+0xd4>)
 80043f8:	681b      	ldr	r3, [r3, #0]
 80043fa:	f8d3 3094 	ldr.w	r3, [r3, #148]	@ 0x94
 80043fe:	4798      	blx	r3

    	TIM4->SR &= ~TIM_SR_CC2IF;  // Clear the Capture Compare interrupt flag
 8004400:	4b26      	ldr	r3, [pc, #152]	@ (800449c <TIM4_IRQHandler+0xd8>)
 8004402:	691b      	ldr	r3, [r3, #16]
 8004404:	4a25      	ldr	r2, [pc, #148]	@ (800449c <TIM4_IRQHandler+0xd8>)
 8004406:	f023 0304 	bic.w	r3, r3, #4
 800440a:	6113      	str	r3, [r2, #16]
    }
    if (__timer_4_config__ ->ISR_Routines.Capture_Compare_3_ISR) {
 800440c:	4b22      	ldr	r3, [pc, #136]	@ (8004498 <TIM4_IRQHandler+0xd4>)
 800440e:	681b      	ldr	r3, [r3, #0]
 8004410:	f8d3 3098 	ldr.w	r3, [r3, #152]	@ 0x98
 8004414:	2b00      	cmp	r3, #0
 8004416:	d00a      	beq.n	800442e <TIM4_IRQHandler+0x6a>
    	__timer_4_config__ ->ISR_Routines.Capture_Compare_3_ISR();
 8004418:	4b1f      	ldr	r3, [pc, #124]	@ (8004498 <TIM4_IRQHandler+0xd4>)
 800441a:	681b      	ldr	r3, [r3, #0]
 800441c:	f8d3 3098 	ldr.w	r3, [r3, #152]	@ 0x98
 8004420:	4798      	blx	r3

    	TIM4->SR &= ~TIM_SR_CC3IF;  // Clear the Capture Compare interrupt flag
 8004422:	4b1e      	ldr	r3, [pc, #120]	@ (800449c <TIM4_IRQHandler+0xd8>)
 8004424:	691b      	ldr	r3, [r3, #16]
 8004426:	4a1d      	ldr	r2, [pc, #116]	@ (800449c <TIM4_IRQHandler+0xd8>)
 8004428:	f023 0308 	bic.w	r3, r3, #8
 800442c:	6113      	str	r3, [r2, #16]
    }
    if (__timer_4_config__ ->ISR_Routines.Capture_Compare_4_ISR) {
 800442e:	4b1a      	ldr	r3, [pc, #104]	@ (8004498 <TIM4_IRQHandler+0xd4>)
 8004430:	681b      	ldr	r3, [r3, #0]
 8004432:	f8d3 309c 	ldr.w	r3, [r3, #156]	@ 0x9c
 8004436:	2b00      	cmp	r3, #0
 8004438:	d00a      	beq.n	8004450 <TIM4_IRQHandler+0x8c>
    	__timer_4_config__ ->ISR_Routines.Capture_Compare_4_ISR();
 800443a:	4b17      	ldr	r3, [pc, #92]	@ (8004498 <TIM4_IRQHandler+0xd4>)
 800443c:	681b      	ldr	r3, [r3, #0]
 800443e:	f8d3 309c 	ldr.w	r3, [r3, #156]	@ 0x9c
 8004442:	4798      	blx	r3

    	TIM4->SR &= ~TIM_SR_CC4IF;  // Clear the Capture Compare interrupt flag
 8004444:	4b15      	ldr	r3, [pc, #84]	@ (800449c <TIM4_IRQHandler+0xd8>)
 8004446:	691b      	ldr	r3, [r3, #16]
 8004448:	4a14      	ldr	r2, [pc, #80]	@ (800449c <TIM4_IRQHandler+0xd8>)
 800444a:	f023 0310 	bic.w	r3, r3, #16
 800444e:	6113      	str	r3, [r2, #16]
    }
    if (__timer_4_config__ ->ISR_Routines.Update_ISR) {
 8004450:	4b11      	ldr	r3, [pc, #68]	@ (8004498 <TIM4_IRQHandler+0xd4>)
 8004452:	681b      	ldr	r3, [r3, #0]
 8004454:	f8d3 308c 	ldr.w	r3, [r3, #140]	@ 0x8c
 8004458:	2b00      	cmp	r3, #0
 800445a:	d00a      	beq.n	8004472 <TIM4_IRQHandler+0xae>
    	__timer_4_config__ ->ISR_Routines.Update_ISR();
 800445c:	4b0e      	ldr	r3, [pc, #56]	@ (8004498 <TIM4_IRQHandler+0xd4>)
 800445e:	681b      	ldr	r3, [r3, #0]
 8004460:	f8d3 308c 	ldr.w	r3, [r3, #140]	@ 0x8c
 8004464:	4798      	blx	r3

    	TIM4->SR &= ~TIM_SR_UIF;  // Clear the Capture Compare interrupt flag
 8004466:	4b0d      	ldr	r3, [pc, #52]	@ (800449c <TIM4_IRQHandler+0xd8>)
 8004468:	691b      	ldr	r3, [r3, #16]
 800446a:	4a0c      	ldr	r2, [pc, #48]	@ (800449c <TIM4_IRQHandler+0xd8>)
 800446c:	f023 0301 	bic.w	r3, r3, #1
 8004470:	6113      	str	r3, [r2, #16]
    }
    if (__timer_4_config__ ->ISR_Routines.Trigger_ISR) {
 8004472:	4b09      	ldr	r3, [pc, #36]	@ (8004498 <TIM4_IRQHandler+0xd4>)
 8004474:	681b      	ldr	r3, [r3, #0]
 8004476:	f8d3 30a4 	ldr.w	r3, [r3, #164]	@ 0xa4
 800447a:	2b00      	cmp	r3, #0
 800447c:	d00a      	beq.n	8004494 <TIM4_IRQHandler+0xd0>
    	__timer_4_config__ ->ISR_Routines.Trigger_ISR();
 800447e:	4b06      	ldr	r3, [pc, #24]	@ (8004498 <TIM4_IRQHandler+0xd4>)
 8004480:	681b      	ldr	r3, [r3, #0]
 8004482:	f8d3 30a4 	ldr.w	r3, [r3, #164]	@ 0xa4
 8004486:	4798      	blx	r3

    	TIM4->SR &= ~TIM_SR_TIF;  // Clear the Capture Compare interrupt flag
 8004488:	4b04      	ldr	r3, [pc, #16]	@ (800449c <TIM4_IRQHandler+0xd8>)
 800448a:	691b      	ldr	r3, [r3, #16]
 800448c:	4a03      	ldr	r2, [pc, #12]	@ (800449c <TIM4_IRQHandler+0xd8>)
 800448e:	f023 0340 	bic.w	r3, r3, #64	@ 0x40
 8004492:	6113      	str	r3, [r2, #16]
    }
}
 8004494:	bf00      	nop
 8004496:	bd80      	pop	{r7, pc}
 8004498:	200002c8 	.word	0x200002c8
 800449c:	40000800 	.word	0x40000800

080044a0 <TIM5_IRQHandler>:

void TIM5_IRQHandler(void)
{
 80044a0:	b580      	push	{r7, lr}
 80044a2:	af00      	add	r7, sp, #0
    if (__timer_5_config__ ->ISR_Routines.Capture_Compare_1_ISR) {
 80044a4:	4b33      	ldr	r3, [pc, #204]	@ (8004574 <TIM5_IRQHandler+0xd4>)
 80044a6:	681b      	ldr	r3, [r3, #0]
 80044a8:	f8d3 3090 	ldr.w	r3, [r3, #144]	@ 0x90
 80044ac:	2b00      	cmp	r3, #0
 80044ae:	d00a      	beq.n	80044c6 <TIM5_IRQHandler+0x26>
    	__timer_5_config__ ->ISR_Routines.Capture_Compare_1_ISR();
 80044b0:	4b30      	ldr	r3, [pc, #192]	@ (8004574 <TIM5_IRQHandler+0xd4>)
 80044b2:	681b      	ldr	r3, [r3, #0]
 80044b4:	f8d3 3090 	ldr.w	r3, [r3, #144]	@ 0x90
 80044b8:	4798      	blx	r3

    	TIM5->SR &= ~TIM_SR_CC1IF;  // Clear the Capture Compare interrupt flag
 80044ba:	4b2f      	ldr	r3, [pc, #188]	@ (8004578 <TIM5_IRQHandler+0xd8>)
 80044bc:	691b      	ldr	r3, [r3, #16]
 80044be:	4a2e      	ldr	r2, [pc, #184]	@ (8004578 <TIM5_IRQHandler+0xd8>)
 80044c0:	f023 0302 	bic.w	r3, r3, #2
 80044c4:	6113      	str	r3, [r2, #16]
    }
    if (__timer_5_config__ ->ISR_Routines.Capture_Compare_2_ISR) {
 80044c6:	4b2b      	ldr	r3, [pc, #172]	@ (8004574 <TIM5_IRQHandler+0xd4>)
 80044c8:	681b      	ldr	r3, [r3, #0]
 80044ca:	f8d3 3094 	ldr.w	r3, [r3, #148]	@ 0x94
 80044ce:	2b00      	cmp	r3, #0
 80044d0:	d00a      	beq.n	80044e8 <TIM5_IRQHandler+0x48>
    	__timer_5_config__ ->ISR_Routines.Capture_Compare_2_ISR();
 80044d2:	4b28      	ldr	r3, [pc, #160]	@ (8004574 <TIM5_IRQHandler+0xd4>)
 80044d4:	681b      	ldr	r3, [r3, #0]
 80044d6:	f8d3 3094 	ldr.w	r3, [r3, #148]	@ 0x94
 80044da:	4798      	blx	r3

    	TIM5->SR &= ~TIM_SR_CC2IF;  // Clear the Capture Compare interrupt flag
 80044dc:	4b26      	ldr	r3, [pc, #152]	@ (8004578 <TIM5_IRQHandler+0xd8>)
 80044de:	691b      	ldr	r3, [r3, #16]
 80044e0:	4a25      	ldr	r2, [pc, #148]	@ (8004578 <TIM5_IRQHandler+0xd8>)
 80044e2:	f023 0304 	bic.w	r3, r3, #4
 80044e6:	6113      	str	r3, [r2, #16]
    }
    if (__timer_5_config__ ->ISR_Routines.Capture_Compare_3_ISR) {
 80044e8:	4b22      	ldr	r3, [pc, #136]	@ (8004574 <TIM5_IRQHandler+0xd4>)
 80044ea:	681b      	ldr	r3, [r3, #0]
 80044ec:	f8d3 3098 	ldr.w	r3, [r3, #152]	@ 0x98
 80044f0:	2b00      	cmp	r3, #0
 80044f2:	d00a      	beq.n	800450a <TIM5_IRQHandler+0x6a>
    	__timer_5_config__ ->ISR_Routines.Capture_Compare_3_ISR();
 80044f4:	4b1f      	ldr	r3, [pc, #124]	@ (8004574 <TIM5_IRQHandler+0xd4>)
 80044f6:	681b      	ldr	r3, [r3, #0]
 80044f8:	f8d3 3098 	ldr.w	r3, [r3, #152]	@ 0x98
 80044fc:	4798      	blx	r3

    	TIM5->SR &= ~TIM_SR_CC3IF;  // Clear the Capture Compare interrupt flag
 80044fe:	4b1e      	ldr	r3, [pc, #120]	@ (8004578 <TIM5_IRQHandler+0xd8>)
 8004500:	691b      	ldr	r3, [r3, #16]
 8004502:	4a1d      	ldr	r2, [pc, #116]	@ (8004578 <TIM5_IRQHandler+0xd8>)
 8004504:	f023 0308 	bic.w	r3, r3, #8
 8004508:	6113      	str	r3, [r2, #16]
    }
    if (__timer_5_config__ ->ISR_Routines.Capture_Compare_4_ISR) {
 800450a:	4b1a      	ldr	r3, [pc, #104]	@ (8004574 <TIM5_IRQHandler+0xd4>)
 800450c:	681b      	ldr	r3, [r3, #0]
 800450e:	f8d3 309c 	ldr.w	r3, [r3, #156]	@ 0x9c
 8004512:	2b00      	cmp	r3, #0
 8004514:	d00a      	beq.n	800452c <TIM5_IRQHandler+0x8c>
    	__timer_5_config__ ->ISR_Routines.Capture_Compare_4_ISR();
 8004516:	4b17      	ldr	r3, [pc, #92]	@ (8004574 <TIM5_IRQHandler+0xd4>)
 8004518:	681b      	ldr	r3, [r3, #0]
 800451a:	f8d3 309c 	ldr.w	r3, [r3, #156]	@ 0x9c
 800451e:	4798      	blx	r3

    	TIM5->SR &= ~TIM_SR_CC4IF;  // Clear the Capture Compare interrupt flag
 8004520:	4b15      	ldr	r3, [pc, #84]	@ (8004578 <TIM5_IRQHandler+0xd8>)
 8004522:	691b      	ldr	r3, [r3, #16]
 8004524:	4a14      	ldr	r2, [pc, #80]	@ (8004578 <TIM5_IRQHandler+0xd8>)
 8004526:	f023 0310 	bic.w	r3, r3, #16
 800452a:	6113      	str	r3, [r2, #16]
    }
    if (__timer_5_config__ ->ISR_Routines.Update_ISR) {
 800452c:	4b11      	ldr	r3, [pc, #68]	@ (8004574 <TIM5_IRQHandler+0xd4>)
 800452e:	681b      	ldr	r3, [r3, #0]
 8004530:	f8d3 308c 	ldr.w	r3, [r3, #140]	@ 0x8c
 8004534:	2b00      	cmp	r3, #0
 8004536:	d00a      	beq.n	800454e <TIM5_IRQHandler+0xae>
    	__timer_5_config__ ->ISR_Routines.Update_ISR();
 8004538:	4b0e      	ldr	r3, [pc, #56]	@ (8004574 <TIM5_IRQHandler+0xd4>)
 800453a:	681b      	ldr	r3, [r3, #0]
 800453c:	f8d3 308c 	ldr.w	r3, [r3, #140]	@ 0x8c
 8004540:	4798      	blx	r3

    	TIM5->SR &= ~TIM_SR_UIF;  // Clear the Capture Compare interrupt flag
 8004542:	4b0d      	ldr	r3, [pc, #52]	@ (8004578 <TIM5_IRQHandler+0xd8>)
 8004544:	691b      	ldr	r3, [r3, #16]
 8004546:	4a0c      	ldr	r2, [pc, #48]	@ (8004578 <TIM5_IRQHandler+0xd8>)
 8004548:	f023 0301 	bic.w	r3, r3, #1
 800454c:	6113      	str	r3, [r2, #16]
    }
    if (__timer_5_config__ ->ISR_Routines.Trigger_ISR) {
 800454e:	4b09      	ldr	r3, [pc, #36]	@ (8004574 <TIM5_IRQHandler+0xd4>)
 8004550:	681b      	ldr	r3, [r3, #0]
 8004552:	f8d3 30a4 	ldr.w	r3, [r3, #164]	@ 0xa4
 8004556:	2b00      	cmp	r3, #0
 8004558:	d00a      	beq.n	8004570 <TIM5_IRQHandler+0xd0>
    	__timer_5_config__ ->ISR_Routines.Trigger_ISR();
 800455a:	4b06      	ldr	r3, [pc, #24]	@ (8004574 <TIM5_IRQHandler+0xd4>)
 800455c:	681b      	ldr	r3, [r3, #0]
 800455e:	f8d3 30a4 	ldr.w	r3, [r3, #164]	@ 0xa4
 8004562:	4798      	blx	r3

    	TIM5->SR &= ~TIM_SR_TIF;  // Clear the Capture Compare interrupt flag
 8004564:	4b04      	ldr	r3, [pc, #16]	@ (8004578 <TIM5_IRQHandler+0xd8>)
 8004566:	691b      	ldr	r3, [r3, #16]
 8004568:	4a03      	ldr	r2, [pc, #12]	@ (8004578 <TIM5_IRQHandler+0xd8>)
 800456a:	f023 0340 	bic.w	r3, r3, #64	@ 0x40
 800456e:	6113      	str	r3, [r2, #16]
    }
}
 8004570:	bf00      	nop
 8004572:	bd80      	pop	{r7, pc}
 8004574:	200002cc 	.word	0x200002cc
 8004578:	40000c00 	.word	0x40000c00

0800457c <TIM6_DAC_IRQHandler>:

void TIM6_DAC_IRQHandler(void)
{
 800457c:	b580      	push	{r7, lr}
 800457e:	af00      	add	r7, sp, #0
    if (__timer_6_config__->ISR_Routines.Update_ISR) {
 8004580:	4b09      	ldr	r3, [pc, #36]	@ (80045a8 <TIM6_DAC_IRQHandler+0x2c>)
 8004582:	681b      	ldr	r3, [r3, #0]
 8004584:	f8d3 308c 	ldr.w	r3, [r3, #140]	@ 0x8c
 8004588:	2b00      	cmp	r3, #0
 800458a:	d00a      	beq.n	80045a2 <TIM6_DAC_IRQHandler+0x26>
    	__timer_6_config__->ISR_Routines.Update_ISR();
 800458c:	4b06      	ldr	r3, [pc, #24]	@ (80045a8 <TIM6_DAC_IRQHandler+0x2c>)
 800458e:	681b      	ldr	r3, [r3, #0]
 8004590:	f8d3 308c 	ldr.w	r3, [r3, #140]	@ 0x8c
 8004594:	4798      	blx	r3
    	  TIM6->SR &= ~TIM_SR_UIF;  // Clear the Capture Compare interrupt flag
 8004596:	4b05      	ldr	r3, [pc, #20]	@ (80045ac <TIM6_DAC_IRQHandler+0x30>)
 8004598:	691b      	ldr	r3, [r3, #16]
 800459a:	4a04      	ldr	r2, [pc, #16]	@ (80045ac <TIM6_DAC_IRQHandler+0x30>)
 800459c:	f023 0301 	bic.w	r3, r3, #1
 80045a0:	6113      	str	r3, [r2, #16]

    }

}
 80045a2:	bf00      	nop
 80045a4:	bd80      	pop	{r7, pc}
 80045a6:	bf00      	nop
 80045a8:	200002d0 	.word	0x200002d0
 80045ac:	40001000 	.word	0x40001000

080045b0 <TIM7_IRQHandler>:

void TIM7_IRQHandler(void)
{
 80045b0:	b580      	push	{r7, lr}
 80045b2:	af00      	add	r7, sp, #0
    if (__timer_7_config__->ISR_Routines.Update_ISR) {
 80045b4:	4b09      	ldr	r3, [pc, #36]	@ (80045dc <TIM7_IRQHandler+0x2c>)
 80045b6:	681b      	ldr	r3, [r3, #0]
 80045b8:	f8d3 308c 	ldr.w	r3, [r3, #140]	@ 0x8c
 80045bc:	2b00      	cmp	r3, #0
 80045be:	d00a      	beq.n	80045d6 <TIM7_IRQHandler+0x26>
    	__timer_7_config__->ISR_Routines.Update_ISR();
 80045c0:	4b06      	ldr	r3, [pc, #24]	@ (80045dc <TIM7_IRQHandler+0x2c>)
 80045c2:	681b      	ldr	r3, [r3, #0]
 80045c4:	f8d3 308c 	ldr.w	r3, [r3, #140]	@ 0x8c
 80045c8:	4798      	blx	r3

    	TIM7->SR &= ~TIM_SR_UIF;  // Clear the Capture Compare interrupt flag
 80045ca:	4b05      	ldr	r3, [pc, #20]	@ (80045e0 <TIM7_IRQHandler+0x30>)
 80045cc:	691b      	ldr	r3, [r3, #16]
 80045ce:	4a04      	ldr	r2, [pc, #16]	@ (80045e0 <TIM7_IRQHandler+0x30>)
 80045d0:	f023 0301 	bic.w	r3, r3, #1
 80045d4:	6113      	str	r3, [r2, #16]
    }
}
 80045d6:	bf00      	nop
 80045d8:	bd80      	pop	{r7, pc}
 80045da:	bf00      	nop
 80045dc:	200002d4 	.word	0x200002d4
 80045e0:	40001400 	.word	0x40001400

080045e4 <TIM8_BRK_TIM12_IRQHandler>:
//		(config->Interrupt_Request == Timer_Configurations.Interrupt_Request.Capture_Compare_Interrupt_4))
//{
//	NVIC_EnableIRQ(TIM8_CC_IRQn);
//}

void TIM8_BRK_TIM12_IRQHandler(void) {
 80045e4:	b580      	push	{r7, lr}
 80045e6:	af00      	add	r7, sp, #0
    if (__timer_8_config__ ->ISR_Routines.Break_ISR) {
 80045e8:	4b2b      	ldr	r3, [pc, #172]	@ (8004698 <TIM8_BRK_TIM12_IRQHandler+0xb4>)
 80045ea:	681b      	ldr	r3, [r3, #0]
 80045ec:	f8d3 30a8 	ldr.w	r3, [r3, #168]	@ 0xa8
 80045f0:	2b00      	cmp	r3, #0
 80045f2:	d00a      	beq.n	800460a <TIM8_BRK_TIM12_IRQHandler+0x26>
    	__timer_8_config__ ->ISR_Routines.Break_ISR();
 80045f4:	4b28      	ldr	r3, [pc, #160]	@ (8004698 <TIM8_BRK_TIM12_IRQHandler+0xb4>)
 80045f6:	681b      	ldr	r3, [r3, #0]
 80045f8:	f8d3 30a8 	ldr.w	r3, [r3, #168]	@ 0xa8
 80045fc:	4798      	blx	r3
    	TIM1->SR &= ~TIM_SR_BIF;  // Clear the Break interrupt flag
 80045fe:	4b27      	ldr	r3, [pc, #156]	@ (800469c <TIM8_BRK_TIM12_IRQHandler+0xb8>)
 8004600:	691b      	ldr	r3, [r3, #16]
 8004602:	4a26      	ldr	r2, [pc, #152]	@ (800469c <TIM8_BRK_TIM12_IRQHandler+0xb8>)
 8004604:	f023 0380 	bic.w	r3, r3, #128	@ 0x80
 8004608:	6113      	str	r3, [r2, #16]
    }

    if (__timer_12_config__ ->ISR_Routines.Capture_Compare_1_ISR){
 800460a:	4b25      	ldr	r3, [pc, #148]	@ (80046a0 <TIM8_BRK_TIM12_IRQHandler+0xbc>)
 800460c:	681b      	ldr	r3, [r3, #0]
 800460e:	f8d3 3090 	ldr.w	r3, [r3, #144]	@ 0x90
 8004612:	2b00      	cmp	r3, #0
 8004614:	d00a      	beq.n	800462c <TIM8_BRK_TIM12_IRQHandler+0x48>
    	__timer_12_config__ ->ISR_Routines.Capture_Compare_1_ISR();
 8004616:	4b22      	ldr	r3, [pc, #136]	@ (80046a0 <TIM8_BRK_TIM12_IRQHandler+0xbc>)
 8004618:	681b      	ldr	r3, [r3, #0]
 800461a:	f8d3 3090 	ldr.w	r3, [r3, #144]	@ 0x90
 800461e:	4798      	blx	r3
    	TIM9->SR &= ~TIM_SR_CC1IF;  // Clear the Break interrupt flag
 8004620:	4b20      	ldr	r3, [pc, #128]	@ (80046a4 <TIM8_BRK_TIM12_IRQHandler+0xc0>)
 8004622:	691b      	ldr	r3, [r3, #16]
 8004624:	4a1f      	ldr	r2, [pc, #124]	@ (80046a4 <TIM8_BRK_TIM12_IRQHandler+0xc0>)
 8004626:	f023 0302 	bic.w	r3, r3, #2
 800462a:	6113      	str	r3, [r2, #16]
    }

    if (__timer_12_config__ ->ISR_Routines.Capture_Compare_2_ISR){
 800462c:	4b1c      	ldr	r3, [pc, #112]	@ (80046a0 <TIM8_BRK_TIM12_IRQHandler+0xbc>)
 800462e:	681b      	ldr	r3, [r3, #0]
 8004630:	f8d3 3094 	ldr.w	r3, [r3, #148]	@ 0x94
 8004634:	2b00      	cmp	r3, #0
 8004636:	d00a      	beq.n	800464e <TIM8_BRK_TIM12_IRQHandler+0x6a>
    	__timer_12_config__ ->ISR_Routines.Capture_Compare_2_ISR();
 8004638:	4b19      	ldr	r3, [pc, #100]	@ (80046a0 <TIM8_BRK_TIM12_IRQHandler+0xbc>)
 800463a:	681b      	ldr	r3, [r3, #0]
 800463c:	f8d3 3094 	ldr.w	r3, [r3, #148]	@ 0x94
 8004640:	4798      	blx	r3
    	TIM9->SR &= ~TIM_SR_CC2IF;  // Clear the Break interrupt flag
 8004642:	4b18      	ldr	r3, [pc, #96]	@ (80046a4 <TIM8_BRK_TIM12_IRQHandler+0xc0>)
 8004644:	691b      	ldr	r3, [r3, #16]
 8004646:	4a17      	ldr	r2, [pc, #92]	@ (80046a4 <TIM8_BRK_TIM12_IRQHandler+0xc0>)
 8004648:	f023 0304 	bic.w	r3, r3, #4
 800464c:	6113      	str	r3, [r2, #16]
    }

    if (__timer_12_config__ ->ISR_Routines.Update_ISR){
 800464e:	4b14      	ldr	r3, [pc, #80]	@ (80046a0 <TIM8_BRK_TIM12_IRQHandler+0xbc>)
 8004650:	681b      	ldr	r3, [r3, #0]
 8004652:	f8d3 308c 	ldr.w	r3, [r3, #140]	@ 0x8c
 8004656:	2b00      	cmp	r3, #0
 8004658:	d00a      	beq.n	8004670 <TIM8_BRK_TIM12_IRQHandler+0x8c>
    	__timer_12_config__ ->ISR_Routines.Update_ISR();
 800465a:	4b11      	ldr	r3, [pc, #68]	@ (80046a0 <TIM8_BRK_TIM12_IRQHandler+0xbc>)
 800465c:	681b      	ldr	r3, [r3, #0]
 800465e:	f8d3 308c 	ldr.w	r3, [r3, #140]	@ 0x8c
 8004662:	4798      	blx	r3
    	TIM9->SR &= ~TIM_SR_UIF;  // Clear the Break interrupt flag
 8004664:	4b0f      	ldr	r3, [pc, #60]	@ (80046a4 <TIM8_BRK_TIM12_IRQHandler+0xc0>)
 8004666:	691b      	ldr	r3, [r3, #16]
 8004668:	4a0e      	ldr	r2, [pc, #56]	@ (80046a4 <TIM8_BRK_TIM12_IRQHandler+0xc0>)
 800466a:	f023 0301 	bic.w	r3, r3, #1
 800466e:	6113      	str	r3, [r2, #16]
    }

    if (__timer_12_config__ ->ISR_Routines.Trigger_ISR){
 8004670:	4b0b      	ldr	r3, [pc, #44]	@ (80046a0 <TIM8_BRK_TIM12_IRQHandler+0xbc>)
 8004672:	681b      	ldr	r3, [r3, #0]
 8004674:	f8d3 30a4 	ldr.w	r3, [r3, #164]	@ 0xa4
 8004678:	2b00      	cmp	r3, #0
 800467a:	d00a      	beq.n	8004692 <TIM8_BRK_TIM12_IRQHandler+0xae>
    	__timer_12_config__ ->ISR_Routines.Trigger_ISR();
 800467c:	4b08      	ldr	r3, [pc, #32]	@ (80046a0 <TIM8_BRK_TIM12_IRQHandler+0xbc>)
 800467e:	681b      	ldr	r3, [r3, #0]
 8004680:	f8d3 30a4 	ldr.w	r3, [r3, #164]	@ 0xa4
 8004684:	4798      	blx	r3
    	TIM9->SR &= ~TIM_SR_TIF;  // Clear the Break interrupt flag
 8004686:	4b07      	ldr	r3, [pc, #28]	@ (80046a4 <TIM8_BRK_TIM12_IRQHandler+0xc0>)
 8004688:	691b      	ldr	r3, [r3, #16]
 800468a:	4a06      	ldr	r2, [pc, #24]	@ (80046a4 <TIM8_BRK_TIM12_IRQHandler+0xc0>)
 800468c:	f023 0340 	bic.w	r3, r3, #64	@ 0x40
 8004690:	6113      	str	r3, [r2, #16]
    }

}
 8004692:	bf00      	nop
 8004694:	bd80      	pop	{r7, pc}
 8004696:	bf00      	nop
 8004698:	200002d8 	.word	0x200002d8
 800469c:	40010000 	.word	0x40010000
 80046a0:	200002e8 	.word	0x200002e8
 80046a4:	40014000 	.word	0x40014000

080046a8 <TIM8_UP_TIM13_IRQHandler>:

void TIM8_UP_TIM13_IRQHandler(void) {
 80046a8:	b580      	push	{r7, lr}
 80046aa:	af00      	add	r7, sp, #0
    if (__timer_1_config__ ->ISR_Routines.Update_ISR) {
 80046ac:	4b1a      	ldr	r3, [pc, #104]	@ (8004718 <TIM8_UP_TIM13_IRQHandler+0x70>)
 80046ae:	681b      	ldr	r3, [r3, #0]
 80046b0:	f8d3 308c 	ldr.w	r3, [r3, #140]	@ 0x8c
 80046b4:	2b00      	cmp	r3, #0
 80046b6:	d00a      	beq.n	80046ce <TIM8_UP_TIM13_IRQHandler+0x26>
    	__timer_1_config__ ->ISR_Routines.Update_ISR();
 80046b8:	4b17      	ldr	r3, [pc, #92]	@ (8004718 <TIM8_UP_TIM13_IRQHandler+0x70>)
 80046ba:	681b      	ldr	r3, [r3, #0]
 80046bc:	f8d3 308c 	ldr.w	r3, [r3, #140]	@ 0x8c
 80046c0:	4798      	blx	r3
    	TIM1->SR &= ~TIM_SR_UIF;  // Clear the Update interrupt flag
 80046c2:	4b16      	ldr	r3, [pc, #88]	@ (800471c <TIM8_UP_TIM13_IRQHandler+0x74>)
 80046c4:	691b      	ldr	r3, [r3, #16]
 80046c6:	4a15      	ldr	r2, [pc, #84]	@ (800471c <TIM8_UP_TIM13_IRQHandler+0x74>)
 80046c8:	f023 0301 	bic.w	r3, r3, #1
 80046cc:	6113      	str	r3, [r2, #16]
    }

    if (__timer_13_config__ ->ISR_Routines.Update_ISR) {
 80046ce:	4b14      	ldr	r3, [pc, #80]	@ (8004720 <TIM8_UP_TIM13_IRQHandler+0x78>)
 80046d0:	681b      	ldr	r3, [r3, #0]
 80046d2:	f8d3 308c 	ldr.w	r3, [r3, #140]	@ 0x8c
 80046d6:	2b00      	cmp	r3, #0
 80046d8:	d00a      	beq.n	80046f0 <TIM8_UP_TIM13_IRQHandler+0x48>
    	__timer_13_config__ ->ISR_Routines.Update_ISR();
 80046da:	4b11      	ldr	r3, [pc, #68]	@ (8004720 <TIM8_UP_TIM13_IRQHandler+0x78>)
 80046dc:	681b      	ldr	r3, [r3, #0]
 80046de:	f8d3 308c 	ldr.w	r3, [r3, #140]	@ 0x8c
 80046e2:	4798      	blx	r3
    	TIM13->SR &= ~TIM_SR_UIF;  // Clear the Update interrupt flag
 80046e4:	4b0f      	ldr	r3, [pc, #60]	@ (8004724 <TIM8_UP_TIM13_IRQHandler+0x7c>)
 80046e6:	691b      	ldr	r3, [r3, #16]
 80046e8:	4a0e      	ldr	r2, [pc, #56]	@ (8004724 <TIM8_UP_TIM13_IRQHandler+0x7c>)
 80046ea:	f023 0301 	bic.w	r3, r3, #1
 80046ee:	6113      	str	r3, [r2, #16]
    }

    if (__timer_13_config__ ->ISR_Routines.Capture_Compare_1_ISR) {
 80046f0:	4b0b      	ldr	r3, [pc, #44]	@ (8004720 <TIM8_UP_TIM13_IRQHandler+0x78>)
 80046f2:	681b      	ldr	r3, [r3, #0]
 80046f4:	f8d3 3090 	ldr.w	r3, [r3, #144]	@ 0x90
 80046f8:	2b00      	cmp	r3, #0
 80046fa:	d00a      	beq.n	8004712 <TIM8_UP_TIM13_IRQHandler+0x6a>
    	__timer_13_config__ ->ISR_Routines.Capture_Compare_1_ISR();
 80046fc:	4b08      	ldr	r3, [pc, #32]	@ (8004720 <TIM8_UP_TIM13_IRQHandler+0x78>)
 80046fe:	681b      	ldr	r3, [r3, #0]
 8004700:	f8d3 3090 	ldr.w	r3, [r3, #144]	@ 0x90
 8004704:	4798      	blx	r3
    	TIM13->SR &= ~TIM_SR_CC1IF;  // Clear the Update interrupt flag
 8004706:	4b07      	ldr	r3, [pc, #28]	@ (8004724 <TIM8_UP_TIM13_IRQHandler+0x7c>)
 8004708:	691b      	ldr	r3, [r3, #16]
 800470a:	4a06      	ldr	r2, [pc, #24]	@ (8004724 <TIM8_UP_TIM13_IRQHandler+0x7c>)
 800470c:	f023 0302 	bic.w	r3, r3, #2
 8004710:	6113      	str	r3, [r2, #16]
    }

}
 8004712:	bf00      	nop
 8004714:	bd80      	pop	{r7, pc}
 8004716:	bf00      	nop
 8004718:	200002bc 	.word	0x200002bc
 800471c:	40010000 	.word	0x40010000
 8004720:	200002ec 	.word	0x200002ec
 8004724:	40001c00 	.word	0x40001c00

08004728 <TIM8_TRG_COM_TIM14_IRQHandler>:

void TIM8_TRG_COM_TIM14_IRQHandler(void) {
 8004728:	b580      	push	{r7, lr}
 800472a:	af00      	add	r7, sp, #0
    if (__timer_8_config__ ->ISR_Routines.Trigger_ISR) {
 800472c:	4b22      	ldr	r3, [pc, #136]	@ (80047b8 <TIM8_TRG_COM_TIM14_IRQHandler+0x90>)
 800472e:	681b      	ldr	r3, [r3, #0]
 8004730:	f8d3 30a4 	ldr.w	r3, [r3, #164]	@ 0xa4
 8004734:	2b00      	cmp	r3, #0
 8004736:	d00a      	beq.n	800474e <TIM8_TRG_COM_TIM14_IRQHandler+0x26>
    	__timer_8_config__ ->ISR_Routines.Trigger_ISR();
 8004738:	4b1f      	ldr	r3, [pc, #124]	@ (80047b8 <TIM8_TRG_COM_TIM14_IRQHandler+0x90>)
 800473a:	681b      	ldr	r3, [r3, #0]
 800473c:	f8d3 30a4 	ldr.w	r3, [r3, #164]	@ 0xa4
 8004740:	4798      	blx	r3

    	TIM8->SR &= ~TIM_SR_TIF;  // Clear the Trigger interrupt flag
 8004742:	4b1e      	ldr	r3, [pc, #120]	@ (80047bc <TIM8_TRG_COM_TIM14_IRQHandler+0x94>)
 8004744:	691b      	ldr	r3, [r3, #16]
 8004746:	4a1d      	ldr	r2, [pc, #116]	@ (80047bc <TIM8_TRG_COM_TIM14_IRQHandler+0x94>)
 8004748:	f023 0340 	bic.w	r3, r3, #64	@ 0x40
 800474c:	6113      	str	r3, [r2, #16]
    }

    if (__timer_8_config__ ->ISR_Routines.Commutation_ISR) {
 800474e:	4b1a      	ldr	r3, [pc, #104]	@ (80047b8 <TIM8_TRG_COM_TIM14_IRQHandler+0x90>)
 8004750:	681b      	ldr	r3, [r3, #0]
 8004752:	f8d3 30a0 	ldr.w	r3, [r3, #160]	@ 0xa0
 8004756:	2b00      	cmp	r3, #0
 8004758:	d00a      	beq.n	8004770 <TIM8_TRG_COM_TIM14_IRQHandler+0x48>
    	__timer_8_config__ ->ISR_Routines.Commutation_ISR();
 800475a:	4b17      	ldr	r3, [pc, #92]	@ (80047b8 <TIM8_TRG_COM_TIM14_IRQHandler+0x90>)
 800475c:	681b      	ldr	r3, [r3, #0]
 800475e:	f8d3 30a0 	ldr.w	r3, [r3, #160]	@ 0xa0
 8004762:	4798      	blx	r3

    	TIM8->SR &= ~TIM_SR_COMIF;  // Clear the Trigger interrupt flag
 8004764:	4b15      	ldr	r3, [pc, #84]	@ (80047bc <TIM8_TRG_COM_TIM14_IRQHandler+0x94>)
 8004766:	691b      	ldr	r3, [r3, #16]
 8004768:	4a14      	ldr	r2, [pc, #80]	@ (80047bc <TIM8_TRG_COM_TIM14_IRQHandler+0x94>)
 800476a:	f023 0320 	bic.w	r3, r3, #32
 800476e:	6113      	str	r3, [r2, #16]
    }

    if (__timer_14_config__ ->ISR_Routines.Update_ISR) {
 8004770:	4b13      	ldr	r3, [pc, #76]	@ (80047c0 <TIM8_TRG_COM_TIM14_IRQHandler+0x98>)
 8004772:	681b      	ldr	r3, [r3, #0]
 8004774:	f8d3 308c 	ldr.w	r3, [r3, #140]	@ 0x8c
 8004778:	2b00      	cmp	r3, #0
 800477a:	d00a      	beq.n	8004792 <TIM8_TRG_COM_TIM14_IRQHandler+0x6a>
    	__timer_14_config__ ->ISR_Routines.Update_ISR();
 800477c:	4b10      	ldr	r3, [pc, #64]	@ (80047c0 <TIM8_TRG_COM_TIM14_IRQHandler+0x98>)
 800477e:	681b      	ldr	r3, [r3, #0]
 8004780:	f8d3 308c 	ldr.w	r3, [r3, #140]	@ 0x8c
 8004784:	4798      	blx	r3
    	TIM14->SR &= ~TIM_SR_UIF;  // Clear the Update interrupt flag
 8004786:	4b0f      	ldr	r3, [pc, #60]	@ (80047c4 <TIM8_TRG_COM_TIM14_IRQHandler+0x9c>)
 8004788:	691b      	ldr	r3, [r3, #16]
 800478a:	4a0e      	ldr	r2, [pc, #56]	@ (80047c4 <TIM8_TRG_COM_TIM14_IRQHandler+0x9c>)
 800478c:	f023 0301 	bic.w	r3, r3, #1
 8004790:	6113      	str	r3, [r2, #16]
    }

    if (__timer_14_config__ ->ISR_Routines.Capture_Compare_1_ISR) {
 8004792:	4b0b      	ldr	r3, [pc, #44]	@ (80047c0 <TIM8_TRG_COM_TIM14_IRQHandler+0x98>)
 8004794:	681b      	ldr	r3, [r3, #0]
 8004796:	f8d3 3090 	ldr.w	r3, [r3, #144]	@ 0x90
 800479a:	2b00      	cmp	r3, #0
 800479c:	d00a      	beq.n	80047b4 <TIM8_TRG_COM_TIM14_IRQHandler+0x8c>
    	__timer_14_config__ ->ISR_Routines.Capture_Compare_1_ISR();
 800479e:	4b08      	ldr	r3, [pc, #32]	@ (80047c0 <TIM8_TRG_COM_TIM14_IRQHandler+0x98>)
 80047a0:	681b      	ldr	r3, [r3, #0]
 80047a2:	f8d3 3090 	ldr.w	r3, [r3, #144]	@ 0x90
 80047a6:	4798      	blx	r3
    	TIM14->SR &= ~TIM_SR_CC1IF;  // Clear the Update interrupt flag
 80047a8:	4b06      	ldr	r3, [pc, #24]	@ (80047c4 <TIM8_TRG_COM_TIM14_IRQHandler+0x9c>)
 80047aa:	691b      	ldr	r3, [r3, #16]
 80047ac:	4a05      	ldr	r2, [pc, #20]	@ (80047c4 <TIM8_TRG_COM_TIM14_IRQHandler+0x9c>)
 80047ae:	f023 0302 	bic.w	r3, r3, #2
 80047b2:	6113      	str	r3, [r2, #16]
    }

}
 80047b4:	bf00      	nop
 80047b6:	bd80      	pop	{r7, pc}
 80047b8:	200002d8 	.word	0x200002d8
 80047bc:	40010400 	.word	0x40010400
 80047c0:	200002f0 	.word	0x200002f0
 80047c4:	40002000 	.word	0x40002000

080047c8 <TIM8_CC_IRQHandler>:

void TIM8_CC_IRQHandler(void) {
 80047c8:	b580      	push	{r7, lr}
 80047ca:	af00      	add	r7, sp, #0
    if (__timer_8_config__ ->ISR_Routines.Capture_Compare_1_ISR) {
 80047cc:	4b22      	ldr	r3, [pc, #136]	@ (8004858 <TIM8_CC_IRQHandler+0x90>)
 80047ce:	681b      	ldr	r3, [r3, #0]
 80047d0:	f8d3 3090 	ldr.w	r3, [r3, #144]	@ 0x90
 80047d4:	2b00      	cmp	r3, #0
 80047d6:	d00a      	beq.n	80047ee <TIM8_CC_IRQHandler+0x26>
    	__timer_8_config__ ->ISR_Routines.Capture_Compare_1_ISR();
 80047d8:	4b1f      	ldr	r3, [pc, #124]	@ (8004858 <TIM8_CC_IRQHandler+0x90>)
 80047da:	681b      	ldr	r3, [r3, #0]
 80047dc:	f8d3 3090 	ldr.w	r3, [r3, #144]	@ 0x90
 80047e0:	4798      	blx	r3

    	TIM8->SR &= ~TIM_SR_CC1IF;  // Clear the Capture Compare interrupt flag
 80047e2:	4b1e      	ldr	r3, [pc, #120]	@ (800485c <TIM8_CC_IRQHandler+0x94>)
 80047e4:	691b      	ldr	r3, [r3, #16]
 80047e6:	4a1d      	ldr	r2, [pc, #116]	@ (800485c <TIM8_CC_IRQHandler+0x94>)
 80047e8:	f023 0302 	bic.w	r3, r3, #2
 80047ec:	6113      	str	r3, [r2, #16]
    }

    if (__timer_8_config__ ->ISR_Routines.Capture_Compare_2_ISR) {
 80047ee:	4b1a      	ldr	r3, [pc, #104]	@ (8004858 <TIM8_CC_IRQHandler+0x90>)
 80047f0:	681b      	ldr	r3, [r3, #0]
 80047f2:	f8d3 3094 	ldr.w	r3, [r3, #148]	@ 0x94
 80047f6:	2b00      	cmp	r3, #0
 80047f8:	d00a      	beq.n	8004810 <TIM8_CC_IRQHandler+0x48>
    	__timer_8_config__ ->ISR_Routines.Capture_Compare_2_ISR();
 80047fa:	4b17      	ldr	r3, [pc, #92]	@ (8004858 <TIM8_CC_IRQHandler+0x90>)
 80047fc:	681b      	ldr	r3, [r3, #0]
 80047fe:	f8d3 3094 	ldr.w	r3, [r3, #148]	@ 0x94
 8004802:	4798      	blx	r3

    	TIM8->SR &= ~TIM_SR_CC2IF;  // Clear the Capture Compare interrupt flag
 8004804:	4b15      	ldr	r3, [pc, #84]	@ (800485c <TIM8_CC_IRQHandler+0x94>)
 8004806:	691b      	ldr	r3, [r3, #16]
 8004808:	4a14      	ldr	r2, [pc, #80]	@ (800485c <TIM8_CC_IRQHandler+0x94>)
 800480a:	f023 0304 	bic.w	r3, r3, #4
 800480e:	6113      	str	r3, [r2, #16]
    }

    if (__timer_8_config__ ->ISR_Routines.Capture_Compare_3_ISR) {
 8004810:	4b11      	ldr	r3, [pc, #68]	@ (8004858 <TIM8_CC_IRQHandler+0x90>)
 8004812:	681b      	ldr	r3, [r3, #0]
 8004814:	f8d3 3098 	ldr.w	r3, [r3, #152]	@ 0x98
 8004818:	2b00      	cmp	r3, #0
 800481a:	d00a      	beq.n	8004832 <TIM8_CC_IRQHandler+0x6a>
    	__timer_8_config__ ->ISR_Routines.Capture_Compare_3_ISR();
 800481c:	4b0e      	ldr	r3, [pc, #56]	@ (8004858 <TIM8_CC_IRQHandler+0x90>)
 800481e:	681b      	ldr	r3, [r3, #0]
 8004820:	f8d3 3098 	ldr.w	r3, [r3, #152]	@ 0x98
 8004824:	4798      	blx	r3

    	TIM8->SR &= ~TIM_SR_CC3IF;  // Clear the Capture Compare interrupt flag
 8004826:	4b0d      	ldr	r3, [pc, #52]	@ (800485c <TIM8_CC_IRQHandler+0x94>)
 8004828:	691b      	ldr	r3, [r3, #16]
 800482a:	4a0c      	ldr	r2, [pc, #48]	@ (800485c <TIM8_CC_IRQHandler+0x94>)
 800482c:	f023 0308 	bic.w	r3, r3, #8
 8004830:	6113      	str	r3, [r2, #16]
    }

    if (__timer_8_config__ ->ISR_Routines.Capture_Compare_4_ISR) {
 8004832:	4b09      	ldr	r3, [pc, #36]	@ (8004858 <TIM8_CC_IRQHandler+0x90>)
 8004834:	681b      	ldr	r3, [r3, #0]
 8004836:	f8d3 309c 	ldr.w	r3, [r3, #156]	@ 0x9c
 800483a:	2b00      	cmp	r3, #0
 800483c:	d00a      	beq.n	8004854 <TIM8_CC_IRQHandler+0x8c>
    	__timer_8_config__ ->ISR_Routines.Capture_Compare_4_ISR();
 800483e:	4b06      	ldr	r3, [pc, #24]	@ (8004858 <TIM8_CC_IRQHandler+0x90>)
 8004840:	681b      	ldr	r3, [r3, #0]
 8004842:	f8d3 309c 	ldr.w	r3, [r3, #156]	@ 0x9c
 8004846:	4798      	blx	r3

    	TIM8->SR &= ~TIM_SR_CC4IF;  // Clear the Capture Compare interrupt flag
 8004848:	4b04      	ldr	r3, [pc, #16]	@ (800485c <TIM8_CC_IRQHandler+0x94>)
 800484a:	691b      	ldr	r3, [r3, #16]
 800484c:	4a03      	ldr	r2, [pc, #12]	@ (800485c <TIM8_CC_IRQHandler+0x94>)
 800484e:	f023 0310 	bic.w	r3, r3, #16
 8004852:	6113      	str	r3, [r2, #16]
    }
}
 8004854:	bf00      	nop
 8004856:	bd80      	pop	{r7, pc}
 8004858:	200002d8 	.word	0x200002d8
 800485c:	40010400 	.word	0x40010400

08004860 <UART4_IRQHandler>:




void UART4_IRQHandler(void)
{
 8004860:	b580      	push	{r7, lr}
 8004862:	af00      	add	r7, sp, #0
	USART_SR = UART4 -> SR;
 8004864:	4b57      	ldr	r3, [pc, #348]	@ (80049c4 <UART4_IRQHandler+0x164>)
 8004866:	681b      	ldr	r3, [r3, #0]
 8004868:	b29a      	uxth	r2, r3
 800486a:	4b57      	ldr	r3, [pc, #348]	@ (80049c8 <UART4_IRQHandler+0x168>)
 800486c:	801a      	strh	r2, [r3, #0]
	if(USART_SR & USART_SR_CTS)
 800486e:	4b56      	ldr	r3, [pc, #344]	@ (80049c8 <UART4_IRQHandler+0x168>)
 8004870:	881b      	ldrh	r3, [r3, #0]
 8004872:	b29b      	uxth	r3, r3
 8004874:	f403 7300 	and.w	r3, r3, #512	@ 0x200
 8004878:	2b00      	cmp	r3, #0
 800487a:	d010      	beq.n	800489e <UART4_IRQHandler+0x3e>
	{
	    if (__usart_4_config__ ->ISR_Routines.CTS_ISR) {
 800487c:	4b53      	ldr	r3, [pc, #332]	@ (80049cc <UART4_IRQHandler+0x16c>)
 800487e:	681b      	ldr	r3, [r3, #0]
 8004880:	f8d3 30d8 	ldr.w	r3, [r3, #216]	@ 0xd8
 8004884:	2b00      	cmp	r3, #0
 8004886:	d00a      	beq.n	800489e <UART4_IRQHandler+0x3e>
	    	__usart_4_config__ ->ISR_Routines.CTS_ISR();
 8004888:	4b50      	ldr	r3, [pc, #320]	@ (80049cc <UART4_IRQHandler+0x16c>)
 800488a:	681b      	ldr	r3, [r3, #0]
 800488c:	f8d3 30d8 	ldr.w	r3, [r3, #216]	@ 0xd8
 8004890:	4798      	blx	r3
	    	UART4->SR &= ~USART_SR_CTS;  // Clear the Break interrupt flag
 8004892:	4b4c      	ldr	r3, [pc, #304]	@ (80049c4 <UART4_IRQHandler+0x164>)
 8004894:	681b      	ldr	r3, [r3, #0]
 8004896:	4a4b      	ldr	r2, [pc, #300]	@ (80049c4 <UART4_IRQHandler+0x164>)
 8004898:	f423 7300 	bic.w	r3, r3, #512	@ 0x200
 800489c:	6013      	str	r3, [r2, #0]
	    }
	}

	if(USART_SR & USART_SR_LBD)
 800489e:	4b4a      	ldr	r3, [pc, #296]	@ (80049c8 <UART4_IRQHandler+0x168>)
 80048a0:	881b      	ldrh	r3, [r3, #0]
 80048a2:	b29b      	uxth	r3, r3
 80048a4:	f403 7380 	and.w	r3, r3, #256	@ 0x100
 80048a8:	2b00      	cmp	r3, #0
 80048aa:	d010      	beq.n	80048ce <UART4_IRQHandler+0x6e>
	{
	    if (__usart_4_config__ ->ISR_Routines.LIN_Break_Detection_ISR) {
 80048ac:	4b47      	ldr	r3, [pc, #284]	@ (80049cc <UART4_IRQHandler+0x16c>)
 80048ae:	681b      	ldr	r3, [r3, #0]
 80048b0:	f8d3 30e0 	ldr.w	r3, [r3, #224]	@ 0xe0
 80048b4:	2b00      	cmp	r3, #0
 80048b6:	d00a      	beq.n	80048ce <UART4_IRQHandler+0x6e>
	    	__usart_4_config__ ->ISR_Routines.LIN_Break_Detection_ISR();
 80048b8:	4b44      	ldr	r3, [pc, #272]	@ (80049cc <UART4_IRQHandler+0x16c>)
 80048ba:	681b      	ldr	r3, [r3, #0]
 80048bc:	f8d3 30e0 	ldr.w	r3, [r3, #224]	@ 0xe0
 80048c0:	4798      	blx	r3
	    	UART4->SR &= ~USART_SR_LBD;  // Clear the Break interrupt flag
 80048c2:	4b40      	ldr	r3, [pc, #256]	@ (80049c4 <UART4_IRQHandler+0x164>)
 80048c4:	681b      	ldr	r3, [r3, #0]
 80048c6:	4a3f      	ldr	r2, [pc, #252]	@ (80049c4 <UART4_IRQHandler+0x164>)
 80048c8:	f423 7380 	bic.w	r3, r3, #256	@ 0x100
 80048cc:	6013      	str	r3, [r2, #0]
	    }
	}

	if(USART_SR & USART_SR_TXE)
 80048ce:	4b3e      	ldr	r3, [pc, #248]	@ (80049c8 <UART4_IRQHandler+0x168>)
 80048d0:	881b      	ldrh	r3, [r3, #0]
 80048d2:	b29b      	uxth	r3, r3
 80048d4:	f003 0380 	and.w	r3, r3, #128	@ 0x80
 80048d8:	2b00      	cmp	r3, #0
 80048da:	d010      	beq.n	80048fe <UART4_IRQHandler+0x9e>
	{
	    if (__usart_4_config__ ->ISR_Routines.Transmit_Empty_ISR) {
 80048dc:	4b3b      	ldr	r3, [pc, #236]	@ (80049cc <UART4_IRQHandler+0x16c>)
 80048de:	681b      	ldr	r3, [r3, #0]
 80048e0:	f8d3 30c8 	ldr.w	r3, [r3, #200]	@ 0xc8
 80048e4:	2b00      	cmp	r3, #0
 80048e6:	d00a      	beq.n	80048fe <UART4_IRQHandler+0x9e>
	    	__usart_4_config__ ->ISR_Routines.Transmit_Empty_ISR();
 80048e8:	4b38      	ldr	r3, [pc, #224]	@ (80049cc <UART4_IRQHandler+0x16c>)
 80048ea:	681b      	ldr	r3, [r3, #0]
 80048ec:	f8d3 30c8 	ldr.w	r3, [r3, #200]	@ 0xc8
 80048f0:	4798      	blx	r3
	    	UART4->SR &= ~USART_SR_TXE;  // Clear the Break interrupt flag
 80048f2:	4b34      	ldr	r3, [pc, #208]	@ (80049c4 <UART4_IRQHandler+0x164>)
 80048f4:	681b      	ldr	r3, [r3, #0]
 80048f6:	4a33      	ldr	r2, [pc, #204]	@ (80049c4 <UART4_IRQHandler+0x164>)
 80048f8:	f023 0380 	bic.w	r3, r3, #128	@ 0x80
 80048fc:	6013      	str	r3, [r2, #0]
	    }
	}


	if(USART_SR & USART_SR_TC)
 80048fe:	4b32      	ldr	r3, [pc, #200]	@ (80049c8 <UART4_IRQHandler+0x168>)
 8004900:	881b      	ldrh	r3, [r3, #0]
 8004902:	b29b      	uxth	r3, r3
 8004904:	f003 0340 	and.w	r3, r3, #64	@ 0x40
 8004908:	2b00      	cmp	r3, #0
 800490a:	d010      	beq.n	800492e <UART4_IRQHandler+0xce>
	{
	    if (__usart_4_config__ ->ISR_Routines.Transmission_Complete_ISR) {
 800490c:	4b2f      	ldr	r3, [pc, #188]	@ (80049cc <UART4_IRQHandler+0x16c>)
 800490e:	681b      	ldr	r3, [r3, #0]
 8004910:	f8d3 30cc 	ldr.w	r3, [r3, #204]	@ 0xcc
 8004914:	2b00      	cmp	r3, #0
 8004916:	d00a      	beq.n	800492e <UART4_IRQHandler+0xce>
	    	__usart_4_config__ ->ISR_Routines.Transmission_Complete_ISR();
 8004918:	4b2c      	ldr	r3, [pc, #176]	@ (80049cc <UART4_IRQHandler+0x16c>)
 800491a:	681b      	ldr	r3, [r3, #0]
 800491c:	f8d3 30cc 	ldr.w	r3, [r3, #204]	@ 0xcc
 8004920:	4798      	blx	r3
	    	UART4->SR &= ~USART_SR_TC;  // Clear the Break interrupt flag
 8004922:	4b28      	ldr	r3, [pc, #160]	@ (80049c4 <UART4_IRQHandler+0x164>)
 8004924:	681b      	ldr	r3, [r3, #0]
 8004926:	4a27      	ldr	r2, [pc, #156]	@ (80049c4 <UART4_IRQHandler+0x164>)
 8004928:	f023 0340 	bic.w	r3, r3, #64	@ 0x40
 800492c:	6013      	str	r3, [r2, #0]
	    }
	}

	if(USART_SR & USART_SR_RXNE)
 800492e:	4b26      	ldr	r3, [pc, #152]	@ (80049c8 <UART4_IRQHandler+0x168>)
 8004930:	881b      	ldrh	r3, [r3, #0]
 8004932:	b29b      	uxth	r3, r3
 8004934:	f003 0320 	and.w	r3, r3, #32
 8004938:	2b00      	cmp	r3, #0
 800493a:	d010      	beq.n	800495e <UART4_IRQHandler+0xfe>
	{
	    if (__usart_4_config__ ->ISR_Routines.Receiver_Empty_ISR) {
 800493c:	4b23      	ldr	r3, [pc, #140]	@ (80049cc <UART4_IRQHandler+0x16c>)
 800493e:	681b      	ldr	r3, [r3, #0]
 8004940:	f8d3 30d0 	ldr.w	r3, [r3, #208]	@ 0xd0
 8004944:	2b00      	cmp	r3, #0
 8004946:	d00a      	beq.n	800495e <UART4_IRQHandler+0xfe>
	    	__usart_4_config__ ->ISR_Routines.Receiver_Empty_ISR();
 8004948:	4b20      	ldr	r3, [pc, #128]	@ (80049cc <UART4_IRQHandler+0x16c>)
 800494a:	681b      	ldr	r3, [r3, #0]
 800494c:	f8d3 30d0 	ldr.w	r3, [r3, #208]	@ 0xd0
 8004950:	4798      	blx	r3
	    	UART4->SR &= ~USART_SR_RXNE;  // Clear the Break interrupt flag
 8004952:	4b1c      	ldr	r3, [pc, #112]	@ (80049c4 <UART4_IRQHandler+0x164>)
 8004954:	681b      	ldr	r3, [r3, #0]
 8004956:	4a1b      	ldr	r2, [pc, #108]	@ (80049c4 <UART4_IRQHandler+0x164>)
 8004958:	f023 0320 	bic.w	r3, r3, #32
 800495c:	6013      	str	r3, [r2, #0]
	    }
	}


	if(USART_SR & USART_SR_IDLE)
 800495e:	4b1a      	ldr	r3, [pc, #104]	@ (80049c8 <UART4_IRQHandler+0x168>)
 8004960:	881b      	ldrh	r3, [r3, #0]
 8004962:	b29b      	uxth	r3, r3
 8004964:	f003 0310 	and.w	r3, r3, #16
 8004968:	2b00      	cmp	r3, #0
 800496a:	d010      	beq.n	800498e <UART4_IRQHandler+0x12e>
	{
	    if (__usart_4_config__ ->ISR_Routines.Idle_Line_ISR) {
 800496c:	4b17      	ldr	r3, [pc, #92]	@ (80049cc <UART4_IRQHandler+0x16c>)
 800496e:	681b      	ldr	r3, [r3, #0]
 8004970:	f8d3 30d4 	ldr.w	r3, [r3, #212]	@ 0xd4
 8004974:	2b00      	cmp	r3, #0
 8004976:	d00a      	beq.n	800498e <UART4_IRQHandler+0x12e>
	    	__usart_4_config__ ->ISR_Routines.Idle_Line_ISR();
 8004978:	4b14      	ldr	r3, [pc, #80]	@ (80049cc <UART4_IRQHandler+0x16c>)
 800497a:	681b      	ldr	r3, [r3, #0]
 800497c:	f8d3 30d4 	ldr.w	r3, [r3, #212]	@ 0xd4
 8004980:	4798      	blx	r3
	    	UART4->SR &= ~USART_SR_IDLE;  // Clear the Break interrupt flag
 8004982:	4b10      	ldr	r3, [pc, #64]	@ (80049c4 <UART4_IRQHandler+0x164>)
 8004984:	681b      	ldr	r3, [r3, #0]
 8004986:	4a0f      	ldr	r2, [pc, #60]	@ (80049c4 <UART4_IRQHandler+0x164>)
 8004988:	f023 0310 	bic.w	r3, r3, #16
 800498c:	6013      	str	r3, [r2, #0]
	    }
	}

	if(USART_SR & USART_SR_PE)
 800498e:	4b0e      	ldr	r3, [pc, #56]	@ (80049c8 <UART4_IRQHandler+0x168>)
 8004990:	881b      	ldrh	r3, [r3, #0]
 8004992:	b29b      	uxth	r3, r3
 8004994:	f003 0301 	and.w	r3, r3, #1
 8004998:	2b00      	cmp	r3, #0
 800499a:	d010      	beq.n	80049be <UART4_IRQHandler+0x15e>
	{
	    if (__usart_4_config__ ->ISR_Routines.Parity_ISR) {
 800499c:	4b0b      	ldr	r3, [pc, #44]	@ (80049cc <UART4_IRQHandler+0x16c>)
 800499e:	681b      	ldr	r3, [r3, #0]
 80049a0:	f8d3 30c4 	ldr.w	r3, [r3, #196]	@ 0xc4
 80049a4:	2b00      	cmp	r3, #0
 80049a6:	d00a      	beq.n	80049be <UART4_IRQHandler+0x15e>
	    	__usart_4_config__ ->ISR_Routines.Parity_ISR();
 80049a8:	4b08      	ldr	r3, [pc, #32]	@ (80049cc <UART4_IRQHandler+0x16c>)
 80049aa:	681b      	ldr	r3, [r3, #0]
 80049ac:	f8d3 30c4 	ldr.w	r3, [r3, #196]	@ 0xc4
 80049b0:	4798      	blx	r3
	    	UART4->SR &= ~USART_SR_PE;  // Clear the Break interrupt flag
 80049b2:	4b04      	ldr	r3, [pc, #16]	@ (80049c4 <UART4_IRQHandler+0x164>)
 80049b4:	681b      	ldr	r3, [r3, #0]
 80049b6:	4a03      	ldr	r2, [pc, #12]	@ (80049c4 <UART4_IRQHandler+0x164>)
 80049b8:	f023 0301 	bic.w	r3, r3, #1
 80049bc:	6013      	str	r3, [r2, #0]
	    }
	}

}
 80049be:	bf00      	nop
 80049c0:	bd80      	pop	{r7, pc}
 80049c2:	bf00      	nop
 80049c4:	40004c00 	.word	0x40004c00
 80049c8:	200002fc 	.word	0x200002fc
 80049cc:	200002f8 	.word	0x200002f8

080049d0 <USART1_IRQHandler>:


void USART1_IRQHandler(void)
{
 80049d0:	b580      	push	{r7, lr}
 80049d2:	af00      	add	r7, sp, #0
	USART_SR = USART1 -> SR;
 80049d4:	4b57      	ldr	r3, [pc, #348]	@ (8004b34 <USART1_IRQHandler+0x164>)
 80049d6:	681b      	ldr	r3, [r3, #0]
 80049d8:	b29a      	uxth	r2, r3
 80049da:	4b57      	ldr	r3, [pc, #348]	@ (8004b38 <USART1_IRQHandler+0x168>)
 80049dc:	801a      	strh	r2, [r3, #0]
	if(USART_SR & USART_SR_CTS)
 80049de:	4b56      	ldr	r3, [pc, #344]	@ (8004b38 <USART1_IRQHandler+0x168>)
 80049e0:	881b      	ldrh	r3, [r3, #0]
 80049e2:	b29b      	uxth	r3, r3
 80049e4:	f403 7300 	and.w	r3, r3, #512	@ 0x200
 80049e8:	2b00      	cmp	r3, #0
 80049ea:	d010      	beq.n	8004a0e <USART1_IRQHandler+0x3e>
	{
	    if (__usart_1_config__ ->ISR_Routines.CTS_ISR) {
 80049ec:	4b53      	ldr	r3, [pc, #332]	@ (8004b3c <USART1_IRQHandler+0x16c>)
 80049ee:	681b      	ldr	r3, [r3, #0]
 80049f0:	f8d3 30d8 	ldr.w	r3, [r3, #216]	@ 0xd8
 80049f4:	2b00      	cmp	r3, #0
 80049f6:	d00a      	beq.n	8004a0e <USART1_IRQHandler+0x3e>
	    	__usart_1_config__ ->ISR_Routines.CTS_ISR();
 80049f8:	4b50      	ldr	r3, [pc, #320]	@ (8004b3c <USART1_IRQHandler+0x16c>)
 80049fa:	681b      	ldr	r3, [r3, #0]
 80049fc:	f8d3 30d8 	ldr.w	r3, [r3, #216]	@ 0xd8
 8004a00:	4798      	blx	r3
	    	USART1->SR &= ~USART_SR_CTS;  // Clear the Break interrupt flag
 8004a02:	4b4c      	ldr	r3, [pc, #304]	@ (8004b34 <USART1_IRQHandler+0x164>)
 8004a04:	681b      	ldr	r3, [r3, #0]
 8004a06:	4a4b      	ldr	r2, [pc, #300]	@ (8004b34 <USART1_IRQHandler+0x164>)
 8004a08:	f423 7300 	bic.w	r3, r3, #512	@ 0x200
 8004a0c:	6013      	str	r3, [r2, #0]
	    }
	}

	if(USART_SR & USART_SR_LBD)
 8004a0e:	4b4a      	ldr	r3, [pc, #296]	@ (8004b38 <USART1_IRQHandler+0x168>)
 8004a10:	881b      	ldrh	r3, [r3, #0]
 8004a12:	b29b      	uxth	r3, r3
 8004a14:	f403 7380 	and.w	r3, r3, #256	@ 0x100
 8004a18:	2b00      	cmp	r3, #0
 8004a1a:	d010      	beq.n	8004a3e <USART1_IRQHandler+0x6e>
	{
	    if (__usart_1_config__ ->ISR_Routines.LIN_Break_Detection_ISR) {
 8004a1c:	4b47      	ldr	r3, [pc, #284]	@ (8004b3c <USART1_IRQHandler+0x16c>)
 8004a1e:	681b      	ldr	r3, [r3, #0]
 8004a20:	f8d3 30e0 	ldr.w	r3, [r3, #224]	@ 0xe0
 8004a24:	2b00      	cmp	r3, #0
 8004a26:	d00a      	beq.n	8004a3e <USART1_IRQHandler+0x6e>
	    	__usart_1_config__ ->ISR_Routines.LIN_Break_Detection_ISR();
 8004a28:	4b44      	ldr	r3, [pc, #272]	@ (8004b3c <USART1_IRQHandler+0x16c>)
 8004a2a:	681b      	ldr	r3, [r3, #0]
 8004a2c:	f8d3 30e0 	ldr.w	r3, [r3, #224]	@ 0xe0
 8004a30:	4798      	blx	r3
	    	USART1->SR &= ~USART_SR_LBD;  // Clear the Break interrupt flag
 8004a32:	4b40      	ldr	r3, [pc, #256]	@ (8004b34 <USART1_IRQHandler+0x164>)
 8004a34:	681b      	ldr	r3, [r3, #0]
 8004a36:	4a3f      	ldr	r2, [pc, #252]	@ (8004b34 <USART1_IRQHandler+0x164>)
 8004a38:	f423 7380 	bic.w	r3, r3, #256	@ 0x100
 8004a3c:	6013      	str	r3, [r2, #0]
	    }
	}

	if(USART_SR & USART_SR_TXE)
 8004a3e:	4b3e      	ldr	r3, [pc, #248]	@ (8004b38 <USART1_IRQHandler+0x168>)
 8004a40:	881b      	ldrh	r3, [r3, #0]
 8004a42:	b29b      	uxth	r3, r3
 8004a44:	f003 0380 	and.w	r3, r3, #128	@ 0x80
 8004a48:	2b00      	cmp	r3, #0
 8004a4a:	d010      	beq.n	8004a6e <USART1_IRQHandler+0x9e>
	{
	    if (__usart_1_config__ ->ISR_Routines.Transmit_Empty_ISR) {
 8004a4c:	4b3b      	ldr	r3, [pc, #236]	@ (8004b3c <USART1_IRQHandler+0x16c>)
 8004a4e:	681b      	ldr	r3, [r3, #0]
 8004a50:	f8d3 30c8 	ldr.w	r3, [r3, #200]	@ 0xc8
 8004a54:	2b00      	cmp	r3, #0
 8004a56:	d00a      	beq.n	8004a6e <USART1_IRQHandler+0x9e>
	    	__usart_1_config__ ->ISR_Routines.Transmit_Empty_ISR();
 8004a58:	4b38      	ldr	r3, [pc, #224]	@ (8004b3c <USART1_IRQHandler+0x16c>)
 8004a5a:	681b      	ldr	r3, [r3, #0]
 8004a5c:	f8d3 30c8 	ldr.w	r3, [r3, #200]	@ 0xc8
 8004a60:	4798      	blx	r3
	    	USART1->SR &= ~USART_SR_TXE;  // Clear the Break interrupt flag
 8004a62:	4b34      	ldr	r3, [pc, #208]	@ (8004b34 <USART1_IRQHandler+0x164>)
 8004a64:	681b      	ldr	r3, [r3, #0]
 8004a66:	4a33      	ldr	r2, [pc, #204]	@ (8004b34 <USART1_IRQHandler+0x164>)
 8004a68:	f023 0380 	bic.w	r3, r3, #128	@ 0x80
 8004a6c:	6013      	str	r3, [r2, #0]
	    }
	}


	if(USART_SR & USART_SR_TC)
 8004a6e:	4b32      	ldr	r3, [pc, #200]	@ (8004b38 <USART1_IRQHandler+0x168>)
 8004a70:	881b      	ldrh	r3, [r3, #0]
 8004a72:	b29b      	uxth	r3, r3
 8004a74:	f003 0340 	and.w	r3, r3, #64	@ 0x40
 8004a78:	2b00      	cmp	r3, #0
 8004a7a:	d010      	beq.n	8004a9e <USART1_IRQHandler+0xce>
	{
	    if (__usart_1_config__ ->ISR_Routines.Transmission_Complete_ISR) {
 8004a7c:	4b2f      	ldr	r3, [pc, #188]	@ (8004b3c <USART1_IRQHandler+0x16c>)
 8004a7e:	681b      	ldr	r3, [r3, #0]
 8004a80:	f8d3 30cc 	ldr.w	r3, [r3, #204]	@ 0xcc
 8004a84:	2b00      	cmp	r3, #0
 8004a86:	d00a      	beq.n	8004a9e <USART1_IRQHandler+0xce>
	    	__usart_1_config__ ->ISR_Routines.Transmission_Complete_ISR();
 8004a88:	4b2c      	ldr	r3, [pc, #176]	@ (8004b3c <USART1_IRQHandler+0x16c>)
 8004a8a:	681b      	ldr	r3, [r3, #0]
 8004a8c:	f8d3 30cc 	ldr.w	r3, [r3, #204]	@ 0xcc
 8004a90:	4798      	blx	r3
	    	USART1->SR &= ~USART_SR_TC;  // Clear the Break interrupt flag
 8004a92:	4b28      	ldr	r3, [pc, #160]	@ (8004b34 <USART1_IRQHandler+0x164>)
 8004a94:	681b      	ldr	r3, [r3, #0]
 8004a96:	4a27      	ldr	r2, [pc, #156]	@ (8004b34 <USART1_IRQHandler+0x164>)
 8004a98:	f023 0340 	bic.w	r3, r3, #64	@ 0x40
 8004a9c:	6013      	str	r3, [r2, #0]
	    }
	}

	if(USART_SR & USART_SR_RXNE)
 8004a9e:	4b26      	ldr	r3, [pc, #152]	@ (8004b38 <USART1_IRQHandler+0x168>)
 8004aa0:	881b      	ldrh	r3, [r3, #0]
 8004aa2:	b29b      	uxth	r3, r3
 8004aa4:	f003 0320 	and.w	r3, r3, #32
 8004aa8:	2b00      	cmp	r3, #0
 8004aaa:	d010      	beq.n	8004ace <USART1_IRQHandler+0xfe>
	{
	    if (__usart_1_config__ ->ISR_Routines.Receiver_Empty_ISR) {
 8004aac:	4b23      	ldr	r3, [pc, #140]	@ (8004b3c <USART1_IRQHandler+0x16c>)
 8004aae:	681b      	ldr	r3, [r3, #0]
 8004ab0:	f8d3 30d0 	ldr.w	r3, [r3, #208]	@ 0xd0
 8004ab4:	2b00      	cmp	r3, #0
 8004ab6:	d00a      	beq.n	8004ace <USART1_IRQHandler+0xfe>
	    	__usart_1_config__ ->ISR_Routines.Receiver_Empty_ISR();
 8004ab8:	4b20      	ldr	r3, [pc, #128]	@ (8004b3c <USART1_IRQHandler+0x16c>)
 8004aba:	681b      	ldr	r3, [r3, #0]
 8004abc:	f8d3 30d0 	ldr.w	r3, [r3, #208]	@ 0xd0
 8004ac0:	4798      	blx	r3
	    	USART1->SR &= ~USART_SR_RXNE;  // Clear the Break interrupt flag
 8004ac2:	4b1c      	ldr	r3, [pc, #112]	@ (8004b34 <USART1_IRQHandler+0x164>)
 8004ac4:	681b      	ldr	r3, [r3, #0]
 8004ac6:	4a1b      	ldr	r2, [pc, #108]	@ (8004b34 <USART1_IRQHandler+0x164>)
 8004ac8:	f023 0320 	bic.w	r3, r3, #32
 8004acc:	6013      	str	r3, [r2, #0]
	    }
	}


	if(USART_SR & USART_SR_IDLE)
 8004ace:	4b1a      	ldr	r3, [pc, #104]	@ (8004b38 <USART1_IRQHandler+0x168>)
 8004ad0:	881b      	ldrh	r3, [r3, #0]
 8004ad2:	b29b      	uxth	r3, r3
 8004ad4:	f003 0310 	and.w	r3, r3, #16
 8004ad8:	2b00      	cmp	r3, #0
 8004ada:	d010      	beq.n	8004afe <USART1_IRQHandler+0x12e>
	{
	    if (__usart_1_config__ ->ISR_Routines.Idle_Line_ISR) {
 8004adc:	4b17      	ldr	r3, [pc, #92]	@ (8004b3c <USART1_IRQHandler+0x16c>)
 8004ade:	681b      	ldr	r3, [r3, #0]
 8004ae0:	f8d3 30d4 	ldr.w	r3, [r3, #212]	@ 0xd4
 8004ae4:	2b00      	cmp	r3, #0
 8004ae6:	d00a      	beq.n	8004afe <USART1_IRQHandler+0x12e>
	    	__usart_1_config__ ->ISR_Routines.Idle_Line_ISR();
 8004ae8:	4b14      	ldr	r3, [pc, #80]	@ (8004b3c <USART1_IRQHandler+0x16c>)
 8004aea:	681b      	ldr	r3, [r3, #0]
 8004aec:	f8d3 30d4 	ldr.w	r3, [r3, #212]	@ 0xd4
 8004af0:	4798      	blx	r3
	    	USART1->SR &= ~USART_SR_IDLE;  // Clear the Break interrupt flag
 8004af2:	4b10      	ldr	r3, [pc, #64]	@ (8004b34 <USART1_IRQHandler+0x164>)
 8004af4:	681b      	ldr	r3, [r3, #0]
 8004af6:	4a0f      	ldr	r2, [pc, #60]	@ (8004b34 <USART1_IRQHandler+0x164>)
 8004af8:	f023 0310 	bic.w	r3, r3, #16
 8004afc:	6013      	str	r3, [r2, #0]
	    }
	}

	if(USART_SR & USART_SR_PE)
 8004afe:	4b0e      	ldr	r3, [pc, #56]	@ (8004b38 <USART1_IRQHandler+0x168>)
 8004b00:	881b      	ldrh	r3, [r3, #0]
 8004b02:	b29b      	uxth	r3, r3
 8004b04:	f003 0301 	and.w	r3, r3, #1
 8004b08:	2b00      	cmp	r3, #0
 8004b0a:	d010      	beq.n	8004b2e <USART1_IRQHandler+0x15e>
	{
	    if (__usart_1_config__ ->ISR_Routines.Parity_ISR) {
 8004b0c:	4b0b      	ldr	r3, [pc, #44]	@ (8004b3c <USART1_IRQHandler+0x16c>)
 8004b0e:	681b      	ldr	r3, [r3, #0]
 8004b10:	f8d3 30c4 	ldr.w	r3, [r3, #196]	@ 0xc4
 8004b14:	2b00      	cmp	r3, #0
 8004b16:	d00a      	beq.n	8004b2e <USART1_IRQHandler+0x15e>
	    	__usart_1_config__ ->ISR_Routines.Parity_ISR();
 8004b18:	4b08      	ldr	r3, [pc, #32]	@ (8004b3c <USART1_IRQHandler+0x16c>)
 8004b1a:	681b      	ldr	r3, [r3, #0]
 8004b1c:	f8d3 30c4 	ldr.w	r3, [r3, #196]	@ 0xc4
 8004b20:	4798      	blx	r3
	    	USART1->SR &= ~USART_SR_PE;  // Clear the Break interrupt flag
 8004b22:	4b04      	ldr	r3, [pc, #16]	@ (8004b34 <USART1_IRQHandler+0x164>)
 8004b24:	681b      	ldr	r3, [r3, #0]
 8004b26:	4a03      	ldr	r2, [pc, #12]	@ (8004b34 <USART1_IRQHandler+0x164>)
 8004b28:	f023 0301 	bic.w	r3, r3, #1
 8004b2c:	6013      	str	r3, [r2, #0]
	    }
	}

}
 8004b2e:	bf00      	nop
 8004b30:	bd80      	pop	{r7, pc}
 8004b32:	bf00      	nop
 8004b34:	40011000 	.word	0x40011000
 8004b38:	200002fc 	.word	0x200002fc
 8004b3c:	200002f4 	.word	0x200002f4

08004b40 <__NVIC_SetPriority>:
  \param [in]      IRQn  Interrupt number.
  \param [in]  priority  Priority to set.
  \note    The priority cannot be set for every processor exception.
 */
__STATIC_INLINE void __NVIC_SetPriority(IRQn_Type IRQn, uint32_t priority)
{
 8004b40:	b480      	push	{r7}
 8004b42:	b083      	sub	sp, #12
 8004b44:	af00      	add	r7, sp, #0
 8004b46:	4603      	mov	r3, r0
 8004b48:	6039      	str	r1, [r7, #0]
 8004b4a:	71fb      	strb	r3, [r7, #7]
  if ((int32_t)(IRQn) >= 0)
 8004b4c:	f997 3007 	ldrsb.w	r3, [r7, #7]
 8004b50:	2b00      	cmp	r3, #0
 8004b52:	db0a      	blt.n	8004b6a <__NVIC_SetPriority+0x2a>
  {
    NVIC->IP[((uint32_t)IRQn)]               = (uint8_t)((priority << (8U - __NVIC_PRIO_BITS)) & (uint32_t)0xFFUL);
 8004b54:	683b      	ldr	r3, [r7, #0]
 8004b56:	b2da      	uxtb	r2, r3
 8004b58:	490c      	ldr	r1, [pc, #48]	@ (8004b8c <__NVIC_SetPriority+0x4c>)
 8004b5a:	f997 3007 	ldrsb.w	r3, [r7, #7]
 8004b5e:	0112      	lsls	r2, r2, #4
 8004b60:	b2d2      	uxtb	r2, r2
 8004b62:	440b      	add	r3, r1
 8004b64:	f883 2300 	strb.w	r2, [r3, #768]	@ 0x300
  }
  else
  {
    SCB->SHP[(((uint32_t)IRQn) & 0xFUL)-4UL] = (uint8_t)((priority << (8U - __NVIC_PRIO_BITS)) & (uint32_t)0xFFUL);
  }
}
 8004b68:	e00a      	b.n	8004b80 <__NVIC_SetPriority+0x40>
    SCB->SHP[(((uint32_t)IRQn) & 0xFUL)-4UL] = (uint8_t)((priority << (8U - __NVIC_PRIO_BITS)) & (uint32_t)0xFFUL);
 8004b6a:	683b      	ldr	r3, [r7, #0]
 8004b6c:	b2da      	uxtb	r2, r3
 8004b6e:	4908      	ldr	r1, [pc, #32]	@ (8004b90 <__NVIC_SetPriority+0x50>)
 8004b70:	79fb      	ldrb	r3, [r7, #7]
 8004b72:	f003 030f 	and.w	r3, r3, #15
 8004b76:	3b04      	subs	r3, #4
 8004b78:	0112      	lsls	r2, r2, #4
 8004b7a:	b2d2      	uxtb	r2, r2
 8004b7c:	440b      	add	r3, r1
 8004b7e:	761a      	strb	r2, [r3, #24]
}
 8004b80:	bf00      	nop
 8004b82:	370c      	adds	r7, #12
 8004b84:	46bd      	mov	sp, r7
 8004b86:	f85d 7b04 	ldr.w	r7, [sp], #4
 8004b8a:	4770      	bx	lr
 8004b8c:	e000e100 	.word	0xe000e100
 8004b90:	e000ed00 	.word	0xe000ed00

08004b94 <SysTick_Config>:
  \note    When the variable <b>__Vendor_SysTickConfig</b> is set to 1, then the
           function <b>SysTick_Config</b> is not included. In this case, the file <b><i>device</i>.h</b>
           must contain a vendor-specific implementation of this function.
 */
__STATIC_INLINE uint32_t SysTick_Config(uint32_t ticks)
{
 8004b94:	b580      	push	{r7, lr}
 8004b96:	b082      	sub	sp, #8
 8004b98:	af00      	add	r7, sp, #0
 8004b9a:	6078      	str	r0, [r7, #4]
  if ((ticks - 1UL) > SysTick_LOAD_RELOAD_Msk)
 8004b9c:	687b      	ldr	r3, [r7, #4]
 8004b9e:	3b01      	subs	r3, #1
 8004ba0:	f1b3 7f80 	cmp.w	r3, #16777216	@ 0x1000000
 8004ba4:	d301      	bcc.n	8004baa <SysTick_Config+0x16>
  {
    return (1UL);                                                   /* Reload value impossible */
 8004ba6:	2301      	movs	r3, #1
 8004ba8:	e00f      	b.n	8004bca <SysTick_Config+0x36>
  }

  SysTick->LOAD  = (uint32_t)(ticks - 1UL);                         /* set reload register */
 8004baa:	4a0a      	ldr	r2, [pc, #40]	@ (8004bd4 <SysTick_Config+0x40>)
 8004bac:	687b      	ldr	r3, [r7, #4]
 8004bae:	3b01      	subs	r3, #1
 8004bb0:	6053      	str	r3, [r2, #4]
  NVIC_SetPriority (SysTick_IRQn, (1UL << __NVIC_PRIO_BITS) - 1UL); /* set Priority for Systick Interrupt */
 8004bb2:	210f      	movs	r1, #15
 8004bb4:	f04f 30ff 	mov.w	r0, #4294967295
 8004bb8:	f7ff ffc2 	bl	8004b40 <__NVIC_SetPriority>
  SysTick->VAL   = 0UL;                                             /* Load the SysTick Counter Value */
 8004bbc:	4b05      	ldr	r3, [pc, #20]	@ (8004bd4 <SysTick_Config+0x40>)
 8004bbe:	2200      	movs	r2, #0
 8004bc0:	609a      	str	r2, [r3, #8]
  SysTick->CTRL  = SysTick_CTRL_CLKSOURCE_Msk |
 8004bc2:	4b04      	ldr	r3, [pc, #16]	@ (8004bd4 <SysTick_Config+0x40>)
 8004bc4:	2207      	movs	r2, #7
 8004bc6:	601a      	str	r2, [r3, #0]
                   SysTick_CTRL_TICKINT_Msk   |
                   SysTick_CTRL_ENABLE_Msk;                         /* Enable SysTick IRQ and SysTick Timer */
  return (0UL);                                                     /* Function successful */
 8004bc8:	2300      	movs	r3, #0
}
 8004bca:	4618      	mov	r0, r3
 8004bcc:	3708      	adds	r7, #8
 8004bce:	46bd      	mov	sp, r7
 8004bd0:	bd80      	pop	{r7, pc}
 8004bd2:	bf00      	nop
 8004bd4:	e000e010 	.word	0xe000e010

08004bd8 <MCU_Clock_Setup>:
{
 8004bd8:	b580      	push	{r7, lr}
 8004bda:	b082      	sub	sp, #8
 8004bdc:	af00      	add	r7, sp, #0
	SystemInit();
 8004bde:	f000 f99b 	bl	8004f18 <SystemInit>
	uint8_t pll_m = 8;
 8004be2:	2308      	movs	r3, #8
 8004be4:	71fb      	strb	r3, [r7, #7]
	uint16_t pll_n = 336; //192
 8004be6:	f44f 73a8 	mov.w	r3, #336	@ 0x150
 8004bea:	80bb      	strh	r3, [r7, #4]
	uint8_t pll_p = 0;
 8004bec:	2300      	movs	r3, #0
 8004bee:	70fb      	strb	r3, [r7, #3]
	uint8_t pll_q = 7;
 8004bf0:	2307      	movs	r3, #7
 8004bf2:	70bb      	strb	r3, [r7, #2]
	RCC->PLLCFGR = 0x00000000;
 8004bf4:	4b3c      	ldr	r3, [pc, #240]	@ (8004ce8 <MCU_Clock_Setup+0x110>)
 8004bf6:	2200      	movs	r2, #0
 8004bf8:	605a      	str	r2, [r3, #4]
	RCC -> CR |= RCC_CR_HSEON;
 8004bfa:	4b3b      	ldr	r3, [pc, #236]	@ (8004ce8 <MCU_Clock_Setup+0x110>)
 8004bfc:	681b      	ldr	r3, [r3, #0]
 8004bfe:	4a3a      	ldr	r2, [pc, #232]	@ (8004ce8 <MCU_Clock_Setup+0x110>)
 8004c00:	f443 3380 	orr.w	r3, r3, #65536	@ 0x10000
 8004c04:	6013      	str	r3, [r2, #0]
	while(!(RCC -> CR & RCC_CR_HSERDY)){}
 8004c06:	bf00      	nop
 8004c08:	4b37      	ldr	r3, [pc, #220]	@ (8004ce8 <MCU_Clock_Setup+0x110>)
 8004c0a:	681b      	ldr	r3, [r3, #0]
 8004c0c:	f403 3300 	and.w	r3, r3, #131072	@ 0x20000
 8004c10:	2b00      	cmp	r3, #0
 8004c12:	d0f9      	beq.n	8004c08 <MCU_Clock_Setup+0x30>
	RCC -> APB1ENR |= RCC_APB1ENR_PWREN;
 8004c14:	4b34      	ldr	r3, [pc, #208]	@ (8004ce8 <MCU_Clock_Setup+0x110>)
 8004c16:	6c1b      	ldr	r3, [r3, #64]	@ 0x40
 8004c18:	4a33      	ldr	r2, [pc, #204]	@ (8004ce8 <MCU_Clock_Setup+0x110>)
 8004c1a:	f043 5380 	orr.w	r3, r3, #268435456	@ 0x10000000
 8004c1e:	6413      	str	r3, [r2, #64]	@ 0x40
	PWR ->CR |= PWR_CR_VOS;
 8004c20:	4b32      	ldr	r3, [pc, #200]	@ (8004cec <MCU_Clock_Setup+0x114>)
 8004c22:	681b      	ldr	r3, [r3, #0]
 8004c24:	4a31      	ldr	r2, [pc, #196]	@ (8004cec <MCU_Clock_Setup+0x114>)
 8004c26:	f443 4380 	orr.w	r3, r3, #16384	@ 0x4000
 8004c2a:	6013      	str	r3, [r2, #0]
	FLASH -> ACR |= FLASH_ACR_ICEN | FLASH_ACR_PRFTEN | FLASH_ACR_DCEN | FLASH_ACR_LATENCY_5WS;
 8004c2c:	4b30      	ldr	r3, [pc, #192]	@ (8004cf0 <MCU_Clock_Setup+0x118>)
 8004c2e:	681b      	ldr	r3, [r3, #0]
 8004c30:	4a2f      	ldr	r2, [pc, #188]	@ (8004cf0 <MCU_Clock_Setup+0x118>)
 8004c32:	f443 63e0 	orr.w	r3, r3, #1792	@ 0x700
 8004c36:	f043 0305 	orr.w	r3, r3, #5
 8004c3a:	6013      	str	r3, [r2, #0]
	RCC->PLLCFGR |= (pll_q << 24) | (pll_p << 16) | (pll_n << 6) | (pll_m << 0);
 8004c3c:	4b2a      	ldr	r3, [pc, #168]	@ (8004ce8 <MCU_Clock_Setup+0x110>)
 8004c3e:	685b      	ldr	r3, [r3, #4]
 8004c40:	78ba      	ldrb	r2, [r7, #2]
 8004c42:	0611      	lsls	r1, r2, #24
 8004c44:	78fa      	ldrb	r2, [r7, #3]
 8004c46:	0412      	lsls	r2, r2, #16
 8004c48:	4311      	orrs	r1, r2
 8004c4a:	88ba      	ldrh	r2, [r7, #4]
 8004c4c:	0192      	lsls	r2, r2, #6
 8004c4e:	4311      	orrs	r1, r2
 8004c50:	79fa      	ldrb	r2, [r7, #7]
 8004c52:	430a      	orrs	r2, r1
 8004c54:	4611      	mov	r1, r2
 8004c56:	4a24      	ldr	r2, [pc, #144]	@ (8004ce8 <MCU_Clock_Setup+0x110>)
 8004c58:	430b      	orrs	r3, r1
 8004c5a:	6053      	str	r3, [r2, #4]
	RCC ->PLLCFGR |= 1 << 22;
 8004c5c:	4b22      	ldr	r3, [pc, #136]	@ (8004ce8 <MCU_Clock_Setup+0x110>)
 8004c5e:	685b      	ldr	r3, [r3, #4]
 8004c60:	4a21      	ldr	r2, [pc, #132]	@ (8004ce8 <MCU_Clock_Setup+0x110>)
 8004c62:	f443 0380 	orr.w	r3, r3, #4194304	@ 0x400000
 8004c66:	6053      	str	r3, [r2, #4]
	RCC -> CFGR |= RCC_CFGR_HPRE_DIV1;
 8004c68:	4b1f      	ldr	r3, [pc, #124]	@ (8004ce8 <MCU_Clock_Setup+0x110>)
 8004c6a:	4a1f      	ldr	r2, [pc, #124]	@ (8004ce8 <MCU_Clock_Setup+0x110>)
 8004c6c:	689b      	ldr	r3, [r3, #8]
 8004c6e:	6093      	str	r3, [r2, #8]
	RCC -> CFGR |= RCC_CFGR_PPRE1_DIV4;
 8004c70:	4b1d      	ldr	r3, [pc, #116]	@ (8004ce8 <MCU_Clock_Setup+0x110>)
 8004c72:	689b      	ldr	r3, [r3, #8]
 8004c74:	4a1c      	ldr	r2, [pc, #112]	@ (8004ce8 <MCU_Clock_Setup+0x110>)
 8004c76:	f443 53a0 	orr.w	r3, r3, #5120	@ 0x1400
 8004c7a:	6093      	str	r3, [r2, #8]
	RCC -> CFGR |= RCC_CFGR_PPRE2_DIV2;
 8004c7c:	4b1a      	ldr	r3, [pc, #104]	@ (8004ce8 <MCU_Clock_Setup+0x110>)
 8004c7e:	689b      	ldr	r3, [r3, #8]
 8004c80:	4a19      	ldr	r2, [pc, #100]	@ (8004ce8 <MCU_Clock_Setup+0x110>)
 8004c82:	f443 4300 	orr.w	r3, r3, #32768	@ 0x8000
 8004c86:	6093      	str	r3, [r2, #8]
	RCC -> CR |= RCC_CR_PLLON;
 8004c88:	4b17      	ldr	r3, [pc, #92]	@ (8004ce8 <MCU_Clock_Setup+0x110>)
 8004c8a:	681b      	ldr	r3, [r3, #0]
 8004c8c:	4a16      	ldr	r2, [pc, #88]	@ (8004ce8 <MCU_Clock_Setup+0x110>)
 8004c8e:	f043 7380 	orr.w	r3, r3, #16777216	@ 0x1000000
 8004c92:	6013      	str	r3, [r2, #0]
	while(!(RCC->CR & RCC_CR_PLLRDY)){}
 8004c94:	bf00      	nop
 8004c96:	4b14      	ldr	r3, [pc, #80]	@ (8004ce8 <MCU_Clock_Setup+0x110>)
 8004c98:	681b      	ldr	r3, [r3, #0]
 8004c9a:	f003 7300 	and.w	r3, r3, #33554432	@ 0x2000000
 8004c9e:	2b00      	cmp	r3, #0
 8004ca0:	d0f9      	beq.n	8004c96 <MCU_Clock_Setup+0xbe>
	RCC -> CFGR |= RCC_CFGR_SW_PLL;
 8004ca2:	4b11      	ldr	r3, [pc, #68]	@ (8004ce8 <MCU_Clock_Setup+0x110>)
 8004ca4:	689b      	ldr	r3, [r3, #8]
 8004ca6:	4a10      	ldr	r2, [pc, #64]	@ (8004ce8 <MCU_Clock_Setup+0x110>)
 8004ca8:	f043 0302 	orr.w	r3, r3, #2
 8004cac:	6093      	str	r3, [r2, #8]
	while((RCC -> CFGR & RCC_CFGR_SWS_PLL) != RCC_CFGR_SWS_PLL);
 8004cae:	bf00      	nop
 8004cb0:	4b0d      	ldr	r3, [pc, #52]	@ (8004ce8 <MCU_Clock_Setup+0x110>)
 8004cb2:	689b      	ldr	r3, [r3, #8]
 8004cb4:	f003 0308 	and.w	r3, r3, #8
 8004cb8:	2b08      	cmp	r3, #8
 8004cba:	d1f9      	bne.n	8004cb0 <MCU_Clock_Setup+0xd8>
	SystemCoreClockUpdate();
 8004cbc:	f000 f93e 	bl	8004f3c <SystemCoreClockUpdate>
	SysTick_Config(SystemCoreClock/168);
 8004cc0:	4b0c      	ldr	r3, [pc, #48]	@ (8004cf4 <MCU_Clock_Setup+0x11c>)
 8004cc2:	681b      	ldr	r3, [r3, #0]
 8004cc4:	08db      	lsrs	r3, r3, #3
 8004cc6:	4a0c      	ldr	r2, [pc, #48]	@ (8004cf8 <MCU_Clock_Setup+0x120>)
 8004cc8:	fba2 2303 	umull	r2, r3, r2, r3
 8004ccc:	085b      	lsrs	r3, r3, #1
 8004cce:	4618      	mov	r0, r3
 8004cd0:	f7ff ff60 	bl	8004b94 <SysTick_Config>
	RCC -> APB2ENR |= RCC_APB2ENR_SYSCFGEN;
 8004cd4:	4b04      	ldr	r3, [pc, #16]	@ (8004ce8 <MCU_Clock_Setup+0x110>)
 8004cd6:	6c5b      	ldr	r3, [r3, #68]	@ 0x44
 8004cd8:	4a03      	ldr	r2, [pc, #12]	@ (8004ce8 <MCU_Clock_Setup+0x110>)
 8004cda:	f443 4380 	orr.w	r3, r3, #16384	@ 0x4000
 8004cde:	6453      	str	r3, [r2, #68]	@ 0x44
}
 8004ce0:	bf00      	nop
 8004ce2:	3708      	adds	r7, #8
 8004ce4:	46bd      	mov	sp, r7
 8004ce6:	bd80      	pop	{r7, pc}
 8004ce8:	40023800 	.word	0x40023800
 8004cec:	40007000 	.word	0x40007000
 8004cf0:	40023c00 	.word	0x40023c00
 8004cf4:	20000000 	.word	0x20000000
 8004cf8:	18618619 	.word	0x18618619

08004cfc <Delay_Config>:
{
 8004cfc:	b480      	push	{r7}
 8004cfe:	af00      	add	r7, sp, #0
	SysTick->CTRL = 0;
 8004d00:	4b09      	ldr	r3, [pc, #36]	@ (8004d28 <Delay_Config+0x2c>)
 8004d02:	2200      	movs	r2, #0
 8004d04:	601a      	str	r2, [r3, #0]
	SysTick->LOAD = 0x00FFFFFF;
 8004d06:	4b08      	ldr	r3, [pc, #32]	@ (8004d28 <Delay_Config+0x2c>)
 8004d08:	f06f 427f 	mvn.w	r2, #4278190080	@ 0xff000000
 8004d0c:	605a      	str	r2, [r3, #4]
	SysTick->VAL = 0;
 8004d0e:	4b06      	ldr	r3, [pc, #24]	@ (8004d28 <Delay_Config+0x2c>)
 8004d10:	2200      	movs	r2, #0
 8004d12:	609a      	str	r2, [r3, #8]
	SysTick->CTRL = 5;
 8004d14:	4b04      	ldr	r3, [pc, #16]	@ (8004d28 <Delay_Config+0x2c>)
 8004d16:	2205      	movs	r2, #5
 8004d18:	601a      	str	r2, [r3, #0]
	return (0UL);                                                     /* Function successful */
 8004d1a:	2300      	movs	r3, #0
}
 8004d1c:	4618      	mov	r0, r3
 8004d1e:	46bd      	mov	sp, r7
 8004d20:	f85d 7b04 	ldr.w	r7, [sp], #4
 8004d24:	4770      	bx	lr
 8004d26:	bf00      	nop
 8004d28:	e000e010 	.word	0xe000e010

08004d2c <Delay_ms>:
{
 8004d2c:	b480      	push	{r7}
 8004d2e:	b085      	sub	sp, #20
 8004d30:	af00      	add	r7, sp, #0
 8004d32:	ed87 0a01 	vstr	s0, [r7, #4]
	unsigned long x =0x29040 * (ms);
 8004d36:	edd7 7a01 	vldr	s15, [r7, #4]
 8004d3a:	ed9f 7a11 	vldr	s14, [pc, #68]	@ 8004d80 <Delay_ms+0x54>
 8004d3e:	ee67 7a87 	vmul.f32	s15, s15, s14
 8004d42:	eefc 7ae7 	vcvt.u32.f32	s15, s15
 8004d46:	ee17 3a90 	vmov	r3, s15
 8004d4a:	60fb      	str	r3, [r7, #12]
	SysTick->LOAD =  x ;
 8004d4c:	4a0d      	ldr	r2, [pc, #52]	@ (8004d84 <Delay_ms+0x58>)
 8004d4e:	68fb      	ldr	r3, [r7, #12]
 8004d50:	6053      	str	r3, [r2, #4]
	SysTick->VAL = 0;
 8004d52:	4b0c      	ldr	r3, [pc, #48]	@ (8004d84 <Delay_ms+0x58>)
 8004d54:	2200      	movs	r2, #0
 8004d56:	609a      	str	r2, [r3, #8]
	SysTick->CTRL |= 1;
 8004d58:	4b0a      	ldr	r3, [pc, #40]	@ (8004d84 <Delay_ms+0x58>)
 8004d5a:	681b      	ldr	r3, [r3, #0]
 8004d5c:	4a09      	ldr	r2, [pc, #36]	@ (8004d84 <Delay_ms+0x58>)
 8004d5e:	f043 0301 	orr.w	r3, r3, #1
 8004d62:	6013      	str	r3, [r2, #0]
	while((SysTick->CTRL & 0x00010000) == 0);
 8004d64:	bf00      	nop
 8004d66:	4b07      	ldr	r3, [pc, #28]	@ (8004d84 <Delay_ms+0x58>)
 8004d68:	681b      	ldr	r3, [r3, #0]
 8004d6a:	f403 3380 	and.w	r3, r3, #65536	@ 0x10000
 8004d6e:	2b00      	cmp	r3, #0
 8004d70:	d0f9      	beq.n	8004d66 <Delay_ms+0x3a>
	return (0UL);                                                     /* Function successful */
 8004d72:	2300      	movs	r3, #0
}
 8004d74:	4618      	mov	r0, r3
 8004d76:	3714      	adds	r7, #20
 8004d78:	46bd      	mov	sp, r7
 8004d7a:	f85d 7b04 	ldr.w	r7, [sp], #4
 8004d7e:	4770      	bx	lr
 8004d80:	48241000 	.word	0x48241000
 8004d84:	e000e010 	.word	0xe000e010

08004d88 <Delay_s>:


__STATIC_INLINE uint32_t Delay_s(unsigned long s)
{
 8004d88:	b580      	push	{r7, lr}
 8004d8a:	b082      	sub	sp, #8
 8004d8c:	af00      	add	r7, sp, #0
 8004d8e:	6078      	str	r0, [r7, #4]
	s = s * 1000;
 8004d90:	687b      	ldr	r3, [r7, #4]
 8004d92:	f44f 727a 	mov.w	r2, #1000	@ 0x3e8
 8004d96:	fb02 f303 	mul.w	r3, r2, r3
 8004d9a:	607b      	str	r3, [r7, #4]
	for (; s>0; s--)
 8004d9c:	e006      	b.n	8004dac <Delay_s+0x24>
	{
		Delay_ms(1);
 8004d9e:	eeb7 0a00 	vmov.f32	s0, #112	@ 0x3f800000  1.0
 8004da2:	f7ff ffc3 	bl	8004d2c <Delay_ms>
	for (; s>0; s--)
 8004da6:	687b      	ldr	r3, [r7, #4]
 8004da8:	3b01      	subs	r3, #1
 8004daa:	607b      	str	r3, [r7, #4]
 8004dac:	687b      	ldr	r3, [r7, #4]
 8004dae:	2b00      	cmp	r3, #0
 8004db0:	d1f5      	bne.n	8004d9e <Delay_s+0x16>
	}
	return (0UL);
 8004db2:	2300      	movs	r3, #0
}
 8004db4:	4618      	mov	r0, r3
 8004db6:	3708      	adds	r7, #8
 8004db8:	46bd      	mov	sp, r7
 8004dba:	bd80      	pop	{r7, pc}

08004dbc <main>:
W25Qxx_Config Chip;
GC9A01_Config Display;


int main(void)
{
 8004dbc:	b580      	push	{r7, lr}
 8004dbe:	b084      	sub	sp, #16
 8004dc0:	af04      	add	r7, sp, #16
	MCU_Clock_Setup();
 8004dc2:	f7ff ff09 	bl	8004bd8 <MCU_Clock_Setup>
	Delay_Config();
 8004dc6:	f7ff ff99 	bl	8004cfc <Delay_Config>

	Delay_s(1);
 8004dca:	2001      	movs	r0, #1
 8004dcc:	f7ff ffdc 	bl	8004d88 <Delay_s>


	Global_SPI.clock_pin      = SPI_Configurations.Pin._SPI1_.CLK1.PA5;
 8004dd0:	220f      	movs	r2, #15
 8004dd2:	4b4d      	ldr	r3, [pc, #308]	@ (8004f08 <main+0x14c>)
 8004dd4:	711a      	strb	r2, [r3, #4]
	Global_SPI.miso_pin       = SPI_Configurations.Pin._SPI1_.MISO1.PA6;
 8004dd6:	2210      	movs	r2, #16
 8004dd8:	4b4b      	ldr	r3, [pc, #300]	@ (8004f08 <main+0x14c>)
 8004dda:	719a      	strb	r2, [r3, #6]
	Global_SPI.mosi_pin       = SPI_Configurations.Pin._SPI1_.MOSI1.PA7;
 8004ddc:	2211      	movs	r2, #17
 8004dde:	4b4a      	ldr	r3, [pc, #296]	@ (8004f08 <main+0x14c>)
 8004de0:	715a      	strb	r2, [r3, #5]
	Global_SPI.Port           = SPI1;
 8004de2:	4b49      	ldr	r3, [pc, #292]	@ (8004f08 <main+0x14c>)
 8004de4:	4a49      	ldr	r2, [pc, #292]	@ (8004f0c <main+0x150>)
 8004de6:	601a      	str	r2, [r3, #0]
	Global_SPI.clock_phase    = SPI_Configurations.Clock_Phase.High_1;
 8004de8:	2316      	movs	r3, #22
 8004dea:	461a      	mov	r2, r3
 8004dec:	4b46      	ldr	r3, [pc, #280]	@ (8004f08 <main+0x14c>)
 8004dee:	82da      	strh	r2, [r3, #22]
	Global_SPI.clock_polarity = SPI_Configurations.Clock_Polarity.High_1;
 8004df0:	2320      	movs	r3, #32
 8004df2:	461a      	mov	r2, r3
 8004df4:	4b44      	ldr	r3, [pc, #272]	@ (8004f08 <main+0x14c>)
 8004df6:	829a      	strh	r2, [r3, #20]
	Global_SPI.type           = SPI_Configurations.Type.Master;
 8004df8:	2332      	movs	r3, #50	@ 0x32
 8004dfa:	461a      	mov	r2, r3
 8004dfc:	4b42      	ldr	r3, [pc, #264]	@ (8004f08 <main+0x14c>)
 8004dfe:	825a      	strh	r2, [r3, #18]
	Global_SPI.prescaler      = SPI_Configurations.Prescaler.CLK_div_2;
 8004e00:	2328      	movs	r3, #40	@ 0x28
 8004e02:	461a      	mov	r2, r3
 8004e04:	4b40      	ldr	r3, [pc, #256]	@ (8004f08 <main+0x14c>)
 8004e06:	821a      	strh	r2, [r3, #16]
	Global_SPI.mode           = SPI_Configurations.Mode.Full_Duplex_Master;
 8004e08:	230b      	movs	r3, #11
 8004e0a:	461a      	mov	r2, r3
 8004e0c:	4b3e      	ldr	r3, [pc, #248]	@ (8004f08 <main+0x14c>)
 8004e0e:	811a      	strh	r2, [r3, #8]
	Global_SPI.frame_format   = SPI_Configurations.Frame_Format.MSB_First;
 8004e10:	2317      	movs	r3, #23
 8004e12:	461a      	mov	r2, r3
 8004e14:	4b3c      	ldr	r3, [pc, #240]	@ (8004f08 <main+0x14c>)
 8004e16:	81da      	strh	r2, [r3, #14]
	Global_SPI.dma            = SPI_Configurations.DMA_Type.TX_DMA_Enable | SPI_Configurations.DMA_Type.RX_DMA_Enable;
 8004e18:	2202      	movs	r2, #2
 8004e1a:	2308      	movs	r3, #8
 8004e1c:	4313      	orrs	r3, r2
 8004e1e:	b2db      	uxtb	r3, r3
 8004e20:	461a      	mov	r2, r3
 8004e22:	4b39      	ldr	r3, [pc, #228]	@ (8004f08 <main+0x14c>)
 8004e24:	835a      	strh	r2, [r3, #26]
	Global_SPI.data_format    = SPI_Configurations.Data_Format.Bit8;
 8004e26:	230b      	movs	r3, #11
 8004e28:	461a      	mov	r2, r3
 8004e2a:	4b37      	ldr	r3, [pc, #220]	@ (8004f08 <main+0x14c>)
 8004e2c:	819a      	strh	r2, [r3, #12]
	Global_SPI.crc            = SPI_Configurations.CRC_Enable.Disable;
 8004e2e:	2300      	movs	r3, #0
 8004e30:	461a      	mov	r2, r3
 8004e32:	4b35      	ldr	r3, [pc, #212]	@ (8004f08 <main+0x14c>)
 8004e34:	815a      	strh	r2, [r3, #10]
	Global_SPI.interrupt      = SPI_Configurations.Interrupts.Disable;
 8004e36:	2346      	movs	r3, #70	@ 0x46
 8004e38:	461a      	mov	r2, r3
 8004e3a:	4b33      	ldr	r3, [pc, #204]	@ (8004f08 <main+0x14c>)
 8004e3c:	831a      	strh	r2, [r3, #24]



	Display.SPI_Port = &Global_SPI;
 8004e3e:	4b34      	ldr	r3, [pc, #208]	@ (8004f10 <main+0x154>)
 8004e40:	4a31      	ldr	r2, [pc, #196]	@ (8004f08 <main+0x14c>)
 8004e42:	601a      	str	r2, [r3, #0]
	Display.dc_pin = 2;
 8004e44:	4b32      	ldr	r3, [pc, #200]	@ (8004f10 <main+0x154>)
 8004e46:	2202      	movs	r2, #2
 8004e48:	821a      	strh	r2, [r3, #16]
	Display.dc_port = GPIOA;
 8004e4a:	4b31      	ldr	r3, [pc, #196]	@ (8004f10 <main+0x154>)
 8004e4c:	4a31      	ldr	r2, [pc, #196]	@ (8004f14 <main+0x158>)
 8004e4e:	60da      	str	r2, [r3, #12]
	Display.rst_pin = 0;
 8004e50:	4b2f      	ldr	r3, [pc, #188]	@ (8004f10 <main+0x154>)
 8004e52:	2200      	movs	r2, #0
 8004e54:	831a      	strh	r2, [r3, #24]
	Display.rst_port = GPIOA;
 8004e56:	4b2e      	ldr	r3, [pc, #184]	@ (8004f10 <main+0x154>)
 8004e58:	4a2e      	ldr	r2, [pc, #184]	@ (8004f14 <main+0x158>)
 8004e5a:	615a      	str	r2, [r3, #20]
	Display.cs_pin = 1;
 8004e5c:	4b2c      	ldr	r3, [pc, #176]	@ (8004f10 <main+0x154>)
 8004e5e:	2201      	movs	r2, #1
 8004e60:	811a      	strh	r2, [r3, #8]
	Display.cs_port = GPIOA;
 8004e62:	4b2b      	ldr	r3, [pc, #172]	@ (8004f10 <main+0x154>)
 8004e64:	4a2b      	ldr	r2, [pc, #172]	@ (8004f14 <main+0x158>)
 8004e66:	605a      	str	r2, [r3, #4]


	GC9A01_Init(&Display);
 8004e68:	4829      	ldr	r0, [pc, #164]	@ (8004f10 <main+0x154>)
 8004e6a:	f7fb fb47 	bl	80004fc <GC9A01_Init>

	GC9A01_Fill(&Display, 0x0000);
 8004e6e:	2100      	movs	r1, #0
 8004e70:	4827      	ldr	r0, [pc, #156]	@ (8004f10 <main+0x154>)
 8004e72:	f7fb ff19 	bl	8000ca8 <GC9A01_Fill>

	GC9A01_DrawCircleStroke(&Display, 120, 120, 120, 5, 0xf382);
 8004e76:	f24f 3382 	movw	r3, #62338	@ 0xf382
 8004e7a:	9301      	str	r3, [sp, #4]
 8004e7c:	2305      	movs	r3, #5
 8004e7e:	9300      	str	r3, [sp, #0]
 8004e80:	2378      	movs	r3, #120	@ 0x78
 8004e82:	2278      	movs	r2, #120	@ 0x78
 8004e84:	2178      	movs	r1, #120	@ 0x78
 8004e86:	4822      	ldr	r0, [pc, #136]	@ (8004f10 <main+0x154>)
 8004e88:	f7fb ffdc 	bl	8000e44 <GC9A01_DrawCircleStroke>

	GC9A01_DrawArcStroke(&Display, 120, 120, 110,
 8004e8c:	f24f 6320 	movw	r3, #63008	@ 0xf620
 8004e90:	9303      	str	r3, [sp, #12]
 8004e92:	230a      	movs	r3, #10
 8004e94:	9302      	str	r3, [sp, #8]
 8004e96:	2350      	movs	r3, #80	@ 0x50
 8004e98:	9301      	str	r3, [sp, #4]
 8004e9a:	236e      	movs	r3, #110	@ 0x6e
 8004e9c:	9300      	str	r3, [sp, #0]
 8004e9e:	236e      	movs	r3, #110	@ 0x6e
 8004ea0:	2278      	movs	r2, #120	@ 0x78
 8004ea2:	2178      	movs	r1, #120	@ 0x78
 8004ea4:	481a      	ldr	r0, [pc, #104]	@ (8004f10 <main+0x154>)
 8004ea6:	f7fc f80b 	bl	8000ec0 <GC9A01_DrawArcStroke>
	                     110, 80, 10, 0xf620);

	GC9A01_DrawArcStroke(&Display, 80, 80, 30,
 8004eaa:	f44f 637e 	mov.w	r3, #4064	@ 0xfe0
 8004eae:	9303      	str	r3, [sp, #12]
 8004eb0:	230a      	movs	r3, #10
 8004eb2:	9302      	str	r3, [sp, #8]
 8004eb4:	2350      	movs	r3, #80	@ 0x50
 8004eb6:	9301      	str	r3, [sp, #4]
 8004eb8:	236e      	movs	r3, #110	@ 0x6e
 8004eba:	9300      	str	r3, [sp, #0]
 8004ebc:	231e      	movs	r3, #30
 8004ebe:	2250      	movs	r2, #80	@ 0x50
 8004ec0:	2150      	movs	r1, #80	@ 0x50
 8004ec2:	4813      	ldr	r0, [pc, #76]	@ (8004f10 <main+0x154>)
 8004ec4:	f7fb fffc 	bl	8000ec0 <GC9A01_DrawArcStroke>
	                     110, 80, 10, 0x0fe0);

	GC9A01_DrawArcStroke(&Display, 160, 80, 30,
 8004ec8:	f44f 637e 	mov.w	r3, #4064	@ 0xfe0
 8004ecc:	9303      	str	r3, [sp, #12]
 8004ece:	230a      	movs	r3, #10
 8004ed0:	9302      	str	r3, [sp, #8]
 8004ed2:	23f0      	movs	r3, #240	@ 0xf0
 8004ed4:	9301      	str	r3, [sp, #4]
 8004ed6:	2300      	movs	r3, #0
 8004ed8:	9300      	str	r3, [sp, #0]
 8004eda:	231e      	movs	r3, #30
 8004edc:	2250      	movs	r2, #80	@ 0x50
 8004ede:	21a0      	movs	r1, #160	@ 0xa0
 8004ee0:	480b      	ldr	r0, [pc, #44]	@ (8004f10 <main+0x154>)
 8004ee2:	f7fb ffed 	bl	8000ec0 <GC9A01_DrawArcStroke>
	                     0, 240, 10, 0x0fe0);

	GC9A01_DrawArcStroke(&Display, 120, 150, 30,
 8004ee6:	f44f 637e 	mov.w	r3, #4064	@ 0xfe0
 8004eea:	9303      	str	r3, [sp, #12]
 8004eec:	230a      	movs	r3, #10
 8004eee:	9302      	str	r3, [sp, #8]
 8004ef0:	23f0      	movs	r3, #240	@ 0xf0
 8004ef2:	9301      	str	r3, [sp, #4]
 8004ef4:	2300      	movs	r3, #0
 8004ef6:	9300      	str	r3, [sp, #0]
 8004ef8:	231e      	movs	r3, #30
 8004efa:	2296      	movs	r2, #150	@ 0x96
 8004efc:	2178      	movs	r1, #120	@ 0x78
 8004efe:	4804      	ldr	r0, [pc, #16]	@ (8004f10 <main+0x154>)
 8004f00:	f7fb ffde 	bl	8000ec0 <GC9A01_DrawArcStroke>
	                     0, 240, 10, 0x0fe0);

	for(;;)
 8004f04:	bf00      	nop
 8004f06:	e7fd      	b.n	8004f04 <main+0x148>
 8004f08:	20000300 	.word	0x20000300
 8004f0c:	40013000 	.word	0x40013000
 8004f10:	2000031c 	.word	0x2000031c
 8004f14:	40020000 	.word	0x40020000

08004f18 <SystemInit>:
  *         configuration.
  * @param  None
  * @retval None
  */
void SystemInit(void)
{
 8004f18:	b480      	push	{r7}
 8004f1a:	af00      	add	r7, sp, #0
  /* FPU settings ------------------------------------------------------------*/
  #if (__FPU_PRESENT == 1) && (__FPU_USED == 1)
    SCB->CPACR |= ((3UL << 10*2)|(3UL << 11*2));  /* set CP10 and CP11 Full Access */
 8004f1c:	4b06      	ldr	r3, [pc, #24]	@ (8004f38 <SystemInit+0x20>)
 8004f1e:	f8d3 3088 	ldr.w	r3, [r3, #136]	@ 0x88
 8004f22:	4a05      	ldr	r2, [pc, #20]	@ (8004f38 <SystemInit+0x20>)
 8004f24:	f443 0370 	orr.w	r3, r3, #15728640	@ 0xf00000
 8004f28:	f8c2 3088 	str.w	r3, [r2, #136]	@ 0x88

  /* Configure the Vector Table location -------------------------------------*/
#if defined(USER_VECT_TAB_ADDRESS)
  SCB->VTOR = VECT_TAB_BASE_ADDRESS | VECT_TAB_OFFSET; /* Vector Table Relocation in Internal SRAM */
#endif /* USER_VECT_TAB_ADDRESS */
}
 8004f2c:	bf00      	nop
 8004f2e:	46bd      	mov	sp, r7
 8004f30:	f85d 7b04 	ldr.w	r7, [sp], #4
 8004f34:	4770      	bx	lr
 8004f36:	bf00      	nop
 8004f38:	e000ed00 	.word	0xe000ed00

08004f3c <SystemCoreClockUpdate>:
  *     
  * @param  None
  * @retval None
  */
void SystemCoreClockUpdate(void)
{
 8004f3c:	b480      	push	{r7}
 8004f3e:	b087      	sub	sp, #28
 8004f40:	af00      	add	r7, sp, #0
  uint32_t tmp = 0, pllvco = 0, pllp = 2, pllsource = 0, pllm = 2;
 8004f42:	2300      	movs	r3, #0
 8004f44:	613b      	str	r3, [r7, #16]
 8004f46:	2300      	movs	r3, #0
 8004f48:	617b      	str	r3, [r7, #20]
 8004f4a:	2302      	movs	r3, #2
 8004f4c:	60fb      	str	r3, [r7, #12]
 8004f4e:	2300      	movs	r3, #0
 8004f50:	60bb      	str	r3, [r7, #8]
 8004f52:	2302      	movs	r3, #2
 8004f54:	607b      	str	r3, [r7, #4]
  
  /* Get SYSCLK source -------------------------------------------------------*/
  tmp = RCC->CFGR & RCC_CFGR_SWS;
 8004f56:	4b34      	ldr	r3, [pc, #208]	@ (8005028 <SystemCoreClockUpdate+0xec>)
 8004f58:	689b      	ldr	r3, [r3, #8]
 8004f5a:	f003 030c 	and.w	r3, r3, #12
 8004f5e:	613b      	str	r3, [r7, #16]

  switch (tmp)
 8004f60:	693b      	ldr	r3, [r7, #16]
 8004f62:	2b08      	cmp	r3, #8
 8004f64:	d011      	beq.n	8004f8a <SystemCoreClockUpdate+0x4e>
 8004f66:	693b      	ldr	r3, [r7, #16]
 8004f68:	2b08      	cmp	r3, #8
 8004f6a:	d844      	bhi.n	8004ff6 <SystemCoreClockUpdate+0xba>
 8004f6c:	693b      	ldr	r3, [r7, #16]
 8004f6e:	2b00      	cmp	r3, #0
 8004f70:	d003      	beq.n	8004f7a <SystemCoreClockUpdate+0x3e>
 8004f72:	693b      	ldr	r3, [r7, #16]
 8004f74:	2b04      	cmp	r3, #4
 8004f76:	d004      	beq.n	8004f82 <SystemCoreClockUpdate+0x46>
 8004f78:	e03d      	b.n	8004ff6 <SystemCoreClockUpdate+0xba>
  {
    case 0x00:  /* HSI used as system clock source */
      SystemCoreClock = HSI_VALUE;
 8004f7a:	4b2c      	ldr	r3, [pc, #176]	@ (800502c <SystemCoreClockUpdate+0xf0>)
 8004f7c:	4a2c      	ldr	r2, [pc, #176]	@ (8005030 <SystemCoreClockUpdate+0xf4>)
 8004f7e:	601a      	str	r2, [r3, #0]
      break;
 8004f80:	e03d      	b.n	8004ffe <SystemCoreClockUpdate+0xc2>
    case 0x04:  /* HSE used as system clock source */
      SystemCoreClock = HSE_VALUE;
 8004f82:	4b2a      	ldr	r3, [pc, #168]	@ (800502c <SystemCoreClockUpdate+0xf0>)
 8004f84:	4a2b      	ldr	r2, [pc, #172]	@ (8005034 <SystemCoreClockUpdate+0xf8>)
 8004f86:	601a      	str	r2, [r3, #0]
      break;
 8004f88:	e039      	b.n	8004ffe <SystemCoreClockUpdate+0xc2>
    case 0x08:  /* PLL used as system clock source */

      /* PLL_VCO = (HSE_VALUE or HSI_VALUE / PLL_M) * PLL_N
         SYSCLK = PLL_VCO / PLL_P
         */    
      pllsource = (RCC->PLLCFGR & RCC_PLLCFGR_PLLSRC) >> 22;
 8004f8a:	4b27      	ldr	r3, [pc, #156]	@ (8005028 <SystemCoreClockUpdate+0xec>)
 8004f8c:	685b      	ldr	r3, [r3, #4]
 8004f8e:	0d9b      	lsrs	r3, r3, #22
 8004f90:	f003 0301 	and.w	r3, r3, #1
 8004f94:	60bb      	str	r3, [r7, #8]
      pllm = RCC->PLLCFGR & RCC_PLLCFGR_PLLM;
 8004f96:	4b24      	ldr	r3, [pc, #144]	@ (8005028 <SystemCoreClockUpdate+0xec>)
 8004f98:	685b      	ldr	r3, [r3, #4]
 8004f9a:	f003 033f 	and.w	r3, r3, #63	@ 0x3f
 8004f9e:	607b      	str	r3, [r7, #4]
      
      if (pllsource != 0)
 8004fa0:	68bb      	ldr	r3, [r7, #8]
 8004fa2:	2b00      	cmp	r3, #0
 8004fa4:	d00c      	beq.n	8004fc0 <SystemCoreClockUpdate+0x84>
      {
        /* HSE used as PLL clock source */
        pllvco = (HSE_VALUE / pllm) * ((RCC->PLLCFGR & RCC_PLLCFGR_PLLN) >> 6);
 8004fa6:	4a23      	ldr	r2, [pc, #140]	@ (8005034 <SystemCoreClockUpdate+0xf8>)
 8004fa8:	687b      	ldr	r3, [r7, #4]
 8004faa:	fbb2 f3f3 	udiv	r3, r2, r3
 8004fae:	4a1e      	ldr	r2, [pc, #120]	@ (8005028 <SystemCoreClockUpdate+0xec>)
 8004fb0:	6852      	ldr	r2, [r2, #4]
 8004fb2:	0992      	lsrs	r2, r2, #6
 8004fb4:	f3c2 0208 	ubfx	r2, r2, #0, #9
 8004fb8:	fb02 f303 	mul.w	r3, r2, r3
 8004fbc:	617b      	str	r3, [r7, #20]
 8004fbe:	e00b      	b.n	8004fd8 <SystemCoreClockUpdate+0x9c>
      }
      else
      {
        /* HSI used as PLL clock source */
        pllvco = (HSI_VALUE / pllm) * ((RCC->PLLCFGR & RCC_PLLCFGR_PLLN) >> 6);
 8004fc0:	4a1b      	ldr	r2, [pc, #108]	@ (8005030 <SystemCoreClockUpdate+0xf4>)
 8004fc2:	687b      	ldr	r3, [r7, #4]
 8004fc4:	fbb2 f3f3 	udiv	r3, r2, r3
 8004fc8:	4a17      	ldr	r2, [pc, #92]	@ (8005028 <SystemCoreClockUpdate+0xec>)
 8004fca:	6852      	ldr	r2, [r2, #4]
 8004fcc:	0992      	lsrs	r2, r2, #6
 8004fce:	f3c2 0208 	ubfx	r2, r2, #0, #9
 8004fd2:	fb02 f303 	mul.w	r3, r2, r3
 8004fd6:	617b      	str	r3, [r7, #20]
      }

      pllp = (((RCC->PLLCFGR & RCC_PLLCFGR_PLLP) >>16) + 1 ) *2;
 8004fd8:	4b13      	ldr	r3, [pc, #76]	@ (8005028 <SystemCoreClockUpdate+0xec>)
 8004fda:	685b      	ldr	r3, [r3, #4]
 8004fdc:	0c1b      	lsrs	r3, r3, #16
 8004fde:	f003 0303 	and.w	r3, r3, #3
 8004fe2:	3301      	adds	r3, #1
 8004fe4:	005b      	lsls	r3, r3, #1
 8004fe6:	60fb      	str	r3, [r7, #12]
      SystemCoreClock = pllvco/pllp;
 8004fe8:	697a      	ldr	r2, [r7, #20]
 8004fea:	68fb      	ldr	r3, [r7, #12]
 8004fec:	fbb2 f3f3 	udiv	r3, r2, r3
 8004ff0:	4a0e      	ldr	r2, [pc, #56]	@ (800502c <SystemCoreClockUpdate+0xf0>)
 8004ff2:	6013      	str	r3, [r2, #0]
      break;
 8004ff4:	e003      	b.n	8004ffe <SystemCoreClockUpdate+0xc2>
    default:
      SystemCoreClock = HSI_VALUE;
 8004ff6:	4b0d      	ldr	r3, [pc, #52]	@ (800502c <SystemCoreClockUpdate+0xf0>)
 8004ff8:	4a0d      	ldr	r2, [pc, #52]	@ (8005030 <SystemCoreClockUpdate+0xf4>)
 8004ffa:	601a      	str	r2, [r3, #0]
      break;
 8004ffc:	bf00      	nop
  }
  /* Compute HCLK frequency --------------------------------------------------*/
  /* Get HCLK prescaler */
  tmp = AHBPrescTable[((RCC->CFGR & RCC_CFGR_HPRE) >> 4)];
 8004ffe:	4b0a      	ldr	r3, [pc, #40]	@ (8005028 <SystemCoreClockUpdate+0xec>)
 8005000:	689b      	ldr	r3, [r3, #8]
 8005002:	091b      	lsrs	r3, r3, #4
 8005004:	f003 030f 	and.w	r3, r3, #15
 8005008:	4a0b      	ldr	r2, [pc, #44]	@ (8005038 <SystemCoreClockUpdate+0xfc>)
 800500a:	5cd3      	ldrb	r3, [r2, r3]
 800500c:	613b      	str	r3, [r7, #16]
  /* HCLK frequency */
  SystemCoreClock >>= tmp;
 800500e:	4b07      	ldr	r3, [pc, #28]	@ (800502c <SystemCoreClockUpdate+0xf0>)
 8005010:	681a      	ldr	r2, [r3, #0]
 8005012:	693b      	ldr	r3, [r7, #16]
 8005014:	fa22 f303 	lsr.w	r3, r2, r3
 8005018:	4a04      	ldr	r2, [pc, #16]	@ (800502c <SystemCoreClockUpdate+0xf0>)
 800501a:	6013      	str	r3, [r2, #0]
}
 800501c:	bf00      	nop
 800501e:	371c      	adds	r7, #28
 8005020:	46bd      	mov	sp, r7
 8005022:	f85d 7b04 	ldr.w	r7, [sp], #4
 8005026:	4770      	bx	lr
 8005028:	40023800 	.word	0x40023800
 800502c:	20000000 	.word	0x20000000
 8005030:	00f42400 	.word	0x00f42400
 8005034:	017d7840 	.word	0x017d7840
 8005038:	08005ff0 	.word	0x08005ff0

0800503c <Reset_Handler>:

  .section .text.Reset_Handler
  .weak Reset_Handler
  .type Reset_Handler, %function
Reset_Handler:
  ldr   r0, =_estack
 800503c:	480d      	ldr	r0, [pc, #52]	@ (8005074 <LoopForever+0x2>)
  mov   sp, r0          /* set stack pointer */
 800503e:	4685      	mov	sp, r0
/* Call the clock system initialization function.*/
  bl  SystemInit
 8005040:	f7ff ff6a 	bl	8004f18 <SystemInit>

/* Copy the data segment initializers from flash to SRAM */
  ldr r0, =_sdata
 8005044:	480c      	ldr	r0, [pc, #48]	@ (8005078 <LoopForever+0x6>)
  ldr r1, =_edata
 8005046:	490d      	ldr	r1, [pc, #52]	@ (800507c <LoopForever+0xa>)
  ldr r2, =_sidata
 8005048:	4a0d      	ldr	r2, [pc, #52]	@ (8005080 <LoopForever+0xe>)
  movs r3, #0
 800504a:	2300      	movs	r3, #0
  b LoopCopyDataInit
 800504c:	e002      	b.n	8005054 <LoopCopyDataInit>

0800504e <CopyDataInit>:

CopyDataInit:
  ldr r4, [r2, r3]
 800504e:	58d4      	ldr	r4, [r2, r3]
  str r4, [r0, r3]
 8005050:	50c4      	str	r4, [r0, r3]
  adds r3, r3, #4
 8005052:	3304      	adds	r3, #4

08005054 <LoopCopyDataInit>:

LoopCopyDataInit:
  adds r4, r0, r3
 8005054:	18c4      	adds	r4, r0, r3
  cmp r4, r1
 8005056:	428c      	cmp	r4, r1
  bcc CopyDataInit
 8005058:	d3f9      	bcc.n	800504e <CopyDataInit>

/* Zero fill the bss segment. */
  ldr r2, =_sbss
 800505a:	4a0a      	ldr	r2, [pc, #40]	@ (8005084 <LoopForever+0x12>)
  ldr r4, =_ebss
 800505c:	4c0a      	ldr	r4, [pc, #40]	@ (8005088 <LoopForever+0x16>)
  movs r3, #0
 800505e:	2300      	movs	r3, #0
  b LoopFillZerobss
 8005060:	e001      	b.n	8005066 <LoopFillZerobss>

08005062 <FillZerobss>:

FillZerobss:
  str  r3, [r2]
 8005062:	6013      	str	r3, [r2, #0]
  adds r2, r2, #4
 8005064:	3204      	adds	r2, #4

08005066 <LoopFillZerobss>:

LoopFillZerobss:
  cmp r2, r4
 8005066:	42a2      	cmp	r2, r4
  bcc FillZerobss
 8005068:	d3fb      	bcc.n	8005062 <FillZerobss>

/* Call static constructors */
  bl __libc_init_array
 800506a:	f000 f811 	bl	8005090 <__libc_init_array>
/* Call the application's entry point.*/
  bl main
 800506e:	f7ff fea5 	bl	8004dbc <main>

08005072 <LoopForever>:

LoopForever:
  b LoopForever
 8005072:	e7fe      	b.n	8005072 <LoopForever>
  ldr   r0, =_estack
 8005074:	20020000 	.word	0x20020000
  ldr r0, =_sdata
 8005078:	20000000 	.word	0x20000000
  ldr r1, =_edata
 800507c:	20000004 	.word	0x20000004
  ldr r2, =_sidata
 8005080:	080063d8 	.word	0x080063d8
  ldr r2, =_sbss
 8005084:	20000004 	.word	0x20000004
  ldr r4, =_ebss
 8005088:	2000033c 	.word	0x2000033c

0800508c <ADC_IRQHandler>:
 * @retval : None
*/
  .section .text.Default_Handler,"ax",%progbits
Default_Handler:
Infinite_Loop:
  b Infinite_Loop
 800508c:	e7fe      	b.n	800508c <ADC_IRQHandler>
	...

08005090 <__libc_init_array>:
 8005090:	b570      	push	{r4, r5, r6, lr}
 8005092:	4d0d      	ldr	r5, [pc, #52]	@ (80050c8 <__libc_init_array+0x38>)
 8005094:	4c0d      	ldr	r4, [pc, #52]	@ (80050cc <__libc_init_array+0x3c>)
 8005096:	1b64      	subs	r4, r4, r5
 8005098:	10a4      	asrs	r4, r4, #2
 800509a:	2600      	movs	r6, #0
 800509c:	42a6      	cmp	r6, r4
 800509e:	d109      	bne.n	80050b4 <__libc_init_array+0x24>
 80050a0:	4d0b      	ldr	r5, [pc, #44]	@ (80050d0 <__libc_init_array+0x40>)
 80050a2:	4c0c      	ldr	r4, [pc, #48]	@ (80050d4 <__libc_init_array+0x44>)
 80050a4:	f000 fd96 	bl	8005bd4 <_init>
 80050a8:	1b64      	subs	r4, r4, r5
 80050aa:	10a4      	asrs	r4, r4, #2
 80050ac:	2600      	movs	r6, #0
 80050ae:	42a6      	cmp	r6, r4
 80050b0:	d105      	bne.n	80050be <__libc_init_array+0x2e>
 80050b2:	bd70      	pop	{r4, r5, r6, pc}
 80050b4:	f855 3b04 	ldr.w	r3, [r5], #4
 80050b8:	4798      	blx	r3
 80050ba:	3601      	adds	r6, #1
 80050bc:	e7ee      	b.n	800509c <__libc_init_array+0xc>
 80050be:	f855 3b04 	ldr.w	r3, [r5], #4
 80050c2:	4798      	blx	r3
 80050c4:	3601      	adds	r6, #1
 80050c6:	e7f2      	b.n	80050ae <__libc_init_array+0x1e>
 80050c8:	080063d0 	.word	0x080063d0
 80050cc:	080063d0 	.word	0x080063d0
 80050d0:	080063d0 	.word	0x080063d0
 80050d4:	080063d4 	.word	0x080063d4

080050d8 <cosf>:
 80050d8:	ee10 3a10 	vmov	r3, s0
 80050dc:	b507      	push	{r0, r1, r2, lr}
 80050de:	4a1e      	ldr	r2, [pc, #120]	@ (8005158 <cosf+0x80>)
 80050e0:	f023 4300 	bic.w	r3, r3, #2147483648	@ 0x80000000
 80050e4:	4293      	cmp	r3, r2
 80050e6:	d806      	bhi.n	80050f6 <cosf+0x1e>
 80050e8:	eddf 0a1c 	vldr	s1, [pc, #112]	@ 800515c <cosf+0x84>
 80050ec:	b003      	add	sp, #12
 80050ee:	f85d eb04 	ldr.w	lr, [sp], #4
 80050f2:	f000 b883 	b.w	80051fc <__kernel_cosf>
 80050f6:	f1b3 4fff 	cmp.w	r3, #2139095040	@ 0x7f800000
 80050fa:	d304      	bcc.n	8005106 <cosf+0x2e>
 80050fc:	ee30 0a40 	vsub.f32	s0, s0, s0
 8005100:	b003      	add	sp, #12
 8005102:	f85d fb04 	ldr.w	pc, [sp], #4
 8005106:	4668      	mov	r0, sp
 8005108:	f000 f918 	bl	800533c <__ieee754_rem_pio2f>
 800510c:	f000 0003 	and.w	r0, r0, #3
 8005110:	2801      	cmp	r0, #1
 8005112:	d009      	beq.n	8005128 <cosf+0x50>
 8005114:	2802      	cmp	r0, #2
 8005116:	d010      	beq.n	800513a <cosf+0x62>
 8005118:	b9b0      	cbnz	r0, 8005148 <cosf+0x70>
 800511a:	eddd 0a01 	vldr	s1, [sp, #4]
 800511e:	ed9d 0a00 	vldr	s0, [sp]
 8005122:	f000 f86b 	bl	80051fc <__kernel_cosf>
 8005126:	e7eb      	b.n	8005100 <cosf+0x28>
 8005128:	eddd 0a01 	vldr	s1, [sp, #4]
 800512c:	ed9d 0a00 	vldr	s0, [sp]
 8005130:	f000 f8bc 	bl	80052ac <__kernel_sinf>
 8005134:	eeb1 0a40 	vneg.f32	s0, s0
 8005138:	e7e2      	b.n	8005100 <cosf+0x28>
 800513a:	eddd 0a01 	vldr	s1, [sp, #4]
 800513e:	ed9d 0a00 	vldr	s0, [sp]
 8005142:	f000 f85b 	bl	80051fc <__kernel_cosf>
 8005146:	e7f5      	b.n	8005134 <cosf+0x5c>
 8005148:	eddd 0a01 	vldr	s1, [sp, #4]
 800514c:	ed9d 0a00 	vldr	s0, [sp]
 8005150:	2001      	movs	r0, #1
 8005152:	f000 f8ab 	bl	80052ac <__kernel_sinf>
 8005156:	e7d3      	b.n	8005100 <cosf+0x28>
 8005158:	3f490fd8 	.word	0x3f490fd8
 800515c:	00000000 	.word	0x00000000

08005160 <fabsf>:
 8005160:	ee10 3a10 	vmov	r3, s0
 8005164:	f023 4300 	bic.w	r3, r3, #2147483648	@ 0x80000000
 8005168:	ee00 3a10 	vmov	s0, r3
 800516c:	4770      	bx	lr
	...

08005170 <sinf>:
 8005170:	ee10 3a10 	vmov	r3, s0
 8005174:	b507      	push	{r0, r1, r2, lr}
 8005176:	4a1f      	ldr	r2, [pc, #124]	@ (80051f4 <sinf+0x84>)
 8005178:	f023 4300 	bic.w	r3, r3, #2147483648	@ 0x80000000
 800517c:	4293      	cmp	r3, r2
 800517e:	d807      	bhi.n	8005190 <sinf+0x20>
 8005180:	eddf 0a1d 	vldr	s1, [pc, #116]	@ 80051f8 <sinf+0x88>
 8005184:	2000      	movs	r0, #0
 8005186:	b003      	add	sp, #12
 8005188:	f85d eb04 	ldr.w	lr, [sp], #4
 800518c:	f000 b88e 	b.w	80052ac <__kernel_sinf>
 8005190:	f1b3 4fff 	cmp.w	r3, #2139095040	@ 0x7f800000
 8005194:	d304      	bcc.n	80051a0 <sinf+0x30>
 8005196:	ee30 0a40 	vsub.f32	s0, s0, s0
 800519a:	b003      	add	sp, #12
 800519c:	f85d fb04 	ldr.w	pc, [sp], #4
 80051a0:	4668      	mov	r0, sp
 80051a2:	f000 f8cb 	bl	800533c <__ieee754_rem_pio2f>
 80051a6:	f000 0003 	and.w	r0, r0, #3
 80051aa:	2801      	cmp	r0, #1
 80051ac:	d00a      	beq.n	80051c4 <sinf+0x54>
 80051ae:	2802      	cmp	r0, #2
 80051b0:	d00f      	beq.n	80051d2 <sinf+0x62>
 80051b2:	b9c0      	cbnz	r0, 80051e6 <sinf+0x76>
 80051b4:	eddd 0a01 	vldr	s1, [sp, #4]
 80051b8:	ed9d 0a00 	vldr	s0, [sp]
 80051bc:	2001      	movs	r0, #1
 80051be:	f000 f875 	bl	80052ac <__kernel_sinf>
 80051c2:	e7ea      	b.n	800519a <sinf+0x2a>
 80051c4:	eddd 0a01 	vldr	s1, [sp, #4]
 80051c8:	ed9d 0a00 	vldr	s0, [sp]
 80051cc:	f000 f816 	bl	80051fc <__kernel_cosf>
 80051d0:	e7e3      	b.n	800519a <sinf+0x2a>
 80051d2:	eddd 0a01 	vldr	s1, [sp, #4]
 80051d6:	ed9d 0a00 	vldr	s0, [sp]
 80051da:	2001      	movs	r0, #1
 80051dc:	f000 f866 	bl	80052ac <__kernel_sinf>
 80051e0:	eeb1 0a40 	vneg.f32	s0, s0
 80051e4:	e7d9      	b.n	800519a <sinf+0x2a>
 80051e6:	eddd 0a01 	vldr	s1, [sp, #4]
 80051ea:	ed9d 0a00 	vldr	s0, [sp]
 80051ee:	f000 f805 	bl	80051fc <__kernel_cosf>
 80051f2:	e7f5      	b.n	80051e0 <sinf+0x70>
 80051f4:	3f490fd8 	.word	0x3f490fd8
 80051f8:	00000000 	.word	0x00000000

080051fc <__kernel_cosf>:
 80051fc:	ee10 3a10 	vmov	r3, s0
 8005200:	f023 4300 	bic.w	r3, r3, #2147483648	@ 0x80000000
 8005204:	f1b3 5f48 	cmp.w	r3, #838860800	@ 0x32000000
 8005208:	eef0 6a40 	vmov.f32	s13, s0
 800520c:	eeb7 0a00 	vmov.f32	s0, #112	@ 0x3f800000  1.0
 8005210:	d204      	bcs.n	800521c <__kernel_cosf+0x20>
 8005212:	eefd 7ae6 	vcvt.s32.f32	s15, s13
 8005216:	ee17 2a90 	vmov	r2, s15
 800521a:	b342      	cbz	r2, 800526e <__kernel_cosf+0x72>
 800521c:	ee26 7aa6 	vmul.f32	s14, s13, s13
 8005220:	eddf 7a1a 	vldr	s15, [pc, #104]	@ 800528c <__kernel_cosf+0x90>
 8005224:	ed9f 6a1a 	vldr	s12, [pc, #104]	@ 8005290 <__kernel_cosf+0x94>
 8005228:	4a1a      	ldr	r2, [pc, #104]	@ (8005294 <__kernel_cosf+0x98>)
 800522a:	eea7 6a27 	vfma.f32	s12, s14, s15
 800522e:	4293      	cmp	r3, r2
 8005230:	eddf 7a19 	vldr	s15, [pc, #100]	@ 8005298 <__kernel_cosf+0x9c>
 8005234:	eee6 7a07 	vfma.f32	s15, s12, s14
 8005238:	ed9f 6a18 	vldr	s12, [pc, #96]	@ 800529c <__kernel_cosf+0xa0>
 800523c:	eea7 6a87 	vfma.f32	s12, s15, s14
 8005240:	eddf 7a17 	vldr	s15, [pc, #92]	@ 80052a0 <__kernel_cosf+0xa4>
 8005244:	eee6 7a07 	vfma.f32	s15, s12, s14
 8005248:	ed9f 6a16 	vldr	s12, [pc, #88]	@ 80052a4 <__kernel_cosf+0xa8>
 800524c:	eea7 6a87 	vfma.f32	s12, s15, s14
 8005250:	ee60 0ae6 	vnmul.f32	s1, s1, s13
 8005254:	ee26 6a07 	vmul.f32	s12, s12, s14
 8005258:	eef6 7a00 	vmov.f32	s15, #96	@ 0x3f000000  0.5
 800525c:	eee7 0a06 	vfma.f32	s1, s14, s12
 8005260:	ee67 7a27 	vmul.f32	s15, s14, s15
 8005264:	d804      	bhi.n	8005270 <__kernel_cosf+0x74>
 8005266:	ee77 7ae0 	vsub.f32	s15, s15, s1
 800526a:	ee30 0a67 	vsub.f32	s0, s0, s15
 800526e:	4770      	bx	lr
 8005270:	4a0d      	ldr	r2, [pc, #52]	@ (80052a8 <__kernel_cosf+0xac>)
 8005272:	4293      	cmp	r3, r2
 8005274:	bf9a      	itte	ls
 8005276:	f103 437f 	addls.w	r3, r3, #4278190080	@ 0xff000000
 800527a:	ee07 3a10 	vmovls	s14, r3
 800527e:	eeb5 7a02 	vmovhi.f32	s14, #82	@ 0x3e900000  0.2812500
 8005282:	ee30 0a47 	vsub.f32	s0, s0, s14
 8005286:	ee77 7ac7 	vsub.f32	s15, s15, s14
 800528a:	e7ec      	b.n	8005266 <__kernel_cosf+0x6a>
 800528c:	ad47d74e 	.word	0xad47d74e
 8005290:	310f74f6 	.word	0x310f74f6
 8005294:	3e999999 	.word	0x3e999999
 8005298:	b493f27c 	.word	0xb493f27c
 800529c:	37d00d01 	.word	0x37d00d01
 80052a0:	bab60b61 	.word	0xbab60b61
 80052a4:	3d2aaaab 	.word	0x3d2aaaab
 80052a8:	3f480000 	.word	0x3f480000

080052ac <__kernel_sinf>:
 80052ac:	ee10 3a10 	vmov	r3, s0
 80052b0:	f023 4300 	bic.w	r3, r3, #2147483648	@ 0x80000000
 80052b4:	f1b3 5f48 	cmp.w	r3, #838860800	@ 0x32000000
 80052b8:	d204      	bcs.n	80052c4 <__kernel_sinf+0x18>
 80052ba:	eefd 7ac0 	vcvt.s32.f32	s15, s0
 80052be:	ee17 3a90 	vmov	r3, s15
 80052c2:	b35b      	cbz	r3, 800531c <__kernel_sinf+0x70>
 80052c4:	ee20 7a00 	vmul.f32	s14, s0, s0
 80052c8:	eddf 7a15 	vldr	s15, [pc, #84]	@ 8005320 <__kernel_sinf+0x74>
 80052cc:	ed9f 6a15 	vldr	s12, [pc, #84]	@ 8005324 <__kernel_sinf+0x78>
 80052d0:	eea7 6a27 	vfma.f32	s12, s14, s15
 80052d4:	eddf 7a14 	vldr	s15, [pc, #80]	@ 8005328 <__kernel_sinf+0x7c>
 80052d8:	eee6 7a07 	vfma.f32	s15, s12, s14
 80052dc:	ed9f 6a13 	vldr	s12, [pc, #76]	@ 800532c <__kernel_sinf+0x80>
 80052e0:	eea7 6a87 	vfma.f32	s12, s15, s14
 80052e4:	eddf 7a12 	vldr	s15, [pc, #72]	@ 8005330 <__kernel_sinf+0x84>
 80052e8:	ee60 6a07 	vmul.f32	s13, s0, s14
 80052ec:	eee6 7a07 	vfma.f32	s15, s12, s14
 80052f0:	b930      	cbnz	r0, 8005300 <__kernel_sinf+0x54>
 80052f2:	ed9f 6a10 	vldr	s12, [pc, #64]	@ 8005334 <__kernel_sinf+0x88>
 80052f6:	eea7 6a27 	vfma.f32	s12, s14, s15
 80052fa:	eea6 0a26 	vfma.f32	s0, s12, s13
 80052fe:	4770      	bx	lr
 8005300:	ee67 7ae6 	vnmul.f32	s15, s15, s13
 8005304:	eeb6 6a00 	vmov.f32	s12, #96	@ 0x3f000000  0.5
 8005308:	eee0 7a86 	vfma.f32	s15, s1, s12
 800530c:	eed7 0a87 	vfnms.f32	s1, s15, s14
 8005310:	eddf 7a09 	vldr	s15, [pc, #36]	@ 8005338 <__kernel_sinf+0x8c>
 8005314:	eee6 0aa7 	vfma.f32	s1, s13, s15
 8005318:	ee30 0a60 	vsub.f32	s0, s0, s1
 800531c:	4770      	bx	lr
 800531e:	bf00      	nop
 8005320:	2f2ec9d3 	.word	0x2f2ec9d3
 8005324:	b2d72f34 	.word	0xb2d72f34
 8005328:	3638ef1b 	.word	0x3638ef1b
 800532c:	b9500d01 	.word	0xb9500d01
 8005330:	3c088889 	.word	0x3c088889
 8005334:	be2aaaab 	.word	0xbe2aaaab
 8005338:	3e2aaaab 	.word	0x3e2aaaab

0800533c <__ieee754_rem_pio2f>:
 800533c:	b5f0      	push	{r4, r5, r6, r7, lr}
 800533e:	ee10 6a10 	vmov	r6, s0
 8005342:	4b88      	ldr	r3, [pc, #544]	@ (8005564 <__ieee754_rem_pio2f+0x228>)
 8005344:	f026 4500 	bic.w	r5, r6, #2147483648	@ 0x80000000
 8005348:	429d      	cmp	r5, r3
 800534a:	b087      	sub	sp, #28
 800534c:	4604      	mov	r4, r0
 800534e:	d805      	bhi.n	800535c <__ieee754_rem_pio2f+0x20>
 8005350:	2300      	movs	r3, #0
 8005352:	ed80 0a00 	vstr	s0, [r0]
 8005356:	6043      	str	r3, [r0, #4]
 8005358:	2000      	movs	r0, #0
 800535a:	e022      	b.n	80053a2 <__ieee754_rem_pio2f+0x66>
 800535c:	4b82      	ldr	r3, [pc, #520]	@ (8005568 <__ieee754_rem_pio2f+0x22c>)
 800535e:	429d      	cmp	r5, r3
 8005360:	d83a      	bhi.n	80053d8 <__ieee754_rem_pio2f+0x9c>
 8005362:	f026 4300 	bic.w	r3, r6, #2147483648	@ 0x80000000
 8005366:	2e00      	cmp	r6, #0
 8005368:	ed9f 7a80 	vldr	s14, [pc, #512]	@ 800556c <__ieee754_rem_pio2f+0x230>
 800536c:	4a80      	ldr	r2, [pc, #512]	@ (8005570 <__ieee754_rem_pio2f+0x234>)
 800536e:	f023 030f 	bic.w	r3, r3, #15
 8005372:	dd18      	ble.n	80053a6 <__ieee754_rem_pio2f+0x6a>
 8005374:	4293      	cmp	r3, r2
 8005376:	ee70 7a47 	vsub.f32	s15, s0, s14
 800537a:	bf09      	itett	eq
 800537c:	ed9f 7a7d 	vldreq	s14, [pc, #500]	@ 8005574 <__ieee754_rem_pio2f+0x238>
 8005380:	eddf 6a7d 	vldrne	s13, [pc, #500]	@ 8005578 <__ieee754_rem_pio2f+0x23c>
 8005384:	eddf 6a7d 	vldreq	s13, [pc, #500]	@ 800557c <__ieee754_rem_pio2f+0x240>
 8005388:	ee77 7ac7 	vsubeq.f32	s15, s15, s14
 800538c:	ee37 7ae6 	vsub.f32	s14, s15, s13
 8005390:	ee77 7ac7 	vsub.f32	s15, s15, s14
 8005394:	ed80 7a00 	vstr	s14, [r0]
 8005398:	ee77 7ae6 	vsub.f32	s15, s15, s13
 800539c:	edc0 7a01 	vstr	s15, [r0, #4]
 80053a0:	2001      	movs	r0, #1
 80053a2:	b007      	add	sp, #28
 80053a4:	bdf0      	pop	{r4, r5, r6, r7, pc}
 80053a6:	4293      	cmp	r3, r2
 80053a8:	ee70 7a07 	vadd.f32	s15, s0, s14
 80053ac:	bf09      	itett	eq
 80053ae:	ed9f 7a71 	vldreq	s14, [pc, #452]	@ 8005574 <__ieee754_rem_pio2f+0x238>
 80053b2:	eddf 6a71 	vldrne	s13, [pc, #452]	@ 8005578 <__ieee754_rem_pio2f+0x23c>
 80053b6:	eddf 6a71 	vldreq	s13, [pc, #452]	@ 800557c <__ieee754_rem_pio2f+0x240>
 80053ba:	ee77 7a87 	vaddeq.f32	s15, s15, s14
 80053be:	ee37 7aa6 	vadd.f32	s14, s15, s13
 80053c2:	ee77 7ac7 	vsub.f32	s15, s15, s14
 80053c6:	ed80 7a00 	vstr	s14, [r0]
 80053ca:	ee77 7aa6 	vadd.f32	s15, s15, s13
 80053ce:	edc0 7a01 	vstr	s15, [r0, #4]
 80053d2:	f04f 30ff 	mov.w	r0, #4294967295
 80053d6:	e7e4      	b.n	80053a2 <__ieee754_rem_pio2f+0x66>
 80053d8:	4b69      	ldr	r3, [pc, #420]	@ (8005580 <__ieee754_rem_pio2f+0x244>)
 80053da:	429d      	cmp	r5, r3
 80053dc:	d873      	bhi.n	80054c6 <__ieee754_rem_pio2f+0x18a>
 80053de:	f7ff febf 	bl	8005160 <fabsf>
 80053e2:	ed9f 7a68 	vldr	s14, [pc, #416]	@ 8005584 <__ieee754_rem_pio2f+0x248>
 80053e6:	eef6 7a00 	vmov.f32	s15, #96	@ 0x3f000000  0.5
 80053ea:	eee0 7a07 	vfma.f32	s15, s0, s14
 80053ee:	eefd 7ae7 	vcvt.s32.f32	s15, s15
 80053f2:	eeb8 7ae7 	vcvt.f32.s32	s14, s15
 80053f6:	ee17 0a90 	vmov	r0, s15
 80053fa:	eddf 7a5c 	vldr	s15, [pc, #368]	@ 800556c <__ieee754_rem_pio2f+0x230>
 80053fe:	eea7 0a67 	vfms.f32	s0, s14, s15
 8005402:	281f      	cmp	r0, #31
 8005404:	eddf 7a5c 	vldr	s15, [pc, #368]	@ 8005578 <__ieee754_rem_pio2f+0x23c>
 8005408:	ee67 7a27 	vmul.f32	s15, s14, s15
 800540c:	eeb1 6a47 	vneg.f32	s12, s14
 8005410:	ee70 6a67 	vsub.f32	s13, s0, s15
 8005414:	ee16 1a90 	vmov	r1, s13
 8005418:	dc09      	bgt.n	800542e <__ieee754_rem_pio2f+0xf2>
 800541a:	4a5b      	ldr	r2, [pc, #364]	@ (8005588 <__ieee754_rem_pio2f+0x24c>)
 800541c:	1e47      	subs	r7, r0, #1
 800541e:	f026 4300 	bic.w	r3, r6, #2147483648	@ 0x80000000
 8005422:	f852 2027 	ldr.w	r2, [r2, r7, lsl #2]
 8005426:	f023 03ff 	bic.w	r3, r3, #255	@ 0xff
 800542a:	4293      	cmp	r3, r2
 800542c:	d107      	bne.n	800543e <__ieee754_rem_pio2f+0x102>
 800542e:	f3c1 52c7 	ubfx	r2, r1, #23, #8
 8005432:	ebc2 52d5 	rsb	r2, r2, r5, lsr #23
 8005436:	2a08      	cmp	r2, #8
 8005438:	ea4f 53e5 	mov.w	r3, r5, asr #23
 800543c:	dc14      	bgt.n	8005468 <__ieee754_rem_pio2f+0x12c>
 800543e:	6021      	str	r1, [r4, #0]
 8005440:	ed94 7a00 	vldr	s14, [r4]
 8005444:	ee30 0a47 	vsub.f32	s0, s0, s14
 8005448:	2e00      	cmp	r6, #0
 800544a:	ee30 0a67 	vsub.f32	s0, s0, s15
 800544e:	ed84 0a01 	vstr	s0, [r4, #4]
 8005452:	daa6      	bge.n	80053a2 <__ieee754_rem_pio2f+0x66>
 8005454:	eeb1 7a47 	vneg.f32	s14, s14
 8005458:	eeb1 0a40 	vneg.f32	s0, s0
 800545c:	ed84 7a00 	vstr	s14, [r4]
 8005460:	ed84 0a01 	vstr	s0, [r4, #4]
 8005464:	4240      	negs	r0, r0
 8005466:	e79c      	b.n	80053a2 <__ieee754_rem_pio2f+0x66>
 8005468:	eddf 5a42 	vldr	s11, [pc, #264]	@ 8005574 <__ieee754_rem_pio2f+0x238>
 800546c:	eef0 6a40 	vmov.f32	s13, s0
 8005470:	eee6 6a25 	vfma.f32	s13, s12, s11
 8005474:	ee70 7a66 	vsub.f32	s15, s0, s13
 8005478:	eee6 7a25 	vfma.f32	s15, s12, s11
 800547c:	eddf 5a3f 	vldr	s11, [pc, #252]	@ 800557c <__ieee754_rem_pio2f+0x240>
 8005480:	eed7 7a25 	vfnms.f32	s15, s14, s11
 8005484:	ee76 5ae7 	vsub.f32	s11, s13, s15
 8005488:	ee15 2a90 	vmov	r2, s11
 800548c:	f3c2 51c7 	ubfx	r1, r2, #23, #8
 8005490:	1a5b      	subs	r3, r3, r1
 8005492:	2b19      	cmp	r3, #25
 8005494:	dc04      	bgt.n	80054a0 <__ieee754_rem_pio2f+0x164>
 8005496:	edc4 5a00 	vstr	s11, [r4]
 800549a:	eeb0 0a66 	vmov.f32	s0, s13
 800549e:	e7cf      	b.n	8005440 <__ieee754_rem_pio2f+0x104>
 80054a0:	eddf 5a3a 	vldr	s11, [pc, #232]	@ 800558c <__ieee754_rem_pio2f+0x250>
 80054a4:	eeb0 0a66 	vmov.f32	s0, s13
 80054a8:	eea6 0a25 	vfma.f32	s0, s12, s11
 80054ac:	ee76 7ac0 	vsub.f32	s15, s13, s0
 80054b0:	eddf 6a37 	vldr	s13, [pc, #220]	@ 8005590 <__ieee754_rem_pio2f+0x254>
 80054b4:	eee6 7a25 	vfma.f32	s15, s12, s11
 80054b8:	eed7 7a26 	vfnms.f32	s15, s14, s13
 80054bc:	ee30 7a67 	vsub.f32	s14, s0, s15
 80054c0:	ed84 7a00 	vstr	s14, [r4]
 80054c4:	e7bc      	b.n	8005440 <__ieee754_rem_pio2f+0x104>
 80054c6:	f1b5 4fff 	cmp.w	r5, #2139095040	@ 0x7f800000
 80054ca:	d306      	bcc.n	80054da <__ieee754_rem_pio2f+0x19e>
 80054cc:	ee70 7a40 	vsub.f32	s15, s0, s0
 80054d0:	edc0 7a01 	vstr	s15, [r0, #4]
 80054d4:	edc0 7a00 	vstr	s15, [r0]
 80054d8:	e73e      	b.n	8005358 <__ieee754_rem_pio2f+0x1c>
 80054da:	15ea      	asrs	r2, r5, #23
 80054dc:	3a86      	subs	r2, #134	@ 0x86
 80054de:	eba5 53c2 	sub.w	r3, r5, r2, lsl #23
 80054e2:	ee07 3a90 	vmov	s15, r3
 80054e6:	eebd 7ae7 	vcvt.s32.f32	s14, s15
 80054ea:	eddf 6a2a 	vldr	s13, [pc, #168]	@ 8005594 <__ieee754_rem_pio2f+0x258>
 80054ee:	eeb8 7ac7 	vcvt.f32.s32	s14, s14
 80054f2:	ee77 7ac7 	vsub.f32	s15, s15, s14
 80054f6:	ed8d 7a03 	vstr	s14, [sp, #12]
 80054fa:	ee67 7aa6 	vmul.f32	s15, s15, s13
 80054fe:	eebd 7ae7 	vcvt.s32.f32	s14, s15
 8005502:	eeb8 7ac7 	vcvt.f32.s32	s14, s14
 8005506:	ee77 7ac7 	vsub.f32	s15, s15, s14
 800550a:	ed8d 7a04 	vstr	s14, [sp, #16]
 800550e:	ee67 7aa6 	vmul.f32	s15, s15, s13
 8005512:	eef5 7a40 	vcmp.f32	s15, #0.0
 8005516:	eef1 fa10 	vmrs	APSR_nzcv, fpscr
 800551a:	edcd 7a05 	vstr	s15, [sp, #20]
 800551e:	d11e      	bne.n	800555e <__ieee754_rem_pio2f+0x222>
 8005520:	eeb5 7a40 	vcmp.f32	s14, #0.0
 8005524:	eef1 fa10 	vmrs	APSR_nzcv, fpscr
 8005528:	bf0c      	ite	eq
 800552a:	2301      	moveq	r3, #1
 800552c:	2302      	movne	r3, #2
 800552e:	491a      	ldr	r1, [pc, #104]	@ (8005598 <__ieee754_rem_pio2f+0x25c>)
 8005530:	9101      	str	r1, [sp, #4]
 8005532:	2102      	movs	r1, #2
 8005534:	9100      	str	r1, [sp, #0]
 8005536:	a803      	add	r0, sp, #12
 8005538:	4621      	mov	r1, r4
 800553a:	f000 f895 	bl	8005668 <__kernel_rem_pio2f>
 800553e:	2e00      	cmp	r6, #0
 8005540:	f6bf af2f 	bge.w	80053a2 <__ieee754_rem_pio2f+0x66>
 8005544:	edd4 7a00 	vldr	s15, [r4]
 8005548:	eef1 7a67 	vneg.f32	s15, s15
 800554c:	edc4 7a00 	vstr	s15, [r4]
 8005550:	edd4 7a01 	vldr	s15, [r4, #4]
 8005554:	eef1 7a67 	vneg.f32	s15, s15
 8005558:	edc4 7a01 	vstr	s15, [r4, #4]
 800555c:	e782      	b.n	8005464 <__ieee754_rem_pio2f+0x128>
 800555e:	2303      	movs	r3, #3
 8005560:	e7e5      	b.n	800552e <__ieee754_rem_pio2f+0x1f2>
 8005562:	bf00      	nop
 8005564:	3f490fd8 	.word	0x3f490fd8
 8005568:	4016cbe3 	.word	0x4016cbe3
 800556c:	3fc90f80 	.word	0x3fc90f80
 8005570:	3fc90fd0 	.word	0x3fc90fd0
 8005574:	37354400 	.word	0x37354400
 8005578:	37354443 	.word	0x37354443
 800557c:	2e85a308 	.word	0x2e85a308
 8005580:	43490f80 	.word	0x43490f80
 8005584:	3f22f984 	.word	0x3f22f984
 8005588:	08006000 	.word	0x08006000
 800558c:	2e85a300 	.word	0x2e85a300
 8005590:	248d3132 	.word	0x248d3132
 8005594:	43800000 	.word	0x43800000
 8005598:	08006080 	.word	0x08006080

0800559c <scalbnf>:
 800559c:	ee10 3a10 	vmov	r3, s0
 80055a0:	f033 4200 	bics.w	r2, r3, #2147483648	@ 0x80000000
 80055a4:	d02b      	beq.n	80055fe <scalbnf+0x62>
 80055a6:	f1b2 4fff 	cmp.w	r2, #2139095040	@ 0x7f800000
 80055aa:	d302      	bcc.n	80055b2 <scalbnf+0x16>
 80055ac:	ee30 0a00 	vadd.f32	s0, s0, s0
 80055b0:	4770      	bx	lr
 80055b2:	f013 4fff 	tst.w	r3, #2139095040	@ 0x7f800000
 80055b6:	d123      	bne.n	8005600 <scalbnf+0x64>
 80055b8:	4b24      	ldr	r3, [pc, #144]	@ (800564c <scalbnf+0xb0>)
 80055ba:	eddf 7a25 	vldr	s15, [pc, #148]	@ 8005650 <scalbnf+0xb4>
 80055be:	4298      	cmp	r0, r3
 80055c0:	ee20 0a27 	vmul.f32	s0, s0, s15
 80055c4:	db17      	blt.n	80055f6 <scalbnf+0x5a>
 80055c6:	ee10 3a10 	vmov	r3, s0
 80055ca:	f3c3 52c7 	ubfx	r2, r3, #23, #8
 80055ce:	3a19      	subs	r2, #25
 80055d0:	f24c 3150 	movw	r1, #50000	@ 0xc350
 80055d4:	4288      	cmp	r0, r1
 80055d6:	dd15      	ble.n	8005604 <scalbnf+0x68>
 80055d8:	eddf 7a1e 	vldr	s15, [pc, #120]	@ 8005654 <scalbnf+0xb8>
 80055dc:	eddf 6a1e 	vldr	s13, [pc, #120]	@ 8005658 <scalbnf+0xbc>
 80055e0:	ee10 3a10 	vmov	r3, s0
 80055e4:	eeb0 7a67 	vmov.f32	s14, s15
 80055e8:	2b00      	cmp	r3, #0
 80055ea:	bfb8      	it	lt
 80055ec:	eef0 7a66 	vmovlt.f32	s15, s13
 80055f0:	ee27 0a87 	vmul.f32	s0, s15, s14
 80055f4:	4770      	bx	lr
 80055f6:	eddf 7a19 	vldr	s15, [pc, #100]	@ 800565c <scalbnf+0xc0>
 80055fa:	ee27 0a80 	vmul.f32	s0, s15, s0
 80055fe:	4770      	bx	lr
 8005600:	0dd2      	lsrs	r2, r2, #23
 8005602:	e7e5      	b.n	80055d0 <scalbnf+0x34>
 8005604:	4410      	add	r0, r2
 8005606:	28fe      	cmp	r0, #254	@ 0xfe
 8005608:	dce6      	bgt.n	80055d8 <scalbnf+0x3c>
 800560a:	2800      	cmp	r0, #0
 800560c:	dd06      	ble.n	800561c <scalbnf+0x80>
 800560e:	f023 43ff 	bic.w	r3, r3, #2139095040	@ 0x7f800000
 8005612:	ea43 53c0 	orr.w	r3, r3, r0, lsl #23
 8005616:	ee00 3a10 	vmov	s0, r3
 800561a:	4770      	bx	lr
 800561c:	f110 0f16 	cmn.w	r0, #22
 8005620:	da09      	bge.n	8005636 <scalbnf+0x9a>
 8005622:	eddf 7a0e 	vldr	s15, [pc, #56]	@ 800565c <scalbnf+0xc0>
 8005626:	eddf 6a0e 	vldr	s13, [pc, #56]	@ 8005660 <scalbnf+0xc4>
 800562a:	ee10 3a10 	vmov	r3, s0
 800562e:	eeb0 7a67 	vmov.f32	s14, s15
 8005632:	2b00      	cmp	r3, #0
 8005634:	e7d9      	b.n	80055ea <scalbnf+0x4e>
 8005636:	3019      	adds	r0, #25
 8005638:	f023 43ff 	bic.w	r3, r3, #2139095040	@ 0x7f800000
 800563c:	ea43 53c0 	orr.w	r3, r3, r0, lsl #23
 8005640:	ed9f 0a08 	vldr	s0, [pc, #32]	@ 8005664 <scalbnf+0xc8>
 8005644:	ee07 3a90 	vmov	s15, r3
 8005648:	e7d7      	b.n	80055fa <scalbnf+0x5e>
 800564a:	bf00      	nop
 800564c:	ffff3cb0 	.word	0xffff3cb0
 8005650:	4c000000 	.word	0x4c000000
 8005654:	7149f2ca 	.word	0x7149f2ca
 8005658:	f149f2ca 	.word	0xf149f2ca
 800565c:	0da24260 	.word	0x0da24260
 8005660:	8da24260 	.word	0x8da24260
 8005664:	33000000 	.word	0x33000000

08005668 <__kernel_rem_pio2f>:
 8005668:	e92d 4ff0 	stmdb	sp!, {r4, r5, r6, r7, r8, r9, sl, fp, lr}
 800566c:	ed2d 8b04 	vpush	{d8-d9}
 8005670:	b0d9      	sub	sp, #356	@ 0x164
 8005672:	4690      	mov	r8, r2
 8005674:	9001      	str	r0, [sp, #4]
 8005676:	4ab9      	ldr	r2, [pc, #740]	@ (800595c <__kernel_rem_pio2f+0x2f4>)
 8005678:	9866      	ldr	r0, [sp, #408]	@ 0x198
 800567a:	f118 0f04 	cmn.w	r8, #4
 800567e:	f852 a020 	ldr.w	sl, [r2, r0, lsl #2]
 8005682:	460f      	mov	r7, r1
 8005684:	f103 3bff 	add.w	fp, r3, #4294967295
 8005688:	db27      	blt.n	80056da <__kernel_rem_pio2f+0x72>
 800568a:	f1b8 0203 	subs.w	r2, r8, #3
 800568e:	bf48      	it	mi
 8005690:	f108 0204 	addmi.w	r2, r8, #4
 8005694:	10d2      	asrs	r2, r2, #3
 8005696:	1c55      	adds	r5, r2, #1
 8005698:	9967      	ldr	r1, [sp, #412]	@ 0x19c
 800569a:	ed9f 7ab4 	vldr	s14, [pc, #720]	@ 800596c <__kernel_rem_pio2f+0x304>
 800569e:	00e8      	lsls	r0, r5, #3
 80056a0:	eba2 060b 	sub.w	r6, r2, fp
 80056a4:	9002      	str	r0, [sp, #8]
 80056a6:	eba8 05c5 	sub.w	r5, r8, r5, lsl #3
 80056aa:	eb0a 0c0b 	add.w	ip, sl, fp
 80056ae:	ac1c      	add	r4, sp, #112	@ 0x70
 80056b0:	eb01 0e86 	add.w	lr, r1, r6, lsl #2
 80056b4:	2000      	movs	r0, #0
 80056b6:	4560      	cmp	r0, ip
 80056b8:	dd11      	ble.n	80056de <__kernel_rem_pio2f+0x76>
 80056ba:	a91c      	add	r1, sp, #112	@ 0x70
 80056bc:	eb01 0083 	add.w	r0, r1, r3, lsl #2
 80056c0:	f50d 7988 	add.w	r9, sp, #272	@ 0x110
 80056c4:	f04f 0c00 	mov.w	ip, #0
 80056c8:	45d4      	cmp	ip, sl
 80056ca:	dc27      	bgt.n	800571c <__kernel_rem_pio2f+0xb4>
 80056cc:	f8dd e004 	ldr.w	lr, [sp, #4]
 80056d0:	eddf 7aa6 	vldr	s15, [pc, #664]	@ 800596c <__kernel_rem_pio2f+0x304>
 80056d4:	4606      	mov	r6, r0
 80056d6:	2400      	movs	r4, #0
 80056d8:	e016      	b.n	8005708 <__kernel_rem_pio2f+0xa0>
 80056da:	2200      	movs	r2, #0
 80056dc:	e7db      	b.n	8005696 <__kernel_rem_pio2f+0x2e>
 80056de:	42c6      	cmn	r6, r0
 80056e0:	bf5d      	ittte	pl
 80056e2:	f85e 1020 	ldrpl.w	r1, [lr, r0, lsl #2]
 80056e6:	ee07 1a90 	vmovpl	s15, r1
 80056ea:	eef8 7ae7 	vcvtpl.f32.s32	s15, s15
 80056ee:	eef0 7a47 	vmovmi.f32	s15, s14
 80056f2:	ece4 7a01 	vstmia	r4!, {s15}
 80056f6:	3001      	adds	r0, #1
 80056f8:	e7dd      	b.n	80056b6 <__kernel_rem_pio2f+0x4e>
 80056fa:	ecfe 6a01 	vldmia	lr!, {s13}
 80056fe:	ed96 7a00 	vldr	s14, [r6]
 8005702:	eee6 7a87 	vfma.f32	s15, s13, s14
 8005706:	3401      	adds	r4, #1
 8005708:	455c      	cmp	r4, fp
 800570a:	f1a6 0604 	sub.w	r6, r6, #4
 800570e:	ddf4      	ble.n	80056fa <__kernel_rem_pio2f+0x92>
 8005710:	ece9 7a01 	vstmia	r9!, {s15}
 8005714:	f10c 0c01 	add.w	ip, ip, #1
 8005718:	3004      	adds	r0, #4
 800571a:	e7d5      	b.n	80056c8 <__kernel_rem_pio2f+0x60>
 800571c:	a908      	add	r1, sp, #32
 800571e:	eb01 018a 	add.w	r1, r1, sl, lsl #2
 8005722:	9104      	str	r1, [sp, #16]
 8005724:	9967      	ldr	r1, [sp, #412]	@ 0x19c
 8005726:	eddf 8a90 	vldr	s17, [pc, #576]	@ 8005968 <__kernel_rem_pio2f+0x300>
 800572a:	ed9f 9a8e 	vldr	s18, [pc, #568]	@ 8005964 <__kernel_rem_pio2f+0x2fc>
 800572e:	eb01 0282 	add.w	r2, r1, r2, lsl #2
 8005732:	9203      	str	r2, [sp, #12]
 8005734:	4654      	mov	r4, sl
 8005736:	00a2      	lsls	r2, r4, #2
 8005738:	9205      	str	r2, [sp, #20]
 800573a:	aa58      	add	r2, sp, #352	@ 0x160
 800573c:	eb02 0284 	add.w	r2, r2, r4, lsl #2
 8005740:	ed12 0a14 	vldr	s0, [r2, #-80]	@ 0xffffffb0
 8005744:	a944      	add	r1, sp, #272	@ 0x110
 8005746:	aa08      	add	r2, sp, #32
 8005748:	eb01 0084 	add.w	r0, r1, r4, lsl #2
 800574c:	4694      	mov	ip, r2
 800574e:	4626      	mov	r6, r4
 8005750:	2e00      	cmp	r6, #0
 8005752:	f1a0 0004 	sub.w	r0, r0, #4
 8005756:	dc4c      	bgt.n	80057f2 <__kernel_rem_pio2f+0x18a>
 8005758:	4628      	mov	r0, r5
 800575a:	e9cd 2306 	strd	r2, r3, [sp, #24]
 800575e:	f7ff ff1d 	bl	800559c <scalbnf>
 8005762:	eeb0 8a40 	vmov.f32	s16, s0
 8005766:	eeb4 0a00 	vmov.f32	s0, #64	@ 0x3e000000  0.125
 800576a:	ee28 0a00 	vmul.f32	s0, s16, s0
 800576e:	f000 f9ed 	bl	8005b4c <floorf>
 8005772:	eef2 7a00 	vmov.f32	s15, #32	@ 0x41000000  8.0
 8005776:	eea0 8a67 	vfms.f32	s16, s0, s15
 800577a:	2d00      	cmp	r5, #0
 800577c:	e9dd 2306 	ldrd	r2, r3, [sp, #24]
 8005780:	eefd 7ac8 	vcvt.s32.f32	s15, s16
 8005784:	ee17 9a90 	vmov	r9, s15
 8005788:	eef8 7ae7 	vcvt.f32.s32	s15, s15
 800578c:	ee38 8a67 	vsub.f32	s16, s16, s15
 8005790:	dd41      	ble.n	8005816 <__kernel_rem_pio2f+0x1ae>
 8005792:	f104 3cff 	add.w	ip, r4, #4294967295
 8005796:	a908      	add	r1, sp, #32
 8005798:	f1c5 0e08 	rsb	lr, r5, #8
 800579c:	f851 602c 	ldr.w	r6, [r1, ip, lsl #2]
 80057a0:	fa46 f00e 	asr.w	r0, r6, lr
 80057a4:	4481      	add	r9, r0
 80057a6:	fa00 f00e 	lsl.w	r0, r0, lr
 80057aa:	1a36      	subs	r6, r6, r0
 80057ac:	f1c5 0007 	rsb	r0, r5, #7
 80057b0:	f841 602c 	str.w	r6, [r1, ip, lsl #2]
 80057b4:	4106      	asrs	r6, r0
 80057b6:	2e00      	cmp	r6, #0
 80057b8:	dd3c      	ble.n	8005834 <__kernel_rem_pio2f+0x1cc>
 80057ba:	f04f 0e00 	mov.w	lr, #0
 80057be:	f109 0901 	add.w	r9, r9, #1
 80057c2:	4670      	mov	r0, lr
 80057c4:	4574      	cmp	r4, lr
 80057c6:	dc68      	bgt.n	800589a <__kernel_rem_pio2f+0x232>
 80057c8:	2d00      	cmp	r5, #0
 80057ca:	dd03      	ble.n	80057d4 <__kernel_rem_pio2f+0x16c>
 80057cc:	2d01      	cmp	r5, #1
 80057ce:	d074      	beq.n	80058ba <__kernel_rem_pio2f+0x252>
 80057d0:	2d02      	cmp	r5, #2
 80057d2:	d07d      	beq.n	80058d0 <__kernel_rem_pio2f+0x268>
 80057d4:	2e02      	cmp	r6, #2
 80057d6:	d12d      	bne.n	8005834 <__kernel_rem_pio2f+0x1cc>
 80057d8:	eeb7 0a00 	vmov.f32	s0, #112	@ 0x3f800000  1.0
 80057dc:	ee30 8a48 	vsub.f32	s16, s0, s16
 80057e0:	b340      	cbz	r0, 8005834 <__kernel_rem_pio2f+0x1cc>
 80057e2:	4628      	mov	r0, r5
 80057e4:	9306      	str	r3, [sp, #24]
 80057e6:	f7ff fed9 	bl	800559c <scalbnf>
 80057ea:	9b06      	ldr	r3, [sp, #24]
 80057ec:	ee38 8a40 	vsub.f32	s16, s16, s0
 80057f0:	e020      	b.n	8005834 <__kernel_rem_pio2f+0x1cc>
 80057f2:	ee60 7a28 	vmul.f32	s15, s0, s17
 80057f6:	3e01      	subs	r6, #1
 80057f8:	eefd 7ae7 	vcvt.s32.f32	s15, s15
 80057fc:	eef8 7ae7 	vcvt.f32.s32	s15, s15
 8005800:	eea7 0ac9 	vfms.f32	s0, s15, s18
 8005804:	eebd 0ac0 	vcvt.s32.f32	s0, s0
 8005808:	ecac 0a01 	vstmia	ip!, {s0}
 800580c:	ed90 0a00 	vldr	s0, [r0]
 8005810:	ee37 0a80 	vadd.f32	s0, s15, s0
 8005814:	e79c      	b.n	8005750 <__kernel_rem_pio2f+0xe8>
 8005816:	d105      	bne.n	8005824 <__kernel_rem_pio2f+0x1bc>
 8005818:	1e60      	subs	r0, r4, #1
 800581a:	a908      	add	r1, sp, #32
 800581c:	f851 6020 	ldr.w	r6, [r1, r0, lsl #2]
 8005820:	11f6      	asrs	r6, r6, #7
 8005822:	e7c8      	b.n	80057b6 <__kernel_rem_pio2f+0x14e>
 8005824:	eef6 7a00 	vmov.f32	s15, #96	@ 0x3f000000  0.5
 8005828:	eeb4 8ae7 	vcmpe.f32	s16, s15
 800582c:	eef1 fa10 	vmrs	APSR_nzcv, fpscr
 8005830:	da31      	bge.n	8005896 <__kernel_rem_pio2f+0x22e>
 8005832:	2600      	movs	r6, #0
 8005834:	eeb5 8a40 	vcmp.f32	s16, #0.0
 8005838:	eef1 fa10 	vmrs	APSR_nzcv, fpscr
 800583c:	f040 8098 	bne.w	8005970 <__kernel_rem_pio2f+0x308>
 8005840:	1e60      	subs	r0, r4, #1
 8005842:	2200      	movs	r2, #0
 8005844:	4550      	cmp	r0, sl
 8005846:	da4b      	bge.n	80058e0 <__kernel_rem_pio2f+0x278>
 8005848:	2a00      	cmp	r2, #0
 800584a:	d065      	beq.n	8005918 <__kernel_rem_pio2f+0x2b0>
 800584c:	3c01      	subs	r4, #1
 800584e:	ab08      	add	r3, sp, #32
 8005850:	3d08      	subs	r5, #8
 8005852:	f853 3024 	ldr.w	r3, [r3, r4, lsl #2]
 8005856:	2b00      	cmp	r3, #0
 8005858:	d0f8      	beq.n	800584c <__kernel_rem_pio2f+0x1e4>
 800585a:	4628      	mov	r0, r5
 800585c:	eeb7 0a00 	vmov.f32	s0, #112	@ 0x3f800000  1.0
 8005860:	f7ff fe9c 	bl	800559c <scalbnf>
 8005864:	1c63      	adds	r3, r4, #1
 8005866:	aa44      	add	r2, sp, #272	@ 0x110
 8005868:	ed9f 7a3f 	vldr	s14, [pc, #252]	@ 8005968 <__kernel_rem_pio2f+0x300>
 800586c:	0099      	lsls	r1, r3, #2
 800586e:	eb02 0283 	add.w	r2, r2, r3, lsl #2
 8005872:	4623      	mov	r3, r4
 8005874:	2b00      	cmp	r3, #0
 8005876:	f280 80a9 	bge.w	80059cc <__kernel_rem_pio2f+0x364>
 800587a:	4623      	mov	r3, r4
 800587c:	2b00      	cmp	r3, #0
 800587e:	f2c0 80c7 	blt.w	8005a10 <__kernel_rem_pio2f+0x3a8>
 8005882:	aa44      	add	r2, sp, #272	@ 0x110
 8005884:	eb02 0583 	add.w	r5, r2, r3, lsl #2
 8005888:	f8df c0d4 	ldr.w	ip, [pc, #212]	@ 8005960 <__kernel_rem_pio2f+0x2f8>
 800588c:	eddf 7a37 	vldr	s15, [pc, #220]	@ 800596c <__kernel_rem_pio2f+0x304>
 8005890:	2000      	movs	r0, #0
 8005892:	1ae2      	subs	r2, r4, r3
 8005894:	e0b1      	b.n	80059fa <__kernel_rem_pio2f+0x392>
 8005896:	2602      	movs	r6, #2
 8005898:	e78f      	b.n	80057ba <__kernel_rem_pio2f+0x152>
 800589a:	f852 1b04 	ldr.w	r1, [r2], #4
 800589e:	b948      	cbnz	r0, 80058b4 <__kernel_rem_pio2f+0x24c>
 80058a0:	b121      	cbz	r1, 80058ac <__kernel_rem_pio2f+0x244>
 80058a2:	f5c1 7180 	rsb	r1, r1, #256	@ 0x100
 80058a6:	f842 1c04 	str.w	r1, [r2, #-4]
 80058aa:	2101      	movs	r1, #1
 80058ac:	f10e 0e01 	add.w	lr, lr, #1
 80058b0:	4608      	mov	r0, r1
 80058b2:	e787      	b.n	80057c4 <__kernel_rem_pio2f+0x15c>
 80058b4:	f1c1 01ff 	rsb	r1, r1, #255	@ 0xff
 80058b8:	e7f5      	b.n	80058a6 <__kernel_rem_pio2f+0x23e>
 80058ba:	f104 3cff 	add.w	ip, r4, #4294967295
 80058be:	aa08      	add	r2, sp, #32
 80058c0:	f852 202c 	ldr.w	r2, [r2, ip, lsl #2]
 80058c4:	f002 027f 	and.w	r2, r2, #127	@ 0x7f
 80058c8:	a908      	add	r1, sp, #32
 80058ca:	f841 202c 	str.w	r2, [r1, ip, lsl #2]
 80058ce:	e781      	b.n	80057d4 <__kernel_rem_pio2f+0x16c>
 80058d0:	f104 3cff 	add.w	ip, r4, #4294967295
 80058d4:	aa08      	add	r2, sp, #32
 80058d6:	f852 202c 	ldr.w	r2, [r2, ip, lsl #2]
 80058da:	f002 023f 	and.w	r2, r2, #63	@ 0x3f
 80058de:	e7f3      	b.n	80058c8 <__kernel_rem_pio2f+0x260>
 80058e0:	a908      	add	r1, sp, #32
 80058e2:	f851 1020 	ldr.w	r1, [r1, r0, lsl #2]
 80058e6:	3801      	subs	r0, #1
 80058e8:	430a      	orrs	r2, r1
 80058ea:	e7ab      	b.n	8005844 <__kernel_rem_pio2f+0x1dc>
 80058ec:	3201      	adds	r2, #1
 80058ee:	f850 6d04 	ldr.w	r6, [r0, #-4]!
 80058f2:	2e00      	cmp	r6, #0
 80058f4:	d0fa      	beq.n	80058ec <__kernel_rem_pio2f+0x284>
 80058f6:	9905      	ldr	r1, [sp, #20]
 80058f8:	f501 71b0 	add.w	r1, r1, #352	@ 0x160
 80058fc:	eb0d 0001 	add.w	r0, sp, r1
 8005900:	18e6      	adds	r6, r4, r3
 8005902:	a91c      	add	r1, sp, #112	@ 0x70
 8005904:	f104 0c01 	add.w	ip, r4, #1
 8005908:	384c      	subs	r0, #76	@ 0x4c
 800590a:	eb01 0686 	add.w	r6, r1, r6, lsl #2
 800590e:	4422      	add	r2, r4
 8005910:	4562      	cmp	r2, ip
 8005912:	da04      	bge.n	800591e <__kernel_rem_pio2f+0x2b6>
 8005914:	4614      	mov	r4, r2
 8005916:	e70e      	b.n	8005736 <__kernel_rem_pio2f+0xce>
 8005918:	9804      	ldr	r0, [sp, #16]
 800591a:	2201      	movs	r2, #1
 800591c:	e7e7      	b.n	80058ee <__kernel_rem_pio2f+0x286>
 800591e:	9903      	ldr	r1, [sp, #12]
 8005920:	f8dd e004 	ldr.w	lr, [sp, #4]
 8005924:	f851 102c 	ldr.w	r1, [r1, ip, lsl #2]
 8005928:	9105      	str	r1, [sp, #20]
 800592a:	ee07 1a90 	vmov	s15, r1
 800592e:	eef8 7ae7 	vcvt.f32.s32	s15, s15
 8005932:	2400      	movs	r4, #0
 8005934:	ece6 7a01 	vstmia	r6!, {s15}
 8005938:	eddf 7a0c 	vldr	s15, [pc, #48]	@ 800596c <__kernel_rem_pio2f+0x304>
 800593c:	46b1      	mov	r9, r6
 800593e:	455c      	cmp	r4, fp
 8005940:	dd04      	ble.n	800594c <__kernel_rem_pio2f+0x2e4>
 8005942:	ece0 7a01 	vstmia	r0!, {s15}
 8005946:	f10c 0c01 	add.w	ip, ip, #1
 800594a:	e7e1      	b.n	8005910 <__kernel_rem_pio2f+0x2a8>
 800594c:	ecfe 6a01 	vldmia	lr!, {s13}
 8005950:	ed39 7a01 	vldmdb	r9!, {s14}
 8005954:	3401      	adds	r4, #1
 8005956:	eee6 7a87 	vfma.f32	s15, s13, s14
 800595a:	e7f0      	b.n	800593e <__kernel_rem_pio2f+0x2d6>
 800595c:	080063c4 	.word	0x080063c4
 8005960:	08006398 	.word	0x08006398
 8005964:	43800000 	.word	0x43800000
 8005968:	3b800000 	.word	0x3b800000
 800596c:	00000000 	.word	0x00000000
 8005970:	9b02      	ldr	r3, [sp, #8]
 8005972:	eeb0 0a48 	vmov.f32	s0, s16
 8005976:	eba3 0008 	sub.w	r0, r3, r8
 800597a:	f7ff fe0f 	bl	800559c <scalbnf>
 800597e:	ed1f 7a07 	vldr	s14, [pc, #-28]	@ 8005964 <__kernel_rem_pio2f+0x2fc>
 8005982:	eeb4 0ac7 	vcmpe.f32	s0, s14
 8005986:	eef1 fa10 	vmrs	APSR_nzcv, fpscr
 800598a:	db19      	blt.n	80059c0 <__kernel_rem_pio2f+0x358>
 800598c:	ed5f 7a0a 	vldr	s15, [pc, #-40]	@ 8005968 <__kernel_rem_pio2f+0x300>
 8005990:	ee60 7a27 	vmul.f32	s15, s0, s15
 8005994:	aa08      	add	r2, sp, #32
 8005996:	eefd 7ae7 	vcvt.s32.f32	s15, s15
 800599a:	3508      	adds	r5, #8
 800599c:	eef8 7ae7 	vcvt.f32.s32	s15, s15
 80059a0:	eea7 0ac7 	vfms.f32	s0, s15, s14
 80059a4:	eefd 7ae7 	vcvt.s32.f32	s15, s15
 80059a8:	eebd 0ac0 	vcvt.s32.f32	s0, s0
 80059ac:	ee10 3a10 	vmov	r3, s0
 80059b0:	f842 3024 	str.w	r3, [r2, r4, lsl #2]
 80059b4:	ee17 3a90 	vmov	r3, s15
 80059b8:	3401      	adds	r4, #1
 80059ba:	f842 3024 	str.w	r3, [r2, r4, lsl #2]
 80059be:	e74c      	b.n	800585a <__kernel_rem_pio2f+0x1f2>
 80059c0:	eebd 0ac0 	vcvt.s32.f32	s0, s0
 80059c4:	aa08      	add	r2, sp, #32
 80059c6:	ee10 3a10 	vmov	r3, s0
 80059ca:	e7f6      	b.n	80059ba <__kernel_rem_pio2f+0x352>
 80059cc:	a808      	add	r0, sp, #32
 80059ce:	f850 0023 	ldr.w	r0, [r0, r3, lsl #2]
 80059d2:	9001      	str	r0, [sp, #4]
 80059d4:	ee07 0a90 	vmov	s15, r0
 80059d8:	eef8 7ae7 	vcvt.f32.s32	s15, s15
 80059dc:	3b01      	subs	r3, #1
 80059de:	ee67 7a80 	vmul.f32	s15, s15, s0
 80059e2:	ee20 0a07 	vmul.f32	s0, s0, s14
 80059e6:	ed62 7a01 	vstmdb	r2!, {s15}
 80059ea:	e743      	b.n	8005874 <__kernel_rem_pio2f+0x20c>
 80059ec:	ecfc 6a01 	vldmia	ip!, {s13}
 80059f0:	ecb5 7a01 	vldmia	r5!, {s14}
 80059f4:	eee6 7a87 	vfma.f32	s15, s13, s14
 80059f8:	3001      	adds	r0, #1
 80059fa:	4550      	cmp	r0, sl
 80059fc:	dc01      	bgt.n	8005a02 <__kernel_rem_pio2f+0x39a>
 80059fe:	4282      	cmp	r2, r0
 8005a00:	daf4      	bge.n	80059ec <__kernel_rem_pio2f+0x384>
 8005a02:	a858      	add	r0, sp, #352	@ 0x160
 8005a04:	eb00 0282 	add.w	r2, r0, r2, lsl #2
 8005a08:	ed42 7a28 	vstr	s15, [r2, #-160]	@ 0xffffff60
 8005a0c:	3b01      	subs	r3, #1
 8005a0e:	e735      	b.n	800587c <__kernel_rem_pio2f+0x214>
 8005a10:	9b66      	ldr	r3, [sp, #408]	@ 0x198
 8005a12:	2b02      	cmp	r3, #2
 8005a14:	dc09      	bgt.n	8005a2a <__kernel_rem_pio2f+0x3c2>
 8005a16:	2b00      	cmp	r3, #0
 8005a18:	dc2b      	bgt.n	8005a72 <__kernel_rem_pio2f+0x40a>
 8005a1a:	d044      	beq.n	8005aa6 <__kernel_rem_pio2f+0x43e>
 8005a1c:	f009 0007 	and.w	r0, r9, #7
 8005a20:	b059      	add	sp, #356	@ 0x164
 8005a22:	ecbd 8b04 	vpop	{d8-d9}
 8005a26:	e8bd 8ff0 	ldmia.w	sp!, {r4, r5, r6, r7, r8, r9, sl, fp, pc}
 8005a2a:	9b66      	ldr	r3, [sp, #408]	@ 0x198
 8005a2c:	2b03      	cmp	r3, #3
 8005a2e:	d1f5      	bne.n	8005a1c <__kernel_rem_pio2f+0x3b4>
 8005a30:	aa30      	add	r2, sp, #192	@ 0xc0
 8005a32:	1f0b      	subs	r3, r1, #4
 8005a34:	4413      	add	r3, r2
 8005a36:	461a      	mov	r2, r3
 8005a38:	4620      	mov	r0, r4
 8005a3a:	2800      	cmp	r0, #0
 8005a3c:	f1a2 0204 	sub.w	r2, r2, #4
 8005a40:	dc52      	bgt.n	8005ae8 <__kernel_rem_pio2f+0x480>
 8005a42:	4622      	mov	r2, r4
 8005a44:	2a01      	cmp	r2, #1
 8005a46:	f1a3 0304 	sub.w	r3, r3, #4
 8005a4a:	dc5d      	bgt.n	8005b08 <__kernel_rem_pio2f+0x4a0>
 8005a4c:	ab30      	add	r3, sp, #192	@ 0xc0
 8005a4e:	ed5f 7a39 	vldr	s15, [pc, #-228]	@ 800596c <__kernel_rem_pio2f+0x304>
 8005a52:	440b      	add	r3, r1
 8005a54:	2c01      	cmp	r4, #1
 8005a56:	dc67      	bgt.n	8005b28 <__kernel_rem_pio2f+0x4c0>
 8005a58:	eddd 6a30 	vldr	s13, [sp, #192]	@ 0xc0
 8005a5c:	ed9d 7a31 	vldr	s14, [sp, #196]	@ 0xc4
 8005a60:	2e00      	cmp	r6, #0
 8005a62:	d167      	bne.n	8005b34 <__kernel_rem_pio2f+0x4cc>
 8005a64:	edc7 6a00 	vstr	s13, [r7]
 8005a68:	ed87 7a01 	vstr	s14, [r7, #4]
 8005a6c:	edc7 7a02 	vstr	s15, [r7, #8]
 8005a70:	e7d4      	b.n	8005a1c <__kernel_rem_pio2f+0x3b4>
 8005a72:	ab30      	add	r3, sp, #192	@ 0xc0
 8005a74:	ed1f 7a43 	vldr	s14, [pc, #-268]	@ 800596c <__kernel_rem_pio2f+0x304>
 8005a78:	440b      	add	r3, r1
 8005a7a:	4622      	mov	r2, r4
 8005a7c:	2a00      	cmp	r2, #0
 8005a7e:	da24      	bge.n	8005aca <__kernel_rem_pio2f+0x462>
 8005a80:	b34e      	cbz	r6, 8005ad6 <__kernel_rem_pio2f+0x46e>
 8005a82:	eef1 7a47 	vneg.f32	s15, s14
 8005a86:	edc7 7a00 	vstr	s15, [r7]
 8005a8a:	eddd 7a30 	vldr	s15, [sp, #192]	@ 0xc0
 8005a8e:	ee77 7ac7 	vsub.f32	s15, s15, s14
 8005a92:	aa31      	add	r2, sp, #196	@ 0xc4
 8005a94:	2301      	movs	r3, #1
 8005a96:	429c      	cmp	r4, r3
 8005a98:	da20      	bge.n	8005adc <__kernel_rem_pio2f+0x474>
 8005a9a:	b10e      	cbz	r6, 8005aa0 <__kernel_rem_pio2f+0x438>
 8005a9c:	eef1 7a67 	vneg.f32	s15, s15
 8005aa0:	edc7 7a01 	vstr	s15, [r7, #4]
 8005aa4:	e7ba      	b.n	8005a1c <__kernel_rem_pio2f+0x3b4>
 8005aa6:	ab30      	add	r3, sp, #192	@ 0xc0
 8005aa8:	ed5f 7a50 	vldr	s15, [pc, #-320]	@ 800596c <__kernel_rem_pio2f+0x304>
 8005aac:	440b      	add	r3, r1
 8005aae:	2c00      	cmp	r4, #0
 8005ab0:	da05      	bge.n	8005abe <__kernel_rem_pio2f+0x456>
 8005ab2:	b10e      	cbz	r6, 8005ab8 <__kernel_rem_pio2f+0x450>
 8005ab4:	eef1 7a67 	vneg.f32	s15, s15
 8005ab8:	edc7 7a00 	vstr	s15, [r7]
 8005abc:	e7ae      	b.n	8005a1c <__kernel_rem_pio2f+0x3b4>
 8005abe:	ed33 7a01 	vldmdb	r3!, {s14}
 8005ac2:	3c01      	subs	r4, #1
 8005ac4:	ee77 7a87 	vadd.f32	s15, s15, s14
 8005ac8:	e7f1      	b.n	8005aae <__kernel_rem_pio2f+0x446>
 8005aca:	ed73 7a01 	vldmdb	r3!, {s15}
 8005ace:	3a01      	subs	r2, #1
 8005ad0:	ee37 7a27 	vadd.f32	s14, s14, s15
 8005ad4:	e7d2      	b.n	8005a7c <__kernel_rem_pio2f+0x414>
 8005ad6:	eef0 7a47 	vmov.f32	s15, s14
 8005ada:	e7d4      	b.n	8005a86 <__kernel_rem_pio2f+0x41e>
 8005adc:	ecb2 7a01 	vldmia	r2!, {s14}
 8005ae0:	3301      	adds	r3, #1
 8005ae2:	ee77 7a87 	vadd.f32	s15, s15, s14
 8005ae6:	e7d6      	b.n	8005a96 <__kernel_rem_pio2f+0x42e>
 8005ae8:	edd2 7a00 	vldr	s15, [r2]
 8005aec:	edd2 6a01 	vldr	s13, [r2, #4]
 8005af0:	ee37 7aa6 	vadd.f32	s14, s15, s13
 8005af4:	3801      	subs	r0, #1
 8005af6:	ee77 7ac7 	vsub.f32	s15, s15, s14
 8005afa:	ed82 7a00 	vstr	s14, [r2]
 8005afe:	ee77 7aa6 	vadd.f32	s15, s15, s13
 8005b02:	edc2 7a01 	vstr	s15, [r2, #4]
 8005b06:	e798      	b.n	8005a3a <__kernel_rem_pio2f+0x3d2>
 8005b08:	edd3 7a00 	vldr	s15, [r3]
 8005b0c:	edd3 6a01 	vldr	s13, [r3, #4]
 8005b10:	ee37 7aa6 	vadd.f32	s14, s15, s13
 8005b14:	3a01      	subs	r2, #1
 8005b16:	ee77 7ac7 	vsub.f32	s15, s15, s14
 8005b1a:	ed83 7a00 	vstr	s14, [r3]
 8005b1e:	ee77 7aa6 	vadd.f32	s15, s15, s13
 8005b22:	edc3 7a01 	vstr	s15, [r3, #4]
 8005b26:	e78d      	b.n	8005a44 <__kernel_rem_pio2f+0x3dc>
 8005b28:	ed33 7a01 	vldmdb	r3!, {s14}
 8005b2c:	3c01      	subs	r4, #1
 8005b2e:	ee77 7a87 	vadd.f32	s15, s15, s14
 8005b32:	e78f      	b.n	8005a54 <__kernel_rem_pio2f+0x3ec>
 8005b34:	eef1 6a66 	vneg.f32	s13, s13
 8005b38:	eeb1 7a47 	vneg.f32	s14, s14
 8005b3c:	edc7 6a00 	vstr	s13, [r7]
 8005b40:	ed87 7a01 	vstr	s14, [r7, #4]
 8005b44:	eef1 7a67 	vneg.f32	s15, s15
 8005b48:	e790      	b.n	8005a6c <__kernel_rem_pio2f+0x404>
 8005b4a:	bf00      	nop

08005b4c <floorf>:
 8005b4c:	ee10 3a10 	vmov	r3, s0
 8005b50:	f3c3 52c7 	ubfx	r2, r3, #23, #8
 8005b54:	3a7f      	subs	r2, #127	@ 0x7f
 8005b56:	2a16      	cmp	r2, #22
 8005b58:	f023 4100 	bic.w	r1, r3, #2147483648	@ 0x80000000
 8005b5c:	dc2b      	bgt.n	8005bb6 <floorf+0x6a>
 8005b5e:	2a00      	cmp	r2, #0
 8005b60:	da12      	bge.n	8005b88 <floorf+0x3c>
 8005b62:	eddf 7a19 	vldr	s15, [pc, #100]	@ 8005bc8 <floorf+0x7c>
 8005b66:	ee30 0a27 	vadd.f32	s0, s0, s15
 8005b6a:	eeb5 0ac0 	vcmpe.f32	s0, #0.0
 8005b6e:	eef1 fa10 	vmrs	APSR_nzcv, fpscr
 8005b72:	dd06      	ble.n	8005b82 <floorf+0x36>
 8005b74:	2b00      	cmp	r3, #0
 8005b76:	da24      	bge.n	8005bc2 <floorf+0x76>
 8005b78:	2900      	cmp	r1, #0
 8005b7a:	4b14      	ldr	r3, [pc, #80]	@ (8005bcc <floorf+0x80>)
 8005b7c:	bf08      	it	eq
 8005b7e:	f04f 4300 	moveq.w	r3, #2147483648	@ 0x80000000
 8005b82:	ee00 3a10 	vmov	s0, r3
 8005b86:	4770      	bx	lr
 8005b88:	4911      	ldr	r1, [pc, #68]	@ (8005bd0 <floorf+0x84>)
 8005b8a:	4111      	asrs	r1, r2
 8005b8c:	420b      	tst	r3, r1
 8005b8e:	d0fa      	beq.n	8005b86 <floorf+0x3a>
 8005b90:	eddf 7a0d 	vldr	s15, [pc, #52]	@ 8005bc8 <floorf+0x7c>
 8005b94:	ee30 0a27 	vadd.f32	s0, s0, s15
 8005b98:	eeb5 0ac0 	vcmpe.f32	s0, #0.0
 8005b9c:	eef1 fa10 	vmrs	APSR_nzcv, fpscr
 8005ba0:	ddef      	ble.n	8005b82 <floorf+0x36>
 8005ba2:	2b00      	cmp	r3, #0
 8005ba4:	bfbe      	ittt	lt
 8005ba6:	f44f 0000 	movlt.w	r0, #8388608	@ 0x800000
 8005baa:	fa40 f202 	asrlt.w	r2, r0, r2
 8005bae:	189b      	addlt	r3, r3, r2
 8005bb0:	ea23 0301 	bic.w	r3, r3, r1
 8005bb4:	e7e5      	b.n	8005b82 <floorf+0x36>
 8005bb6:	f1b1 4fff 	cmp.w	r1, #2139095040	@ 0x7f800000
 8005bba:	d3e4      	bcc.n	8005b86 <floorf+0x3a>
 8005bbc:	ee30 0a00 	vadd.f32	s0, s0, s0
 8005bc0:	4770      	bx	lr
 8005bc2:	2300      	movs	r3, #0
 8005bc4:	e7dd      	b.n	8005b82 <floorf+0x36>
 8005bc6:	bf00      	nop
 8005bc8:	7149f2ca 	.word	0x7149f2ca
 8005bcc:	bf800000 	.word	0xbf800000
 8005bd0:	007fffff 	.word	0x007fffff

08005bd4 <_init>:
 8005bd4:	b5f8      	push	{r3, r4, r5, r6, r7, lr}
 8005bd6:	bf00      	nop
 8005bd8:	bcf8      	pop	{r3, r4, r5, r6, r7}
 8005bda:	bc08      	pop	{r3}
 8005bdc:	469e      	mov	lr, r3
 8005bde:	4770      	bx	lr

08005be0 <_fini>:
 8005be0:	b5f8      	push	{r3, r4, r5, r6, r7, lr}
 8005be2:	bf00      	nop
 8005be4:	bcf8      	pop	{r3, r4, r5, r6, r7}
 8005be6:	bc08      	pop	{r3}
 8005be8:	469e      	mov	lr, r3
 8005bea:	4770      	bx	lr
