
Digital-Humidity-Gauge.elf:     file format elf32-littlearm

Sections:
Idx Name          Size      VMA       LMA       File off  Algn
  0 .isr_vector   00000188  08000000  08000000  00001000  2**0
                  CONTENTS, ALLOC, LOAD, READONLY, DATA
  1 .text         00002eb8  08000188  08000188  00001188  2**2
                  CONTENTS, ALLOC, LOAD, READONLY, CODE
  2 .rodata       000005f0  08003040  08003040  00004040  2**2
                  CONTENTS, ALLOC, LOAD, READONLY, DATA
  3 .ARM.extab    00000000  08003630  08003630  00005004  2**0
                  CONTENTS
  4 .ARM          00000000  08003630  08003630  00005004  2**0
                  CONTENTS
  5 .preinit_array 00000000  08003630  08003630  00005004  2**0
                  CONTENTS, ALLOC, LOAD, DATA
  6 .init_array   00000004  08003630  08003630  00004630  2**2
                  CONTENTS, ALLOC, LOAD, READONLY, DATA
  7 .fini_array   00000004  08003634  08003634  00004634  2**2
                  CONTENTS, ALLOC, LOAD, READONLY, DATA
  8 .data         00000004  20000000  08003638  00005000  2**2
                  CONTENTS, ALLOC, LOAD, DATA
  9 .ccmram       00000000  10000000  10000000  00005004  2**0
                  CONTENTS
 10 .bss          00000340  20000004  20000004  00005004  2**2
                  ALLOC
 11 ._user_heap_stack 00000604  20000344  20000344  00005004  2**0
                  ALLOC
 12 .ARM.attributes 00000030  00000000  00000000  00005004  2**0
                  CONTENTS, READONLY
 13 .comment      00000043  00000000  00000000  00005034  2**0
                  CONTENTS, READONLY
 14 .debug_frame  0000002c  00000000  00000000  00005078  2**2
                  CONTENTS, READONLY, DEBUGGING, OCTETS

Disassembly of section .text:

08000188 <__do_global_dtors_aux>:
 8000188:	b510      	push	{r4, lr}
 800018a:	4c05      	ldr	r4, [pc, #20]	@ (80001a0 <__do_global_dtors_aux+0x18>)
 800018c:	7823      	ldrb	r3, [r4, #0]
 800018e:	b933      	cbnz	r3, 800019e <__do_global_dtors_aux+0x16>
 8000190:	4b04      	ldr	r3, [pc, #16]	@ (80001a4 <__do_global_dtors_aux+0x1c>)
 8000192:	b113      	cbz	r3, 800019a <__do_global_dtors_aux+0x12>
 8000194:	4804      	ldr	r0, [pc, #16]	@ (80001a8 <__do_global_dtors_aux+0x20>)
 8000196:	f3af 8000 	nop.w
 800019a:	2301      	movs	r3, #1
 800019c:	7023      	strb	r3, [r4, #0]
 800019e:	bd10      	pop	{r4, pc}
 80001a0:	20000004 	.word	0x20000004
 80001a4:	00000000 	.word	0x00000000
 80001a8:	08003028 	.word	0x08003028

080001ac <frame_dummy>:
 80001ac:	b508      	push	{r3, lr}
 80001ae:	4b03      	ldr	r3, [pc, #12]	@ (80001bc <frame_dummy+0x10>)
 80001b0:	b11b      	cbz	r3, 80001ba <frame_dummy+0xe>
 80001b2:	4903      	ldr	r1, [pc, #12]	@ (80001c0 <frame_dummy+0x14>)
 80001b4:	4803      	ldr	r0, [pc, #12]	@ (80001c4 <frame_dummy+0x18>)
 80001b6:	f3af 8000 	nop.w
 80001ba:	bd08      	pop	{r3, pc}
 80001bc:	00000000 	.word	0x00000000
 80001c0:	20000008 	.word	0x20000008
 80001c4:	08003028 	.word	0x08003028

080001c8 <DC_D>:
 80001c8:	68c2      	ldr	r2, [r0, #12]
 80001ca:	8a00      	ldrh	r0, [r0, #16]
 80001cc:	6951      	ldr	r1, [r2, #20]
 80001ce:	2301      	movs	r3, #1
 80001d0:	4083      	lsls	r3, r0
 80001d2:	430b      	orrs	r3, r1
 80001d4:	6153      	str	r3, [r2, #20]
 80001d6:	4770      	bx	lr

080001d8 <write_command>:
 80001d8:	b538      	push	{r3, r4, r5, lr}
 80001da:	460d      	mov	r5, r1
 80001dc:	68c1      	ldr	r1, [r0, #12]
 80001de:	4604      	mov	r4, r0
 80001e0:	8a00      	ldrh	r0, [r0, #16]
 80001e2:	694b      	ldr	r3, [r1, #20]
 80001e4:	2201      	movs	r2, #1
 80001e6:	4082      	lsls	r2, r0
 80001e8:	ea23 0302 	bic.w	r3, r3, r2
 80001ec:	614b      	str	r3, [r1, #20]
 80001ee:	6820      	ldr	r0, [r4, #0]
 80001f0:	f002 fa00 	bl	80025f4 <SPI_NSS_Low>
 80001f4:	6820      	ldr	r0, [r4, #0]
 80001f6:	4629      	mov	r1, r5
 80001f8:	f001 fdfe 	bl	8001df8 <SPI_TRX_Byte>
 80001fc:	6820      	ldr	r0, [r4, #0]
 80001fe:	e8bd 4038 	ldmia.w	sp!, {r3, r4, r5, lr}
 8000202:	f001 be14 	b.w	8001e2e <SPI_NSS_High>

08000206 <GC9A01_Write_Data>:
 8000206:	b570      	push	{r4, r5, r6, lr}
 8000208:	4605      	mov	r5, r0
 800020a:	460c      	mov	r4, r1
 800020c:	4616      	mov	r6, r2
 800020e:	f7ff ffdb 	bl	80001c8 <DC_D>
 8000212:	6828      	ldr	r0, [r5, #0]
 8000214:	f002 f9ee 	bl	80025f4 <SPI_NSS_Low>
 8000218:	4426      	add	r6, r4
 800021a:	f814 1b01 	ldrb.w	r1, [r4], #1
 800021e:	6828      	ldr	r0, [r5, #0]
 8000220:	f001 fdea 	bl	8001df8 <SPI_TRX_Byte>
 8000224:	42b4      	cmp	r4, r6
 8000226:	d1f8      	bne.n	800021a <GC9A01_Write_Data+0x14>
 8000228:	6828      	ldr	r0, [r5, #0]
 800022a:	e8bd 4070 	ldmia.w	sp!, {r4, r5, r6, lr}
 800022e:	f001 bdfe 	b.w	8001e2e <SPI_NSS_High>

08000232 <GC9A01_Drite_Data16_Repeat>:
 8000232:	b5f8      	push	{r3, r4, r5, r6, r7, lr}
 8000234:	4605      	mov	r5, r0
 8000236:	460e      	mov	r6, r1
 8000238:	4614      	mov	r4, r2
 800023a:	f7ff ffc5 	bl	80001c8 <DC_D>
 800023e:	6828      	ldr	r0, [r5, #0]
 8000240:	f002 f9d8 	bl	80025f4 <SPI_NSS_Low>
 8000244:	0a37      	lsrs	r7, r6, #8
 8000246:	3c01      	subs	r4, #1
 8000248:	b2f6      	uxtb	r6, r6
 800024a:	4639      	mov	r1, r7
 800024c:	6828      	ldr	r0, [r5, #0]
 800024e:	f001 fdd3 	bl	8001df8 <SPI_TRX_Byte>
 8000252:	6828      	ldr	r0, [r5, #0]
 8000254:	4631      	mov	r1, r6
 8000256:	f001 fdcf 	bl	8001df8 <SPI_TRX_Byte>
 800025a:	3c01      	subs	r4, #1
 800025c:	d2f5      	bcs.n	800024a <GC9A01_Drite_Data16_Repeat+0x18>
 800025e:	6828      	ldr	r0, [r5, #0]
 8000260:	e8bd 40f8 	ldmia.w	sp!, {r3, r4, r5, r6, r7, lr}
 8000264:	f001 bde3 	b.w	8001e2e <SPI_NSS_High>

08000268 <GC9A01_write_byte>:
 8000268:	b538      	push	{r3, r4, r5, lr}
 800026a:	4604      	mov	r4, r0
 800026c:	460d      	mov	r5, r1
 800026e:	f7ff ffab 	bl	80001c8 <DC_D>
 8000272:	6820      	ldr	r0, [r4, #0]
 8000274:	f002 f9be 	bl	80025f4 <SPI_NSS_Low>
 8000278:	6820      	ldr	r0, [r4, #0]
 800027a:	4629      	mov	r1, r5
 800027c:	f001 fdbc 	bl	8001df8 <SPI_TRX_Byte>
 8000280:	6820      	ldr	r0, [r4, #0]
 8000282:	e8bd 4038 	ldmia.w	sp!, {r3, r4, r5, lr}
 8000286:	f001 bdd2 	b.w	8001e2e <SPI_NSS_High>
	...

0800028c <Delay_milli.isra.0>:
 800028c:	490b      	ldr	r1, [pc, #44]	@ (80002bc <Delay_milli.isra.0+0x30>)
 800028e:	f04f 23e0 	mov.w	r3, #3758153728	@ 0xe000e000
 8000292:	2000      	movs	r0, #0
 8000294:	eef7 7a00 	vmov.f32	s15, #112	@ 0x3f800000  1.0
 8000298:	eeb5 0ac0 	vcmpe.f32	s0, #0.0
 800029c:	eef1 fa10 	vmrs	APSR_nzcv, fpscr
 80002a0:	dc00      	bgt.n	80002a4 <Delay_milli.isra.0+0x18>
 80002a2:	4770      	bx	lr
 80002a4:	6159      	str	r1, [r3, #20]
 80002a6:	6198      	str	r0, [r3, #24]
 80002a8:	691a      	ldr	r2, [r3, #16]
 80002aa:	f042 0201 	orr.w	r2, r2, #1
 80002ae:	611a      	str	r2, [r3, #16]
 80002b0:	691a      	ldr	r2, [r3, #16]
 80002b2:	03d2      	lsls	r2, r2, #15
 80002b4:	d5fc      	bpl.n	80002b0 <Delay_milli.isra.0+0x24>
 80002b6:	ee30 0a67 	vsub.f32	s0, s0, s15
 80002ba:	e7ed      	b.n	8000298 <Delay_milli.isra.0+0xc>
 80002bc:	00029040 	.word	0x00029040

080002c0 <GC9A01_Init>:
 80002c0:	e92d 43f0 	stmdb	sp!, {r4, r5, r6, r7, r8, r9, lr}
 80002c4:	2500      	movs	r5, #0
 80002c6:	b085      	sub	sp, #20
 80002c8:	2601      	movs	r6, #1
 80002ca:	e9cd 6501 	strd	r6, r5, [sp, #4]
 80002ce:	f04f 0903 	mov.w	r9, #3
 80002d2:	f8cd 9000 	str.w	r9, [sp]
 80002d6:	4604      	mov	r4, r0
 80002d8:	7e01      	ldrb	r1, [r0, #24]
 80002da:	6940      	ldr	r0, [r0, #20]
 80002dc:	462b      	mov	r3, r5
 80002de:	4632      	mov	r2, r6
 80002e0:	f001 fce6 	bl	8001cb0 <GPIO_Pin_Init>
 80002e4:	e9cd 6501 	strd	r6, r5, [sp, #4]
 80002e8:	f8cd 9000 	str.w	r9, [sp]
 80002ec:	4632      	mov	r2, r6
 80002ee:	7c21      	ldrb	r1, [r4, #16]
 80002f0:	68e0      	ldr	r0, [r4, #12]
 80002f2:	462b      	mov	r3, r5
 80002f4:	f001 fcdc 	bl	8001cb0 <GPIO_Pin_Init>
 80002f8:	6820      	ldr	r0, [r4, #0]
 80002fa:	f001 fda1 	bl	8001e40 <SPI_Init>
 80002fe:	6820      	ldr	r0, [r4, #0]
 8000300:	f001 fd74 	bl	8001dec <SPI_Enable>
 8000304:	6820      	ldr	r0, [r4, #0]
 8000306:	f001 fd92 	bl	8001e2e <SPI_NSS_High>
 800030a:	ed9f 7afe 	vldr	s14, [pc, #1016]	@ 8000704 <GC9A01_Init+0x444>
 800030e:	eeb0 0a47 	vmov.f32	s0, s14
 8000312:	f7ff ffbb 	bl	800028c <Delay_milli.isra.0>
 8000316:	f8d4 8014 	ldr.w	r8, [r4, #20]
 800031a:	8b27      	ldrh	r7, [r4, #24]
 800031c:	f8d8 3014 	ldr.w	r3, [r8, #20]
 8000320:	fa06 f707 	lsl.w	r7, r6, r7
 8000324:	ea23 0307 	bic.w	r3, r3, r7
 8000328:	eeb0 0a47 	vmov.f32	s0, s14
 800032c:	f8c8 3014 	str.w	r3, [r8, #20]
 8000330:	f7ff ffac 	bl	800028c <Delay_milli.isra.0>
 8000334:	f8d8 3014 	ldr.w	r3, [r8, #20]
 8000338:	431f      	orrs	r7, r3
 800033a:	eeb0 0a47 	vmov.f32	s0, s14
 800033e:	f8c8 7014 	str.w	r7, [r8, #20]
 8000342:	f7ff ffa3 	bl	800028c <Delay_milli.isra.0>
 8000346:	4620      	mov	r0, r4
 8000348:	21ef      	movs	r1, #239	@ 0xef
 800034a:	f7ff ff45 	bl	80001d8 <write_command>
 800034e:	4620      	mov	r0, r4
 8000350:	21eb      	movs	r1, #235	@ 0xeb
 8000352:	f7ff ff41 	bl	80001d8 <write_command>
 8000356:	4620      	mov	r0, r4
 8000358:	2114      	movs	r1, #20
 800035a:	f7ff ff85 	bl	8000268 <GC9A01_write_byte>
 800035e:	4620      	mov	r0, r4
 8000360:	21fe      	movs	r1, #254	@ 0xfe
 8000362:	f7ff ff39 	bl	80001d8 <write_command>
 8000366:	4620      	mov	r0, r4
 8000368:	21ef      	movs	r1, #239	@ 0xef
 800036a:	f7ff ff35 	bl	80001d8 <write_command>
 800036e:	4620      	mov	r0, r4
 8000370:	21eb      	movs	r1, #235	@ 0xeb
 8000372:	f7ff ff31 	bl	80001d8 <write_command>
 8000376:	4620      	mov	r0, r4
 8000378:	2114      	movs	r1, #20
 800037a:	f7ff ff75 	bl	8000268 <GC9A01_write_byte>
 800037e:	4620      	mov	r0, r4
 8000380:	2184      	movs	r1, #132	@ 0x84
 8000382:	f7ff ff29 	bl	80001d8 <write_command>
 8000386:	4620      	mov	r0, r4
 8000388:	2140      	movs	r1, #64	@ 0x40
 800038a:	f7ff ff6d 	bl	8000268 <GC9A01_write_byte>
 800038e:	4620      	mov	r0, r4
 8000390:	2185      	movs	r1, #133	@ 0x85
 8000392:	f7ff ff21 	bl	80001d8 <write_command>
 8000396:	4620      	mov	r0, r4
 8000398:	21ff      	movs	r1, #255	@ 0xff
 800039a:	f7ff ff65 	bl	8000268 <GC9A01_write_byte>
 800039e:	4620      	mov	r0, r4
 80003a0:	2186      	movs	r1, #134	@ 0x86
 80003a2:	f7ff ff19 	bl	80001d8 <write_command>
 80003a6:	4620      	mov	r0, r4
 80003a8:	21ff      	movs	r1, #255	@ 0xff
 80003aa:	f7ff ff5d 	bl	8000268 <GC9A01_write_byte>
 80003ae:	4620      	mov	r0, r4
 80003b0:	2187      	movs	r1, #135	@ 0x87
 80003b2:	f7ff ff11 	bl	80001d8 <write_command>
 80003b6:	4620      	mov	r0, r4
 80003b8:	21ff      	movs	r1, #255	@ 0xff
 80003ba:	f7ff ff55 	bl	8000268 <GC9A01_write_byte>
 80003be:	4620      	mov	r0, r4
 80003c0:	2188      	movs	r1, #136	@ 0x88
 80003c2:	f7ff ff09 	bl	80001d8 <write_command>
 80003c6:	4620      	mov	r0, r4
 80003c8:	210a      	movs	r1, #10
 80003ca:	f7ff ff4d 	bl	8000268 <GC9A01_write_byte>
 80003ce:	4620      	mov	r0, r4
 80003d0:	2189      	movs	r1, #137	@ 0x89
 80003d2:	f7ff ff01 	bl	80001d8 <write_command>
 80003d6:	4620      	mov	r0, r4
 80003d8:	2121      	movs	r1, #33	@ 0x21
 80003da:	f7ff ff45 	bl	8000268 <GC9A01_write_byte>
 80003de:	4620      	mov	r0, r4
 80003e0:	218a      	movs	r1, #138	@ 0x8a
 80003e2:	f7ff fef9 	bl	80001d8 <write_command>
 80003e6:	4629      	mov	r1, r5
 80003e8:	4620      	mov	r0, r4
 80003ea:	f7ff ff3d 	bl	8000268 <GC9A01_write_byte>
 80003ee:	4620      	mov	r0, r4
 80003f0:	218b      	movs	r1, #139	@ 0x8b
 80003f2:	f7ff fef1 	bl	80001d8 <write_command>
 80003f6:	4620      	mov	r0, r4
 80003f8:	2180      	movs	r1, #128	@ 0x80
 80003fa:	f7ff ff35 	bl	8000268 <GC9A01_write_byte>
 80003fe:	4620      	mov	r0, r4
 8000400:	218c      	movs	r1, #140	@ 0x8c
 8000402:	f7ff fee9 	bl	80001d8 <write_command>
 8000406:	4631      	mov	r1, r6
 8000408:	4620      	mov	r0, r4
 800040a:	f7ff ff2d 	bl	8000268 <GC9A01_write_byte>
 800040e:	4620      	mov	r0, r4
 8000410:	218d      	movs	r1, #141	@ 0x8d
 8000412:	f7ff fee1 	bl	80001d8 <write_command>
 8000416:	4631      	mov	r1, r6
 8000418:	4620      	mov	r0, r4
 800041a:	f7ff ff25 	bl	8000268 <GC9A01_write_byte>
 800041e:	4620      	mov	r0, r4
 8000420:	218e      	movs	r1, #142	@ 0x8e
 8000422:	f7ff fed9 	bl	80001d8 <write_command>
 8000426:	4620      	mov	r0, r4
 8000428:	21ff      	movs	r1, #255	@ 0xff
 800042a:	f7ff ff1d 	bl	8000268 <GC9A01_write_byte>
 800042e:	4620      	mov	r0, r4
 8000430:	218f      	movs	r1, #143	@ 0x8f
 8000432:	f7ff fed1 	bl	80001d8 <write_command>
 8000436:	4620      	mov	r0, r4
 8000438:	21ff      	movs	r1, #255	@ 0xff
 800043a:	f7ff ff15 	bl	8000268 <GC9A01_write_byte>
 800043e:	4620      	mov	r0, r4
 8000440:	21b6      	movs	r1, #182	@ 0xb6
 8000442:	f7ff fec9 	bl	80001d8 <write_command>
 8000446:	4629      	mov	r1, r5
 8000448:	4620      	mov	r0, r4
 800044a:	f7ff ff0d 	bl	8000268 <GC9A01_write_byte>
 800044e:	4629      	mov	r1, r5
 8000450:	4620      	mov	r0, r4
 8000452:	f7ff ff09 	bl	8000268 <GC9A01_write_byte>
 8000456:	4620      	mov	r0, r4
 8000458:	2136      	movs	r1, #54	@ 0x36
 800045a:	f7ff febd 	bl	80001d8 <write_command>
 800045e:	4620      	mov	r0, r4
 8000460:	2118      	movs	r1, #24
 8000462:	f7ff ff01 	bl	8000268 <GC9A01_write_byte>
 8000466:	4620      	mov	r0, r4
 8000468:	213a      	movs	r1, #58	@ 0x3a
 800046a:	f7ff feb5 	bl	80001d8 <write_command>
 800046e:	4620      	mov	r0, r4
 8000470:	2105      	movs	r1, #5
 8000472:	f7ff fef9 	bl	8000268 <GC9A01_write_byte>
 8000476:	4620      	mov	r0, r4
 8000478:	2190      	movs	r1, #144	@ 0x90
 800047a:	f7ff fead 	bl	80001d8 <write_command>
 800047e:	4620      	mov	r0, r4
 8000480:	2108      	movs	r1, #8
 8000482:	f7ff fef1 	bl	8000268 <GC9A01_write_byte>
 8000486:	4620      	mov	r0, r4
 8000488:	2108      	movs	r1, #8
 800048a:	f7ff feed 	bl	8000268 <GC9A01_write_byte>
 800048e:	4620      	mov	r0, r4
 8000490:	2108      	movs	r1, #8
 8000492:	f7ff fee9 	bl	8000268 <GC9A01_write_byte>
 8000496:	4620      	mov	r0, r4
 8000498:	2108      	movs	r1, #8
 800049a:	f7ff fee5 	bl	8000268 <GC9A01_write_byte>
 800049e:	4620      	mov	r0, r4
 80004a0:	21bd      	movs	r1, #189	@ 0xbd
 80004a2:	f7ff fe99 	bl	80001d8 <write_command>
 80004a6:	4620      	mov	r0, r4
 80004a8:	2106      	movs	r1, #6
 80004aa:	f7ff fedd 	bl	8000268 <GC9A01_write_byte>
 80004ae:	4620      	mov	r0, r4
 80004b0:	21bc      	movs	r1, #188	@ 0xbc
 80004b2:	f7ff fe91 	bl	80001d8 <write_command>
 80004b6:	4629      	mov	r1, r5
 80004b8:	4620      	mov	r0, r4
 80004ba:	f7ff fed5 	bl	8000268 <GC9A01_write_byte>
 80004be:	4620      	mov	r0, r4
 80004c0:	21ff      	movs	r1, #255	@ 0xff
 80004c2:	f7ff fe89 	bl	80001d8 <write_command>
 80004c6:	4620      	mov	r0, r4
 80004c8:	2160      	movs	r1, #96	@ 0x60
 80004ca:	f7ff fecd 	bl	8000268 <GC9A01_write_byte>
 80004ce:	4631      	mov	r1, r6
 80004d0:	4620      	mov	r0, r4
 80004d2:	f7ff fec9 	bl	8000268 <GC9A01_write_byte>
 80004d6:	4620      	mov	r0, r4
 80004d8:	2104      	movs	r1, #4
 80004da:	f7ff fec5 	bl	8000268 <GC9A01_write_byte>
 80004de:	4620      	mov	r0, r4
 80004e0:	21c3      	movs	r1, #195	@ 0xc3
 80004e2:	f7ff fe79 	bl	80001d8 <write_command>
 80004e6:	4620      	mov	r0, r4
 80004e8:	2113      	movs	r1, #19
 80004ea:	f7ff febd 	bl	8000268 <GC9A01_write_byte>
 80004ee:	4620      	mov	r0, r4
 80004f0:	21c4      	movs	r1, #196	@ 0xc4
 80004f2:	f7ff fe71 	bl	80001d8 <write_command>
 80004f6:	4620      	mov	r0, r4
 80004f8:	2113      	movs	r1, #19
 80004fa:	f7ff feb5 	bl	8000268 <GC9A01_write_byte>
 80004fe:	4620      	mov	r0, r4
 8000500:	21c9      	movs	r1, #201	@ 0xc9
 8000502:	f7ff fe69 	bl	80001d8 <write_command>
 8000506:	4620      	mov	r0, r4
 8000508:	2122      	movs	r1, #34	@ 0x22
 800050a:	f7ff fead 	bl	8000268 <GC9A01_write_byte>
 800050e:	4620      	mov	r0, r4
 8000510:	21be      	movs	r1, #190	@ 0xbe
 8000512:	f7ff fe61 	bl	80001d8 <write_command>
 8000516:	4620      	mov	r0, r4
 8000518:	2111      	movs	r1, #17
 800051a:	f7ff fea5 	bl	8000268 <GC9A01_write_byte>
 800051e:	4620      	mov	r0, r4
 8000520:	21e1      	movs	r1, #225	@ 0xe1
 8000522:	f7ff fe59 	bl	80001d8 <write_command>
 8000526:	4620      	mov	r0, r4
 8000528:	2110      	movs	r1, #16
 800052a:	f7ff fe9d 	bl	8000268 <GC9A01_write_byte>
 800052e:	4620      	mov	r0, r4
 8000530:	210e      	movs	r1, #14
 8000532:	f7ff fe99 	bl	8000268 <GC9A01_write_byte>
 8000536:	4620      	mov	r0, r4
 8000538:	21df      	movs	r1, #223	@ 0xdf
 800053a:	f7ff fe4d 	bl	80001d8 <write_command>
 800053e:	4620      	mov	r0, r4
 8000540:	2121      	movs	r1, #33	@ 0x21
 8000542:	f7ff fe91 	bl	8000268 <GC9A01_write_byte>
 8000546:	4620      	mov	r0, r4
 8000548:	210c      	movs	r1, #12
 800054a:	f7ff fe8d 	bl	8000268 <GC9A01_write_byte>
 800054e:	4620      	mov	r0, r4
 8000550:	2102      	movs	r1, #2
 8000552:	f7ff fe89 	bl	8000268 <GC9A01_write_byte>
 8000556:	4620      	mov	r0, r4
 8000558:	21f0      	movs	r1, #240	@ 0xf0
 800055a:	f7ff fe3d 	bl	80001d8 <write_command>
 800055e:	4620      	mov	r0, r4
 8000560:	2145      	movs	r1, #69	@ 0x45
 8000562:	f7ff fe81 	bl	8000268 <GC9A01_write_byte>
 8000566:	4620      	mov	r0, r4
 8000568:	2109      	movs	r1, #9
 800056a:	f7ff fe7d 	bl	8000268 <GC9A01_write_byte>
 800056e:	4620      	mov	r0, r4
 8000570:	2108      	movs	r1, #8
 8000572:	f7ff fe79 	bl	8000268 <GC9A01_write_byte>
 8000576:	4620      	mov	r0, r4
 8000578:	2108      	movs	r1, #8
 800057a:	f7ff fe75 	bl	8000268 <GC9A01_write_byte>
 800057e:	4620      	mov	r0, r4
 8000580:	2126      	movs	r1, #38	@ 0x26
 8000582:	f7ff fe71 	bl	8000268 <GC9A01_write_byte>
 8000586:	4620      	mov	r0, r4
 8000588:	212a      	movs	r1, #42	@ 0x2a
 800058a:	f7ff fe6d 	bl	8000268 <GC9A01_write_byte>
 800058e:	4620      	mov	r0, r4
 8000590:	21f1      	movs	r1, #241	@ 0xf1
 8000592:	f7ff fe21 	bl	80001d8 <write_command>
 8000596:	4620      	mov	r0, r4
 8000598:	2143      	movs	r1, #67	@ 0x43
 800059a:	f7ff fe65 	bl	8000268 <GC9A01_write_byte>
 800059e:	4620      	mov	r0, r4
 80005a0:	2170      	movs	r1, #112	@ 0x70
 80005a2:	f7ff fe61 	bl	8000268 <GC9A01_write_byte>
 80005a6:	4620      	mov	r0, r4
 80005a8:	2172      	movs	r1, #114	@ 0x72
 80005aa:	f7ff fe5d 	bl	8000268 <GC9A01_write_byte>
 80005ae:	4620      	mov	r0, r4
 80005b0:	2136      	movs	r1, #54	@ 0x36
 80005b2:	f7ff fe59 	bl	8000268 <GC9A01_write_byte>
 80005b6:	4620      	mov	r0, r4
 80005b8:	2137      	movs	r1, #55	@ 0x37
 80005ba:	f7ff fe55 	bl	8000268 <GC9A01_write_byte>
 80005be:	4620      	mov	r0, r4
 80005c0:	216f      	movs	r1, #111	@ 0x6f
 80005c2:	f7ff fe51 	bl	8000268 <GC9A01_write_byte>
 80005c6:	4620      	mov	r0, r4
 80005c8:	21f2      	movs	r1, #242	@ 0xf2
 80005ca:	f7ff fe05 	bl	80001d8 <write_command>
 80005ce:	4620      	mov	r0, r4
 80005d0:	2145      	movs	r1, #69	@ 0x45
 80005d2:	f7ff fe49 	bl	8000268 <GC9A01_write_byte>
 80005d6:	4620      	mov	r0, r4
 80005d8:	2109      	movs	r1, #9
 80005da:	f7ff fe45 	bl	8000268 <GC9A01_write_byte>
 80005de:	4620      	mov	r0, r4
 80005e0:	2108      	movs	r1, #8
 80005e2:	f7ff fe41 	bl	8000268 <GC9A01_write_byte>
 80005e6:	4620      	mov	r0, r4
 80005e8:	2108      	movs	r1, #8
 80005ea:	f7ff fe3d 	bl	8000268 <GC9A01_write_byte>
 80005ee:	4620      	mov	r0, r4
 80005f0:	2126      	movs	r1, #38	@ 0x26
 80005f2:	f7ff fe39 	bl	8000268 <GC9A01_write_byte>
 80005f6:	4620      	mov	r0, r4
 80005f8:	212a      	movs	r1, #42	@ 0x2a
 80005fa:	f7ff fe35 	bl	8000268 <GC9A01_write_byte>
 80005fe:	4620      	mov	r0, r4
 8000600:	21f3      	movs	r1, #243	@ 0xf3
 8000602:	f7ff fde9 	bl	80001d8 <write_command>
 8000606:	4620      	mov	r0, r4
 8000608:	2143      	movs	r1, #67	@ 0x43
 800060a:	f7ff fe2d 	bl	8000268 <GC9A01_write_byte>
 800060e:	4620      	mov	r0, r4
 8000610:	2170      	movs	r1, #112	@ 0x70
 8000612:	f7ff fe29 	bl	8000268 <GC9A01_write_byte>
 8000616:	4620      	mov	r0, r4
 8000618:	2172      	movs	r1, #114	@ 0x72
 800061a:	f7ff fe25 	bl	8000268 <GC9A01_write_byte>
 800061e:	4620      	mov	r0, r4
 8000620:	2136      	movs	r1, #54	@ 0x36
 8000622:	f7ff fe21 	bl	8000268 <GC9A01_write_byte>
 8000626:	4620      	mov	r0, r4
 8000628:	2137      	movs	r1, #55	@ 0x37
 800062a:	f7ff fe1d 	bl	8000268 <GC9A01_write_byte>
 800062e:	4620      	mov	r0, r4
 8000630:	216f      	movs	r1, #111	@ 0x6f
 8000632:	f7ff fe19 	bl	8000268 <GC9A01_write_byte>
 8000636:	4620      	mov	r0, r4
 8000638:	21ed      	movs	r1, #237	@ 0xed
 800063a:	f7ff fdcd 	bl	80001d8 <write_command>
 800063e:	4620      	mov	r0, r4
 8000640:	211b      	movs	r1, #27
 8000642:	f7ff fe11 	bl	8000268 <GC9A01_write_byte>
 8000646:	4620      	mov	r0, r4
 8000648:	210b      	movs	r1, #11
 800064a:	f7ff fe0d 	bl	8000268 <GC9A01_write_byte>
 800064e:	4620      	mov	r0, r4
 8000650:	21ae      	movs	r1, #174	@ 0xae
 8000652:	f7ff fdc1 	bl	80001d8 <write_command>
 8000656:	4620      	mov	r0, r4
 8000658:	2177      	movs	r1, #119	@ 0x77
 800065a:	f7ff fe05 	bl	8000268 <GC9A01_write_byte>
 800065e:	4620      	mov	r0, r4
 8000660:	21cd      	movs	r1, #205	@ 0xcd
 8000662:	f7ff fdb9 	bl	80001d8 <write_command>
 8000666:	4620      	mov	r0, r4
 8000668:	2163      	movs	r1, #99	@ 0x63
 800066a:	f7ff fdfd 	bl	8000268 <GC9A01_write_byte>
 800066e:	4620      	mov	r0, r4
 8000670:	2170      	movs	r1, #112	@ 0x70
 8000672:	f7ff fdb1 	bl	80001d8 <write_command>
 8000676:	4620      	mov	r0, r4
 8000678:	2107      	movs	r1, #7
 800067a:	f7ff fdf5 	bl	8000268 <GC9A01_write_byte>
 800067e:	4620      	mov	r0, r4
 8000680:	2107      	movs	r1, #7
 8000682:	f7ff fdf1 	bl	8000268 <GC9A01_write_byte>
 8000686:	4620      	mov	r0, r4
 8000688:	2104      	movs	r1, #4
 800068a:	f7ff fded 	bl	8000268 <GC9A01_write_byte>
 800068e:	4620      	mov	r0, r4
 8000690:	210e      	movs	r1, #14
 8000692:	f7ff fde9 	bl	8000268 <GC9A01_write_byte>
 8000696:	4620      	mov	r0, r4
 8000698:	210f      	movs	r1, #15
 800069a:	f7ff fde5 	bl	8000268 <GC9A01_write_byte>
 800069e:	4620      	mov	r0, r4
 80006a0:	2109      	movs	r1, #9
 80006a2:	f7ff fde1 	bl	8000268 <GC9A01_write_byte>
 80006a6:	4620      	mov	r0, r4
 80006a8:	2107      	movs	r1, #7
 80006aa:	f7ff fddd 	bl	8000268 <GC9A01_write_byte>
 80006ae:	4620      	mov	r0, r4
 80006b0:	2108      	movs	r1, #8
 80006b2:	f7ff fdd9 	bl	8000268 <GC9A01_write_byte>
 80006b6:	4649      	mov	r1, r9
 80006b8:	4620      	mov	r0, r4
 80006ba:	f7ff fdd5 	bl	8000268 <GC9A01_write_byte>
 80006be:	4620      	mov	r0, r4
 80006c0:	21e8      	movs	r1, #232	@ 0xe8
 80006c2:	f7ff fd89 	bl	80001d8 <write_command>
 80006c6:	4620      	mov	r0, r4
 80006c8:	2134      	movs	r1, #52	@ 0x34
 80006ca:	f7ff fdcd 	bl	8000268 <GC9A01_write_byte>
 80006ce:	4620      	mov	r0, r4
 80006d0:	2162      	movs	r1, #98	@ 0x62
 80006d2:	f7ff fd81 	bl	80001d8 <write_command>
 80006d6:	4620      	mov	r0, r4
 80006d8:	2118      	movs	r1, #24
 80006da:	f7ff fdc5 	bl	8000268 <GC9A01_write_byte>
 80006de:	4620      	mov	r0, r4
 80006e0:	210d      	movs	r1, #13
 80006e2:	f7ff fdc1 	bl	8000268 <GC9A01_write_byte>
 80006e6:	4620      	mov	r0, r4
 80006e8:	2171      	movs	r1, #113	@ 0x71
 80006ea:	f7ff fdbd 	bl	8000268 <GC9A01_write_byte>
 80006ee:	4620      	mov	r0, r4
 80006f0:	21ed      	movs	r1, #237	@ 0xed
 80006f2:	f7ff fdb9 	bl	8000268 <GC9A01_write_byte>
 80006f6:	4620      	mov	r0, r4
 80006f8:	2170      	movs	r1, #112	@ 0x70
 80006fa:	f7ff fdb5 	bl	8000268 <GC9A01_write_byte>
 80006fe:	4620      	mov	r0, r4
 8000700:	e004      	b.n	800070c <GC9A01_Init+0x44c>
 8000702:	bf00      	nop
 8000704:	43160000 	.word	0x43160000
 8000708:	42f00000 	.word	0x42f00000
 800070c:	2170      	movs	r1, #112	@ 0x70
 800070e:	f7ff fdab 	bl	8000268 <GC9A01_write_byte>
 8000712:	4620      	mov	r0, r4
 8000714:	2118      	movs	r1, #24
 8000716:	f7ff fda7 	bl	8000268 <GC9A01_write_byte>
 800071a:	4620      	mov	r0, r4
 800071c:	210f      	movs	r1, #15
 800071e:	f7ff fda3 	bl	8000268 <GC9A01_write_byte>
 8000722:	4620      	mov	r0, r4
 8000724:	2171      	movs	r1, #113	@ 0x71
 8000726:	f7ff fd9f 	bl	8000268 <GC9A01_write_byte>
 800072a:	4620      	mov	r0, r4
 800072c:	21ef      	movs	r1, #239	@ 0xef
 800072e:	f7ff fd9b 	bl	8000268 <GC9A01_write_byte>
 8000732:	4620      	mov	r0, r4
 8000734:	2170      	movs	r1, #112	@ 0x70
 8000736:	f7ff fd97 	bl	8000268 <GC9A01_write_byte>
 800073a:	4620      	mov	r0, r4
 800073c:	2170      	movs	r1, #112	@ 0x70
 800073e:	f7ff fd93 	bl	8000268 <GC9A01_write_byte>
 8000742:	4620      	mov	r0, r4
 8000744:	2163      	movs	r1, #99	@ 0x63
 8000746:	f7ff fd47 	bl	80001d8 <write_command>
 800074a:	4620      	mov	r0, r4
 800074c:	2118      	movs	r1, #24
 800074e:	f7ff fd8b 	bl	8000268 <GC9A01_write_byte>
 8000752:	4620      	mov	r0, r4
 8000754:	2111      	movs	r1, #17
 8000756:	f7ff fd87 	bl	8000268 <GC9A01_write_byte>
 800075a:	4620      	mov	r0, r4
 800075c:	2171      	movs	r1, #113	@ 0x71
 800075e:	f7ff fd83 	bl	8000268 <GC9A01_write_byte>
 8000762:	4620      	mov	r0, r4
 8000764:	21f1      	movs	r1, #241	@ 0xf1
 8000766:	f7ff fd7f 	bl	8000268 <GC9A01_write_byte>
 800076a:	4620      	mov	r0, r4
 800076c:	2170      	movs	r1, #112	@ 0x70
 800076e:	f7ff fd7b 	bl	8000268 <GC9A01_write_byte>
 8000772:	4620      	mov	r0, r4
 8000774:	2170      	movs	r1, #112	@ 0x70
 8000776:	f7ff fd77 	bl	8000268 <GC9A01_write_byte>
 800077a:	4620      	mov	r0, r4
 800077c:	2118      	movs	r1, #24
 800077e:	f7ff fd73 	bl	8000268 <GC9A01_write_byte>
 8000782:	4620      	mov	r0, r4
 8000784:	2113      	movs	r1, #19
 8000786:	f7ff fd6f 	bl	8000268 <GC9A01_write_byte>
 800078a:	4620      	mov	r0, r4
 800078c:	2171      	movs	r1, #113	@ 0x71
 800078e:	f7ff fd6b 	bl	8000268 <GC9A01_write_byte>
 8000792:	4620      	mov	r0, r4
 8000794:	21f3      	movs	r1, #243	@ 0xf3
 8000796:	f7ff fd67 	bl	8000268 <GC9A01_write_byte>
 800079a:	4620      	mov	r0, r4
 800079c:	2170      	movs	r1, #112	@ 0x70
 800079e:	f7ff fd63 	bl	8000268 <GC9A01_write_byte>
 80007a2:	4620      	mov	r0, r4
 80007a4:	2170      	movs	r1, #112	@ 0x70
 80007a6:	f7ff fd5f 	bl	8000268 <GC9A01_write_byte>
 80007aa:	4620      	mov	r0, r4
 80007ac:	2164      	movs	r1, #100	@ 0x64
 80007ae:	f7ff fd13 	bl	80001d8 <write_command>
 80007b2:	4620      	mov	r0, r4
 80007b4:	2128      	movs	r1, #40	@ 0x28
 80007b6:	f7ff fd57 	bl	8000268 <GC9A01_write_byte>
 80007ba:	4620      	mov	r0, r4
 80007bc:	2129      	movs	r1, #41	@ 0x29
 80007be:	f7ff fd53 	bl	8000268 <GC9A01_write_byte>
 80007c2:	4620      	mov	r0, r4
 80007c4:	21f1      	movs	r1, #241	@ 0xf1
 80007c6:	f7ff fd4f 	bl	8000268 <GC9A01_write_byte>
 80007ca:	4631      	mov	r1, r6
 80007cc:	4620      	mov	r0, r4
 80007ce:	f7ff fd4b 	bl	8000268 <GC9A01_write_byte>
 80007d2:	4620      	mov	r0, r4
 80007d4:	21f1      	movs	r1, #241	@ 0xf1
 80007d6:	f7ff fd47 	bl	8000268 <GC9A01_write_byte>
 80007da:	4629      	mov	r1, r5
 80007dc:	4620      	mov	r0, r4
 80007de:	f7ff fd43 	bl	8000268 <GC9A01_write_byte>
 80007e2:	4620      	mov	r0, r4
 80007e4:	2107      	movs	r1, #7
 80007e6:	f7ff fd3f 	bl	8000268 <GC9A01_write_byte>
 80007ea:	4620      	mov	r0, r4
 80007ec:	2166      	movs	r1, #102	@ 0x66
 80007ee:	f7ff fcf3 	bl	80001d8 <write_command>
 80007f2:	4620      	mov	r0, r4
 80007f4:	213c      	movs	r1, #60	@ 0x3c
 80007f6:	f7ff fd37 	bl	8000268 <GC9A01_write_byte>
 80007fa:	4629      	mov	r1, r5
 80007fc:	4620      	mov	r0, r4
 80007fe:	f7ff fd33 	bl	8000268 <GC9A01_write_byte>
 8000802:	4620      	mov	r0, r4
 8000804:	21cd      	movs	r1, #205	@ 0xcd
 8000806:	f7ff fd2f 	bl	8000268 <GC9A01_write_byte>
 800080a:	4620      	mov	r0, r4
 800080c:	2167      	movs	r1, #103	@ 0x67
 800080e:	f7ff fd2b 	bl	8000268 <GC9A01_write_byte>
 8000812:	4620      	mov	r0, r4
 8000814:	2145      	movs	r1, #69	@ 0x45
 8000816:	f7ff fd27 	bl	8000268 <GC9A01_write_byte>
 800081a:	4620      	mov	r0, r4
 800081c:	2145      	movs	r1, #69	@ 0x45
 800081e:	f7ff fd23 	bl	8000268 <GC9A01_write_byte>
 8000822:	4620      	mov	r0, r4
 8000824:	2110      	movs	r1, #16
 8000826:	f7ff fd1f 	bl	8000268 <GC9A01_write_byte>
 800082a:	4629      	mov	r1, r5
 800082c:	4620      	mov	r0, r4
 800082e:	f7ff fd1b 	bl	8000268 <GC9A01_write_byte>
 8000832:	4629      	mov	r1, r5
 8000834:	4620      	mov	r0, r4
 8000836:	f7ff fd17 	bl	8000268 <GC9A01_write_byte>
 800083a:	4629      	mov	r1, r5
 800083c:	4620      	mov	r0, r4
 800083e:	f7ff fd13 	bl	8000268 <GC9A01_write_byte>
 8000842:	4620      	mov	r0, r4
 8000844:	2167      	movs	r1, #103	@ 0x67
 8000846:	f7ff fcc7 	bl	80001d8 <write_command>
 800084a:	4629      	mov	r1, r5
 800084c:	4620      	mov	r0, r4
 800084e:	f7ff fd0b 	bl	8000268 <GC9A01_write_byte>
 8000852:	4620      	mov	r0, r4
 8000854:	213c      	movs	r1, #60	@ 0x3c
 8000856:	f7ff fd07 	bl	8000268 <GC9A01_write_byte>
 800085a:	4629      	mov	r1, r5
 800085c:	4620      	mov	r0, r4
 800085e:	f7ff fd03 	bl	8000268 <GC9A01_write_byte>
 8000862:	4629      	mov	r1, r5
 8000864:	4620      	mov	r0, r4
 8000866:	f7ff fcff 	bl	8000268 <GC9A01_write_byte>
 800086a:	4629      	mov	r1, r5
 800086c:	4620      	mov	r0, r4
 800086e:	f7ff fcfb 	bl	8000268 <GC9A01_write_byte>
 8000872:	4631      	mov	r1, r6
 8000874:	4620      	mov	r0, r4
 8000876:	f7ff fcf7 	bl	8000268 <GC9A01_write_byte>
 800087a:	4620      	mov	r0, r4
 800087c:	2154      	movs	r1, #84	@ 0x54
 800087e:	f7ff fcf3 	bl	8000268 <GC9A01_write_byte>
 8000882:	4620      	mov	r0, r4
 8000884:	2110      	movs	r1, #16
 8000886:	f7ff fcef 	bl	8000268 <GC9A01_write_byte>
 800088a:	4620      	mov	r0, r4
 800088c:	2132      	movs	r1, #50	@ 0x32
 800088e:	f7ff fceb 	bl	8000268 <GC9A01_write_byte>
 8000892:	4620      	mov	r0, r4
 8000894:	2198      	movs	r1, #152	@ 0x98
 8000896:	f7ff fce7 	bl	8000268 <GC9A01_write_byte>
 800089a:	4620      	mov	r0, r4
 800089c:	2174      	movs	r1, #116	@ 0x74
 800089e:	f7ff fc9b 	bl	80001d8 <write_command>
 80008a2:	4620      	mov	r0, r4
 80008a4:	2110      	movs	r1, #16
 80008a6:	f7ff fcdf 	bl	8000268 <GC9A01_write_byte>
 80008aa:	4620      	mov	r0, r4
 80008ac:	2185      	movs	r1, #133	@ 0x85
 80008ae:	f7ff fcdb 	bl	8000268 <GC9A01_write_byte>
 80008b2:	4620      	mov	r0, r4
 80008b4:	2180      	movs	r1, #128	@ 0x80
 80008b6:	f7ff fcd7 	bl	8000268 <GC9A01_write_byte>
 80008ba:	4629      	mov	r1, r5
 80008bc:	4620      	mov	r0, r4
 80008be:	f7ff fcd3 	bl	8000268 <GC9A01_write_byte>
 80008c2:	4629      	mov	r1, r5
 80008c4:	4620      	mov	r0, r4
 80008c6:	f7ff fccf 	bl	8000268 <GC9A01_write_byte>
 80008ca:	4620      	mov	r0, r4
 80008cc:	214e      	movs	r1, #78	@ 0x4e
 80008ce:	f7ff fccb 	bl	8000268 <GC9A01_write_byte>
 80008d2:	4629      	mov	r1, r5
 80008d4:	4620      	mov	r0, r4
 80008d6:	f7ff fcc7 	bl	8000268 <GC9A01_write_byte>
 80008da:	4620      	mov	r0, r4
 80008dc:	2198      	movs	r1, #152	@ 0x98
 80008de:	f7ff fc7b 	bl	80001d8 <write_command>
 80008e2:	4620      	mov	r0, r4
 80008e4:	213e      	movs	r1, #62	@ 0x3e
 80008e6:	f7ff fcbf 	bl	8000268 <GC9A01_write_byte>
 80008ea:	4620      	mov	r0, r4
 80008ec:	2107      	movs	r1, #7
 80008ee:	f7ff fcbb 	bl	8000268 <GC9A01_write_byte>
 80008f2:	4620      	mov	r0, r4
 80008f4:	2135      	movs	r1, #53	@ 0x35
 80008f6:	f7ff fc6f 	bl	80001d8 <write_command>
 80008fa:	4620      	mov	r0, r4
 80008fc:	2121      	movs	r1, #33	@ 0x21
 80008fe:	f7ff fc6b 	bl	80001d8 <write_command>
 8000902:	4620      	mov	r0, r4
 8000904:	2111      	movs	r1, #17
 8000906:	f7ff fc67 	bl	80001d8 <write_command>
 800090a:	ed1f 0a81 	vldr	s0, [pc, #-516]	@ 8000708 <GC9A01_Init+0x448>
 800090e:	f7ff fcbd 	bl	800028c <Delay_milli.isra.0>
 8000912:	2129      	movs	r1, #41	@ 0x29
 8000914:	4620      	mov	r0, r4
 8000916:	f7ff fc5f 	bl	80001d8 <write_command>
 800091a:	eeb3 0a04 	vmov.f32	s0, #52	@ 0x41a00000  20.0
 800091e:	b005      	add	sp, #20
 8000920:	e8bd 43f0 	ldmia.w	sp!, {r4, r5, r6, r7, r8, r9, lr}
 8000924:	f7ff bcb2 	b.w	800028c <Delay_milli.isra.0>

08000928 <GC9A01_SetAddressWindow>:
 8000928:	e92d 41f3 	stmdb	sp!, {r0, r1, r4, r5, r6, r7, r8, lr}
 800092c:	460f      	mov	r7, r1
 800092e:	212a      	movs	r1, #42	@ 0x2a
 8000930:	4604      	mov	r4, r0
 8000932:	461e      	mov	r6, r3
 8000934:	f8bd 8020 	ldrh.w	r8, [sp, #32]
 8000938:	4615      	mov	r5, r2
 800093a:	f7ff fc4d 	bl	80001d8 <write_command>
 800093e:	2204      	movs	r2, #4
 8000940:	eb0d 0102 	add.w	r1, sp, r2
 8000944:	4620      	mov	r0, r4
 8000946:	ba7f      	rev16	r7, r7
 8000948:	ba76      	rev16	r6, r6
 800094a:	f8ad 7004 	strh.w	r7, [sp, #4]
 800094e:	f8ad 6006 	strh.w	r6, [sp, #6]
 8000952:	f7ff fc58 	bl	8000206 <GC9A01_Write_Data>
 8000956:	4620      	mov	r0, r4
 8000958:	212b      	movs	r1, #43	@ 0x2b
 800095a:	f7ff fc3d 	bl	80001d8 <write_command>
 800095e:	2204      	movs	r2, #4
 8000960:	eb0d 0102 	add.w	r1, sp, r2
 8000964:	4620      	mov	r0, r4
 8000966:	ba6d      	rev16	r5, r5
 8000968:	fa98 f898 	rev16.w	r8, r8
 800096c:	f8ad 5004 	strh.w	r5, [sp, #4]
 8000970:	f8ad 8006 	strh.w	r8, [sp, #6]
 8000974:	f7ff fc47 	bl	8000206 <GC9A01_Write_Data>
 8000978:	212c      	movs	r1, #44	@ 0x2c
 800097a:	4620      	mov	r0, r4
 800097c:	b002      	add	sp, #8
 800097e:	e8bd 41f0 	ldmia.w	sp!, {r4, r5, r6, r7, r8, lr}
 8000982:	f7ff bc29 	b.w	80001d8 <write_command>

08000986 <GC9A01_PushColor>:
 8000986:	b507      	push	{r0, r1, r2, lr}
 8000988:	ba49      	rev16	r1, r1
 800098a:	f8ad 1004 	strh.w	r1, [sp, #4]
 800098e:	2202      	movs	r2, #2
 8000990:	a901      	add	r1, sp, #4
 8000992:	f7ff fc38 	bl	8000206 <GC9A01_Write_Data>
 8000996:	b003      	add	sp, #12
 8000998:	f85d fb04 	ldr.w	pc, [sp], #4

0800099c <GC9A01_DrawPixel>:
 800099c:	29ef      	cmp	r1, #239	@ 0xef
 800099e:	b5f7      	push	{r0, r1, r2, r4, r5, r6, r7, lr}
 80009a0:	4606      	mov	r6, r0
 80009a2:	461f      	mov	r7, r3
 80009a4:	d80c      	bhi.n	80009c0 <GC9A01_DrawPixel+0x24>
 80009a6:	2aef      	cmp	r2, #239	@ 0xef
 80009a8:	d80a      	bhi.n	80009c0 <GC9A01_DrawPixel+0x24>
 80009aa:	460b      	mov	r3, r1
 80009ac:	9200      	str	r2, [sp, #0]
 80009ae:	f7ff ffbb 	bl	8000928 <GC9A01_SetAddressWindow>
 80009b2:	4639      	mov	r1, r7
 80009b4:	4630      	mov	r0, r6
 80009b6:	b003      	add	sp, #12
 80009b8:	e8bd 40f0 	ldmia.w	sp!, {r4, r5, r6, r7, lr}
 80009bc:	f7ff bfe3 	b.w	8000986 <GC9A01_PushColor>
 80009c0:	b003      	add	sp, #12
 80009c2:	bdf0      	pop	{r4, r5, r6, r7, pc}

080009c4 <GC9A01_Fill>:
 80009c4:	b537      	push	{r0, r1, r2, r4, r5, lr}
 80009c6:	23ef      	movs	r3, #239	@ 0xef
 80009c8:	2200      	movs	r2, #0
 80009ca:	460d      	mov	r5, r1
 80009cc:	9300      	str	r3, [sp, #0]
 80009ce:	4611      	mov	r1, r2
 80009d0:	4604      	mov	r4, r0
 80009d2:	f7ff ffa9 	bl	8000928 <GC9A01_SetAddressWindow>
 80009d6:	f44f 4261 	mov.w	r2, #57600	@ 0xe100
 80009da:	4629      	mov	r1, r5
 80009dc:	4620      	mov	r0, r4
 80009de:	b003      	add	sp, #12
 80009e0:	e8bd 4030 	ldmia.w	sp!, {r4, r5, lr}
 80009e4:	f7ff bc25 	b.w	8000232 <GC9A01_Drite_Data16_Repeat>

080009e8 <GC9A01_DrawChar>:
 80009e8:	e92d 4ff7 	stmdb	sp!, {r0, r1, r2, r4, r5, r6, r7, r8, r9, sl, fp, lr}
 80009ec:	4617      	mov	r7, r2
 80009ee:	f1a3 0220 	sub.w	r2, r3, #32
 80009f2:	2a5e      	cmp	r2, #94	@ 0x5e
 80009f4:	bf88      	it	hi
 80009f6:	233f      	movhi	r3, #63	@ 0x3f
 80009f8:	4a1d      	ldr	r2, [pc, #116]	@ (8000a70 <GC9A01_DrawChar+0x88>)
 80009fa:	f8bd b030 	ldrh.w	fp, [sp, #48]	@ 0x30
 80009fe:	f8bd a034 	ldrh.w	sl, [sp, #52]	@ 0x34
 8000a02:	3b20      	subs	r3, #32
 8000a04:	eb03 0383 	add.w	r3, r3, r3, lsl #2
 8000a08:	4413      	add	r3, r2
 8000a0a:	4606      	mov	r6, r0
 8000a0c:	460c      	mov	r4, r1
 8000a0e:	9300      	str	r3, [sp, #0]
 8000a10:	2500      	movs	r5, #0
 8000a12:	9b00      	ldr	r3, [sp, #0]
 8000a14:	1961      	adds	r1, r4, r5
 8000a16:	f813 9005 	ldrb.w	r9, [r3, r5]
 8000a1a:	f04f 0800 	mov.w	r8, #0
 8000a1e:	b289      	uxth	r1, r1
 8000a20:	f019 0f01 	tst.w	r9, #1
 8000a24:	eb07 0208 	add.w	r2, r7, r8
 8000a28:	bf14      	ite	ne
 8000a2a:	465b      	movne	r3, fp
 8000a2c:	4653      	moveq	r3, sl
 8000a2e:	b292      	uxth	r2, r2
 8000a30:	4630      	mov	r0, r6
 8000a32:	f108 0801 	add.w	r8, r8, #1
 8000a36:	9101      	str	r1, [sp, #4]
 8000a38:	f7ff ffb0 	bl	800099c <GC9A01_DrawPixel>
 8000a3c:	f1b8 0f08 	cmp.w	r8, #8
 8000a40:	9901      	ldr	r1, [sp, #4]
 8000a42:	ea4f 0959 	mov.w	r9, r9, lsr #1
 8000a46:	d1eb      	bne.n	8000a20 <GC9A01_DrawChar+0x38>
 8000a48:	3501      	adds	r5, #1
 8000a4a:	2d05      	cmp	r5, #5
 8000a4c:	d1e1      	bne.n	8000a12 <GC9A01_DrawChar+0x2a>
 8000a4e:	3405      	adds	r4, #5
 8000a50:	2500      	movs	r5, #0
 8000a52:	b2a4      	uxth	r4, r4
 8000a54:	197a      	adds	r2, r7, r5
 8000a56:	4653      	mov	r3, sl
 8000a58:	b292      	uxth	r2, r2
 8000a5a:	4621      	mov	r1, r4
 8000a5c:	4630      	mov	r0, r6
 8000a5e:	3501      	adds	r5, #1
 8000a60:	f7ff ff9c 	bl	800099c <GC9A01_DrawPixel>
 8000a64:	2d08      	cmp	r5, #8
 8000a66:	d1f5      	bne.n	8000a54 <GC9A01_DrawChar+0x6c>
 8000a68:	b003      	add	sp, #12
 8000a6a:	e8bd 8ff0 	ldmia.w	sp!, {r4, r5, r6, r7, r8, r9, sl, fp, pc}
 8000a6e:	bf00      	nop
 8000a70:	08003040 	.word	0x08003040

08000a74 <GC9A01_EraseChar>:
 8000a74:	b573      	push	{r0, r1, r4, r5, r6, lr}
 8000a76:	1dd4      	adds	r4, r2, #7
 8000a78:	461e      	mov	r6, r3
 8000a7a:	b2a4      	uxth	r4, r4
 8000a7c:	1d4b      	adds	r3, r1, #5
 8000a7e:	9400      	str	r4, [sp, #0]
 8000a80:	b29b      	uxth	r3, r3
 8000a82:	4605      	mov	r5, r0
 8000a84:	f7ff ff50 	bl	8000928 <GC9A01_SetAddressWindow>
 8000a88:	2230      	movs	r2, #48	@ 0x30
 8000a8a:	4631      	mov	r1, r6
 8000a8c:	4628      	mov	r0, r5
 8000a8e:	b002      	add	sp, #8
 8000a90:	e8bd 4070 	ldmia.w	sp!, {r4, r5, r6, lr}
 8000a94:	f7ff bbcd 	b.w	8000232 <GC9A01_Drite_Data16_Repeat>

08000a98 <GC9A01_PrintNumber>:
 8000a98:	e92d 4ff0 	stmdb	sp!, {r4, r5, r6, r7, r8, r9, sl, fp, lr}
 8000a9c:	b087      	sub	sp, #28
 8000a9e:	4605      	mov	r5, r0
 8000aa0:	f8bd 8040 	ldrh.w	r8, [sp, #64]	@ 0x40
 8000aa4:	f8bd 7044 	ldrh.w	r7, [sp, #68]	@ 0x44
 8000aa8:	4616      	mov	r6, r2
 8000aaa:	b983      	cbnz	r3, 8000ace <GC9A01_PrintNumber+0x36>
 8000aac:	2330      	movs	r3, #48	@ 0x30
 8000aae:	f88d 3008 	strb.w	r3, [sp, #8]
 8000ab2:	2401      	movs	r4, #1
 8000ab4:	f04f 0900 	mov.w	r9, #0
 8000ab8:	f10d 0b08 	add.w	fp, sp, #8
 8000abc:	f101 0a06 	add.w	sl, r1, #6
 8000ac0:	454c      	cmp	r4, r9
 8000ac2:	fa1f fa8a 	uxth.w	sl, sl
 8000ac6:	d11d      	bne.n	8000b04 <GC9A01_PrintNumber+0x6c>
 8000ac8:	b007      	add	sp, #28
 8000aca:	e8bd 8ff0 	ldmia.w	sp!, {r4, r5, r6, r7, r8, r9, sl, fp, pc}
 8000ace:	aa04      	add	r2, sp, #16
 8000ad0:	4610      	mov	r0, r2
 8000ad2:	2400      	movs	r4, #0
 8000ad4:	f04f 0c0a 	mov.w	ip, #10
 8000ad8:	fb93 fefc 	sdiv	lr, r3, ip
 8000adc:	fb0c 331e 	mls	r3, ip, lr, r3
 8000ae0:	3330      	adds	r3, #48	@ 0x30
 8000ae2:	f800 3b01 	strb.w	r3, [r0], #1
 8000ae6:	4673      	mov	r3, lr
 8000ae8:	3401      	adds	r4, #1
 8000aea:	b10b      	cbz	r3, 8000af0 <GC9A01_PrintNumber+0x58>
 8000aec:	2c05      	cmp	r4, #5
 8000aee:	d1f3      	bne.n	8000ad8 <GC9A01_PrintNumber+0x40>
 8000af0:	1913      	adds	r3, r2, r4
 8000af2:	a802      	add	r0, sp, #8
 8000af4:	e003      	b.n	8000afe <GC9A01_PrintNumber+0x66>
 8000af6:	f813 cd01 	ldrb.w	ip, [r3, #-1]!
 8000afa:	f800 cb01 	strb.w	ip, [r0], #1
 8000afe:	4293      	cmp	r3, r2
 8000b00:	d1f9      	bne.n	8000af6 <GC9A01_PrintNumber+0x5e>
 8000b02:	e7d7      	b.n	8000ab4 <GC9A01_PrintNumber+0x1c>
 8000b04:	e9cd 8700 	strd	r8, r7, [sp]
 8000b08:	4632      	mov	r2, r6
 8000b0a:	f81b 3009 	ldrb.w	r3, [fp, r9]
 8000b0e:	4628      	mov	r0, r5
 8000b10:	f7ff ff6a 	bl	80009e8 <GC9A01_DrawChar>
 8000b14:	4651      	mov	r1, sl
 8000b16:	463b      	mov	r3, r7
 8000b18:	4632      	mov	r2, r6
 8000b1a:	4628      	mov	r0, r5
 8000b1c:	f7ff ffaa 	bl	8000a74 <GC9A01_EraseChar>
 8000b20:	f109 0901 	add.w	r9, r9, #1
 8000b24:	4651      	mov	r1, sl
 8000b26:	e7c9      	b.n	8000abc <GC9A01_PrintNumber+0x24>

08000b28 <__NVIC_EnableIRQ.part.0>:
 8000b28:	4a04      	ldr	r2, [pc, #16]	@ (8000b3c <__NVIC_EnableIRQ.part.0+0x14>)
 8000b2a:	0941      	lsrs	r1, r0, #5
 8000b2c:	2301      	movs	r3, #1
 8000b2e:	f000 001f 	and.w	r0, r0, #31
 8000b32:	4083      	lsls	r3, r0
 8000b34:	f842 3021 	str.w	r3, [r2, r1, lsl #2]
 8000b38:	4770      	bx	lr
 8000b3a:	bf00      	nop
 8000b3c:	e000e100 	.word	0xe000e100

08000b40 <DMA1_Stream0_IRQHandler>:
 8000b40:	b570      	push	{r4, r5, r6, lr}
 8000b42:	4d37      	ldr	r5, [pc, #220]	@ (8000c20 <DMA1_Stream0_IRQHandler+0xe0>)
 8000b44:	4c37      	ldr	r4, [pc, #220]	@ (8000c24 <DMA1_Stream0_IRQHandler+0xe4>)
 8000b46:	682b      	ldr	r3, [r5, #0]
 8000b48:	6023      	str	r3, [r4, #0]
 8000b4a:	6823      	ldr	r3, [r4, #0]
 8000b4c:	07db      	lsls	r3, r3, #31
 8000b4e:	d50b      	bpl.n	8000b68 <DMA1_Stream0_IRQHandler+0x28>
 8000b50:	4b35      	ldr	r3, [pc, #212]	@ (8000c28 <DMA1_Stream0_IRQHandler+0xe8>)
 8000b52:	681b      	ldr	r3, [r3, #0]
 8000b54:	69da      	ldr	r2, [r3, #28]
 8000b56:	0616      	lsls	r6, r2, #24
 8000b58:	d506      	bpl.n	8000b68 <DMA1_Stream0_IRQHandler+0x28>
 8000b5a:	6bdb      	ldr	r3, [r3, #60]	@ 0x3c
 8000b5c:	b123      	cbz	r3, 8000b68 <DMA1_Stream0_IRQHandler+0x28>
 8000b5e:	4798      	blx	r3
 8000b60:	68ab      	ldr	r3, [r5, #8]
 8000b62:	f043 0301 	orr.w	r3, r3, #1
 8000b66:	60ab      	str	r3, [r5, #8]
 8000b68:	6823      	ldr	r3, [r4, #0]
 8000b6a:	075d      	lsls	r5, r3, #29
 8000b6c:	d50c      	bpl.n	8000b88 <DMA1_Stream0_IRQHandler+0x48>
 8000b6e:	4b2e      	ldr	r3, [pc, #184]	@ (8000c28 <DMA1_Stream0_IRQHandler+0xe8>)
 8000b70:	681b      	ldr	r3, [r3, #0]
 8000b72:	69da      	ldr	r2, [r3, #28]
 8000b74:	0790      	lsls	r0, r2, #30
 8000b76:	d507      	bpl.n	8000b88 <DMA1_Stream0_IRQHandler+0x48>
 8000b78:	6c1b      	ldr	r3, [r3, #64]	@ 0x40
 8000b7a:	b12b      	cbz	r3, 8000b88 <DMA1_Stream0_IRQHandler+0x48>
 8000b7c:	4798      	blx	r3
 8000b7e:	4a28      	ldr	r2, [pc, #160]	@ (8000c20 <DMA1_Stream0_IRQHandler+0xe0>)
 8000b80:	6893      	ldr	r3, [r2, #8]
 8000b82:	f043 0304 	orr.w	r3, r3, #4
 8000b86:	6093      	str	r3, [r2, #8]
 8000b88:	6823      	ldr	r3, [r4, #0]
 8000b8a:	0719      	lsls	r1, r3, #28
 8000b8c:	d50c      	bpl.n	8000ba8 <DMA1_Stream0_IRQHandler+0x68>
 8000b8e:	4b26      	ldr	r3, [pc, #152]	@ (8000c28 <DMA1_Stream0_IRQHandler+0xe8>)
 8000b90:	681b      	ldr	r3, [r3, #0]
 8000b92:	69da      	ldr	r2, [r3, #28]
 8000b94:	0752      	lsls	r2, r2, #29
 8000b96:	d507      	bpl.n	8000ba8 <DMA1_Stream0_IRQHandler+0x68>
 8000b98:	6c5b      	ldr	r3, [r3, #68]	@ 0x44
 8000b9a:	b12b      	cbz	r3, 8000ba8 <DMA1_Stream0_IRQHandler+0x68>
 8000b9c:	4798      	blx	r3
 8000b9e:	4a20      	ldr	r2, [pc, #128]	@ (8000c20 <DMA1_Stream0_IRQHandler+0xe0>)
 8000ba0:	6893      	ldr	r3, [r2, #8]
 8000ba2:	f043 0308 	orr.w	r3, r3, #8
 8000ba6:	6093      	str	r3, [r2, #8]
 8000ba8:	6823      	ldr	r3, [r4, #0]
 8000baa:	06db      	lsls	r3, r3, #27
 8000bac:	d518      	bpl.n	8000be0 <DMA1_Stream0_IRQHandler+0xa0>
 8000bae:	4d1e      	ldr	r5, [pc, #120]	@ (8000c28 <DMA1_Stream0_IRQHandler+0xe8>)
 8000bb0:	682b      	ldr	r3, [r5, #0]
 8000bb2:	69da      	ldr	r2, [r3, #28]
 8000bb4:	0716      	lsls	r6, r2, #28
 8000bb6:	d513      	bpl.n	8000be0 <DMA1_Stream0_IRQHandler+0xa0>
 8000bb8:	6c9b      	ldr	r3, [r3, #72]	@ 0x48
 8000bba:	b18b      	cbz	r3, 8000be0 <DMA1_Stream0_IRQHandler+0xa0>
 8000bbc:	4798      	blx	r3
 8000bbe:	4a18      	ldr	r2, [pc, #96]	@ (8000c20 <DMA1_Stream0_IRQHandler+0xe0>)
 8000bc0:	6893      	ldr	r3, [r2, #8]
 8000bc2:	f043 0310 	orr.w	r3, r3, #16
 8000bc6:	6093      	str	r3, [r2, #8]
 8000bc8:	682b      	ldr	r3, [r5, #0]
 8000bca:	6b9a      	ldr	r2, [r3, #56]	@ 0x38
 8000bcc:	f5b2 2f80 	cmp.w	r2, #262144	@ 0x40000
 8000bd0:	d106      	bne.n	8000be0 <DMA1_Stream0_IRQHandler+0xa0>
 8000bd2:	685a      	ldr	r2, [r3, #4]
 8000bd4:	6812      	ldr	r2, [r2, #0]
 8000bd6:	0355      	lsls	r5, r2, #13
 8000bd8:	bf4c      	ite	mi
 8000bda:	6d1b      	ldrmi	r3, [r3, #80]	@ 0x50
 8000bdc:	6d5b      	ldrpl	r3, [r3, #84]	@ 0x54
 8000bde:	4798      	blx	r3
 8000be0:	6823      	ldr	r3, [r4, #0]
 8000be2:	0698      	lsls	r0, r3, #26
 8000be4:	d51b      	bpl.n	8000c1e <DMA1_Stream0_IRQHandler+0xde>
 8000be6:	4c10      	ldr	r4, [pc, #64]	@ (8000c28 <DMA1_Stream0_IRQHandler+0xe8>)
 8000be8:	6823      	ldr	r3, [r4, #0]
 8000bea:	69da      	ldr	r2, [r3, #28]
 8000bec:	06d1      	lsls	r1, r2, #27
 8000bee:	d516      	bpl.n	8000c1e <DMA1_Stream0_IRQHandler+0xde>
 8000bf0:	6cda      	ldr	r2, [r3, #76]	@ 0x4c
 8000bf2:	b1a2      	cbz	r2, 8000c1e <DMA1_Stream0_IRQHandler+0xde>
 8000bf4:	6c9b      	ldr	r3, [r3, #72]	@ 0x48
 8000bf6:	4798      	blx	r3
 8000bf8:	4a09      	ldr	r2, [pc, #36]	@ (8000c20 <DMA1_Stream0_IRQHandler+0xe0>)
 8000bfa:	6893      	ldr	r3, [r2, #8]
 8000bfc:	f043 0320 	orr.w	r3, r3, #32
 8000c00:	6093      	str	r3, [r2, #8]
 8000c02:	6823      	ldr	r3, [r4, #0]
 8000c04:	6b9a      	ldr	r2, [r3, #56]	@ 0x38
 8000c06:	f5b2 2f80 	cmp.w	r2, #262144	@ 0x40000
 8000c0a:	d108      	bne.n	8000c1e <DMA1_Stream0_IRQHandler+0xde>
 8000c0c:	685a      	ldr	r2, [r3, #4]
 8000c0e:	6812      	ldr	r2, [r2, #0]
 8000c10:	0352      	lsls	r2, r2, #13
 8000c12:	e8bd 4070 	ldmia.w	sp!, {r4, r5, r6, lr}
 8000c16:	bf4c      	ite	mi
 8000c18:	6d1b      	ldrmi	r3, [r3, #80]	@ 0x50
 8000c1a:	6d5b      	ldrpl	r3, [r3, #84]	@ 0x54
 8000c1c:	4718      	bx	r3
 8000c1e:	bd70      	pop	{r4, r5, r6, pc}
 8000c20:	40026000 	.word	0x40026000
 8000c24:	20000024 	.word	0x20000024
 8000c28:	20000064 	.word	0x20000064

08000c2c <DMA1_Stream1_IRQHandler>:
 8000c2c:	b570      	push	{r4, r5, r6, lr}
 8000c2e:	4d30      	ldr	r5, [pc, #192]	@ (8000cf0 <DMA1_Stream1_IRQHandler+0xc4>)
 8000c30:	4c30      	ldr	r4, [pc, #192]	@ (8000cf4 <DMA1_Stream1_IRQHandler+0xc8>)
 8000c32:	682b      	ldr	r3, [r5, #0]
 8000c34:	6023      	str	r3, [r4, #0]
 8000c36:	6823      	ldr	r3, [r4, #0]
 8000c38:	065a      	lsls	r2, r3, #25
 8000c3a:	d508      	bpl.n	8000c4e <DMA1_Stream1_IRQHandler+0x22>
 8000c3c:	4b2e      	ldr	r3, [pc, #184]	@ (8000cf8 <DMA1_Stream1_IRQHandler+0xcc>)
 8000c3e:	681b      	ldr	r3, [r3, #0]
 8000c40:	6bdb      	ldr	r3, [r3, #60]	@ 0x3c
 8000c42:	b123      	cbz	r3, 8000c4e <DMA1_Stream1_IRQHandler+0x22>
 8000c44:	4798      	blx	r3
 8000c46:	68ab      	ldr	r3, [r5, #8]
 8000c48:	f043 0340 	orr.w	r3, r3, #64	@ 0x40
 8000c4c:	60ab      	str	r3, [r5, #8]
 8000c4e:	6823      	ldr	r3, [r4, #0]
 8000c50:	05db      	lsls	r3, r3, #23
 8000c52:	d509      	bpl.n	8000c68 <DMA1_Stream1_IRQHandler+0x3c>
 8000c54:	4b28      	ldr	r3, [pc, #160]	@ (8000cf8 <DMA1_Stream1_IRQHandler+0xcc>)
 8000c56:	681b      	ldr	r3, [r3, #0]
 8000c58:	6c1b      	ldr	r3, [r3, #64]	@ 0x40
 8000c5a:	b12b      	cbz	r3, 8000c68 <DMA1_Stream1_IRQHandler+0x3c>
 8000c5c:	4798      	blx	r3
 8000c5e:	4a24      	ldr	r2, [pc, #144]	@ (8000cf0 <DMA1_Stream1_IRQHandler+0xc4>)
 8000c60:	6893      	ldr	r3, [r2, #8]
 8000c62:	f443 7380 	orr.w	r3, r3, #256	@ 0x100
 8000c66:	6093      	str	r3, [r2, #8]
 8000c68:	6823      	ldr	r3, [r4, #0]
 8000c6a:	059e      	lsls	r6, r3, #22
 8000c6c:	d509      	bpl.n	8000c82 <DMA1_Stream1_IRQHandler+0x56>
 8000c6e:	4b22      	ldr	r3, [pc, #136]	@ (8000cf8 <DMA1_Stream1_IRQHandler+0xcc>)
 8000c70:	681b      	ldr	r3, [r3, #0]
 8000c72:	6c5b      	ldr	r3, [r3, #68]	@ 0x44
 8000c74:	b12b      	cbz	r3, 8000c82 <DMA1_Stream1_IRQHandler+0x56>
 8000c76:	4798      	blx	r3
 8000c78:	4a1d      	ldr	r2, [pc, #116]	@ (8000cf0 <DMA1_Stream1_IRQHandler+0xc4>)
 8000c7a:	6893      	ldr	r3, [r2, #8]
 8000c7c:	f443 7300 	orr.w	r3, r3, #512	@ 0x200
 8000c80:	6093      	str	r3, [r2, #8]
 8000c82:	6823      	ldr	r3, [r4, #0]
 8000c84:	055d      	lsls	r5, r3, #21
 8000c86:	d515      	bpl.n	8000cb4 <DMA1_Stream1_IRQHandler+0x88>
 8000c88:	4d1b      	ldr	r5, [pc, #108]	@ (8000cf8 <DMA1_Stream1_IRQHandler+0xcc>)
 8000c8a:	682b      	ldr	r3, [r5, #0]
 8000c8c:	6c9b      	ldr	r3, [r3, #72]	@ 0x48
 8000c8e:	b18b      	cbz	r3, 8000cb4 <DMA1_Stream1_IRQHandler+0x88>
 8000c90:	4798      	blx	r3
 8000c92:	4a17      	ldr	r2, [pc, #92]	@ (8000cf0 <DMA1_Stream1_IRQHandler+0xc4>)
 8000c94:	6893      	ldr	r3, [r2, #8]
 8000c96:	f443 6380 	orr.w	r3, r3, #1024	@ 0x400
 8000c9a:	6093      	str	r3, [r2, #8]
 8000c9c:	682b      	ldr	r3, [r5, #0]
 8000c9e:	6b9a      	ldr	r2, [r3, #56]	@ 0x38
 8000ca0:	f5b2 2f80 	cmp.w	r2, #262144	@ 0x40000
 8000ca4:	d106      	bne.n	8000cb4 <DMA1_Stream1_IRQHandler+0x88>
 8000ca6:	685a      	ldr	r2, [r3, #4]
 8000ca8:	6812      	ldr	r2, [r2, #0]
 8000caa:	0350      	lsls	r0, r2, #13
 8000cac:	bf4c      	ite	mi
 8000cae:	6d1b      	ldrmi	r3, [r3, #80]	@ 0x50
 8000cb0:	6d5b      	ldrpl	r3, [r3, #84]	@ 0x54
 8000cb2:	4798      	blx	r3
 8000cb4:	6823      	ldr	r3, [r4, #0]
 8000cb6:	0519      	lsls	r1, r3, #20
 8000cb8:	d518      	bpl.n	8000cec <DMA1_Stream1_IRQHandler+0xc0>
 8000cba:	4c0f      	ldr	r4, [pc, #60]	@ (8000cf8 <DMA1_Stream1_IRQHandler+0xcc>)
 8000cbc:	6823      	ldr	r3, [r4, #0]
 8000cbe:	6cda      	ldr	r2, [r3, #76]	@ 0x4c
 8000cc0:	b1a2      	cbz	r2, 8000cec <DMA1_Stream1_IRQHandler+0xc0>
 8000cc2:	6c9b      	ldr	r3, [r3, #72]	@ 0x48
 8000cc4:	4798      	blx	r3
 8000cc6:	4a0a      	ldr	r2, [pc, #40]	@ (8000cf0 <DMA1_Stream1_IRQHandler+0xc4>)
 8000cc8:	6893      	ldr	r3, [r2, #8]
 8000cca:	f443 6300 	orr.w	r3, r3, #2048	@ 0x800
 8000cce:	6093      	str	r3, [r2, #8]
 8000cd0:	6823      	ldr	r3, [r4, #0]
 8000cd2:	6b9a      	ldr	r2, [r3, #56]	@ 0x38
 8000cd4:	f5b2 2f80 	cmp.w	r2, #262144	@ 0x40000
 8000cd8:	d108      	bne.n	8000cec <DMA1_Stream1_IRQHandler+0xc0>
 8000cda:	685a      	ldr	r2, [r3, #4]
 8000cdc:	6812      	ldr	r2, [r2, #0]
 8000cde:	0352      	lsls	r2, r2, #13
 8000ce0:	e8bd 4070 	ldmia.w	sp!, {r4, r5, r6, lr}
 8000ce4:	bf4c      	ite	mi
 8000ce6:	6d1b      	ldrmi	r3, [r3, #80]	@ 0x50
 8000ce8:	6d5b      	ldrpl	r3, [r3, #84]	@ 0x54
 8000cea:	4718      	bx	r3
 8000cec:	bd70      	pop	{r4, r5, r6, pc}
 8000cee:	bf00      	nop
 8000cf0:	40026000 	.word	0x40026000
 8000cf4:	20000024 	.word	0x20000024
 8000cf8:	20000060 	.word	0x20000060

08000cfc <DMA1_Stream2_IRQHandler>:
 8000cfc:	b570      	push	{r4, r5, r6, lr}
 8000cfe:	4d30      	ldr	r5, [pc, #192]	@ (8000dc0 <DMA1_Stream2_IRQHandler+0xc4>)
 8000d00:	4c30      	ldr	r4, [pc, #192]	@ (8000dc4 <DMA1_Stream2_IRQHandler+0xc8>)
 8000d02:	682b      	ldr	r3, [r5, #0]
 8000d04:	6023      	str	r3, [r4, #0]
 8000d06:	6823      	ldr	r3, [r4, #0]
 8000d08:	03da      	lsls	r2, r3, #15
 8000d0a:	d508      	bpl.n	8000d1e <DMA1_Stream2_IRQHandler+0x22>
 8000d0c:	4b2e      	ldr	r3, [pc, #184]	@ (8000dc8 <DMA1_Stream2_IRQHandler+0xcc>)
 8000d0e:	681b      	ldr	r3, [r3, #0]
 8000d10:	6bdb      	ldr	r3, [r3, #60]	@ 0x3c
 8000d12:	b123      	cbz	r3, 8000d1e <DMA1_Stream2_IRQHandler+0x22>
 8000d14:	4798      	blx	r3
 8000d16:	68ab      	ldr	r3, [r5, #8]
 8000d18:	f443 3380 	orr.w	r3, r3, #65536	@ 0x10000
 8000d1c:	60ab      	str	r3, [r5, #8]
 8000d1e:	6823      	ldr	r3, [r4, #0]
 8000d20:	035b      	lsls	r3, r3, #13
 8000d22:	d509      	bpl.n	8000d38 <DMA1_Stream2_IRQHandler+0x3c>
 8000d24:	4b28      	ldr	r3, [pc, #160]	@ (8000dc8 <DMA1_Stream2_IRQHandler+0xcc>)
 8000d26:	681b      	ldr	r3, [r3, #0]
 8000d28:	6c1b      	ldr	r3, [r3, #64]	@ 0x40
 8000d2a:	b12b      	cbz	r3, 8000d38 <DMA1_Stream2_IRQHandler+0x3c>
 8000d2c:	4798      	blx	r3
 8000d2e:	4a24      	ldr	r2, [pc, #144]	@ (8000dc0 <DMA1_Stream2_IRQHandler+0xc4>)
 8000d30:	6893      	ldr	r3, [r2, #8]
 8000d32:	f443 2380 	orr.w	r3, r3, #262144	@ 0x40000
 8000d36:	6093      	str	r3, [r2, #8]
 8000d38:	6823      	ldr	r3, [r4, #0]
 8000d3a:	031e      	lsls	r6, r3, #12
 8000d3c:	d509      	bpl.n	8000d52 <DMA1_Stream2_IRQHandler+0x56>
 8000d3e:	4b22      	ldr	r3, [pc, #136]	@ (8000dc8 <DMA1_Stream2_IRQHandler+0xcc>)
 8000d40:	681b      	ldr	r3, [r3, #0]
 8000d42:	6c5b      	ldr	r3, [r3, #68]	@ 0x44
 8000d44:	b12b      	cbz	r3, 8000d52 <DMA1_Stream2_IRQHandler+0x56>
 8000d46:	4798      	blx	r3
 8000d48:	4a1d      	ldr	r2, [pc, #116]	@ (8000dc0 <DMA1_Stream2_IRQHandler+0xc4>)
 8000d4a:	6893      	ldr	r3, [r2, #8]
 8000d4c:	f443 2300 	orr.w	r3, r3, #524288	@ 0x80000
 8000d50:	6093      	str	r3, [r2, #8]
 8000d52:	6823      	ldr	r3, [r4, #0]
 8000d54:	02dd      	lsls	r5, r3, #11
 8000d56:	d515      	bpl.n	8000d84 <DMA1_Stream2_IRQHandler+0x88>
 8000d58:	4d1b      	ldr	r5, [pc, #108]	@ (8000dc8 <DMA1_Stream2_IRQHandler+0xcc>)
 8000d5a:	682b      	ldr	r3, [r5, #0]
 8000d5c:	6c9b      	ldr	r3, [r3, #72]	@ 0x48
 8000d5e:	b18b      	cbz	r3, 8000d84 <DMA1_Stream2_IRQHandler+0x88>
 8000d60:	4798      	blx	r3
 8000d62:	4a17      	ldr	r2, [pc, #92]	@ (8000dc0 <DMA1_Stream2_IRQHandler+0xc4>)
 8000d64:	6893      	ldr	r3, [r2, #8]
 8000d66:	f443 1380 	orr.w	r3, r3, #1048576	@ 0x100000
 8000d6a:	6093      	str	r3, [r2, #8]
 8000d6c:	682b      	ldr	r3, [r5, #0]
 8000d6e:	6b9a      	ldr	r2, [r3, #56]	@ 0x38
 8000d70:	f5b2 2f80 	cmp.w	r2, #262144	@ 0x40000
 8000d74:	d106      	bne.n	8000d84 <DMA1_Stream2_IRQHandler+0x88>
 8000d76:	685a      	ldr	r2, [r3, #4]
 8000d78:	6812      	ldr	r2, [r2, #0]
 8000d7a:	0350      	lsls	r0, r2, #13
 8000d7c:	bf4c      	ite	mi
 8000d7e:	6d1b      	ldrmi	r3, [r3, #80]	@ 0x50
 8000d80:	6d5b      	ldrpl	r3, [r3, #84]	@ 0x54
 8000d82:	4798      	blx	r3
 8000d84:	6823      	ldr	r3, [r4, #0]
 8000d86:	0299      	lsls	r1, r3, #10
 8000d88:	d518      	bpl.n	8000dbc <DMA1_Stream2_IRQHandler+0xc0>
 8000d8a:	4c0f      	ldr	r4, [pc, #60]	@ (8000dc8 <DMA1_Stream2_IRQHandler+0xcc>)
 8000d8c:	6823      	ldr	r3, [r4, #0]
 8000d8e:	6cda      	ldr	r2, [r3, #76]	@ 0x4c
 8000d90:	b1a2      	cbz	r2, 8000dbc <DMA1_Stream2_IRQHandler+0xc0>
 8000d92:	6c9b      	ldr	r3, [r3, #72]	@ 0x48
 8000d94:	4798      	blx	r3
 8000d96:	4a0a      	ldr	r2, [pc, #40]	@ (8000dc0 <DMA1_Stream2_IRQHandler+0xc4>)
 8000d98:	6893      	ldr	r3, [r2, #8]
 8000d9a:	f443 1300 	orr.w	r3, r3, #2097152	@ 0x200000
 8000d9e:	6093      	str	r3, [r2, #8]
 8000da0:	6823      	ldr	r3, [r4, #0]
 8000da2:	6b9a      	ldr	r2, [r3, #56]	@ 0x38
 8000da4:	f5b2 2f80 	cmp.w	r2, #262144	@ 0x40000
 8000da8:	d108      	bne.n	8000dbc <DMA1_Stream2_IRQHandler+0xc0>
 8000daa:	685a      	ldr	r2, [r3, #4]
 8000dac:	6812      	ldr	r2, [r2, #0]
 8000dae:	0352      	lsls	r2, r2, #13
 8000db0:	e8bd 4070 	ldmia.w	sp!, {r4, r5, r6, lr}
 8000db4:	bf4c      	ite	mi
 8000db6:	6d1b      	ldrmi	r3, [r3, #80]	@ 0x50
 8000db8:	6d5b      	ldrpl	r3, [r3, #84]	@ 0x54
 8000dba:	4718      	bx	r3
 8000dbc:	bd70      	pop	{r4, r5, r6, pc}
 8000dbe:	bf00      	nop
 8000dc0:	40026000 	.word	0x40026000
 8000dc4:	20000024 	.word	0x20000024
 8000dc8:	2000005c 	.word	0x2000005c

08000dcc <DMA1_Stream3_IRQHandler>:
 8000dcc:	b570      	push	{r4, r5, r6, lr}
 8000dce:	4d30      	ldr	r5, [pc, #192]	@ (8000e90 <DMA1_Stream3_IRQHandler+0xc4>)
 8000dd0:	4c30      	ldr	r4, [pc, #192]	@ (8000e94 <DMA1_Stream3_IRQHandler+0xc8>)
 8000dd2:	682b      	ldr	r3, [r5, #0]
 8000dd4:	6023      	str	r3, [r4, #0]
 8000dd6:	6823      	ldr	r3, [r4, #0]
 8000dd8:	025a      	lsls	r2, r3, #9
 8000dda:	d508      	bpl.n	8000dee <DMA1_Stream3_IRQHandler+0x22>
 8000ddc:	4b2e      	ldr	r3, [pc, #184]	@ (8000e98 <DMA1_Stream3_IRQHandler+0xcc>)
 8000dde:	681b      	ldr	r3, [r3, #0]
 8000de0:	6bdb      	ldr	r3, [r3, #60]	@ 0x3c
 8000de2:	b123      	cbz	r3, 8000dee <DMA1_Stream3_IRQHandler+0x22>
 8000de4:	4798      	blx	r3
 8000de6:	68ab      	ldr	r3, [r5, #8]
 8000de8:	f443 0380 	orr.w	r3, r3, #4194304	@ 0x400000
 8000dec:	60ab      	str	r3, [r5, #8]
 8000dee:	6823      	ldr	r3, [r4, #0]
 8000df0:	01db      	lsls	r3, r3, #7
 8000df2:	d509      	bpl.n	8000e08 <DMA1_Stream3_IRQHandler+0x3c>
 8000df4:	4b28      	ldr	r3, [pc, #160]	@ (8000e98 <DMA1_Stream3_IRQHandler+0xcc>)
 8000df6:	681b      	ldr	r3, [r3, #0]
 8000df8:	6c1b      	ldr	r3, [r3, #64]	@ 0x40
 8000dfa:	b12b      	cbz	r3, 8000e08 <DMA1_Stream3_IRQHandler+0x3c>
 8000dfc:	4798      	blx	r3
 8000dfe:	4a24      	ldr	r2, [pc, #144]	@ (8000e90 <DMA1_Stream3_IRQHandler+0xc4>)
 8000e00:	6893      	ldr	r3, [r2, #8]
 8000e02:	f043 7380 	orr.w	r3, r3, #16777216	@ 0x1000000
 8000e06:	6093      	str	r3, [r2, #8]
 8000e08:	6823      	ldr	r3, [r4, #0]
 8000e0a:	019e      	lsls	r6, r3, #6
 8000e0c:	d509      	bpl.n	8000e22 <DMA1_Stream3_IRQHandler+0x56>
 8000e0e:	4b22      	ldr	r3, [pc, #136]	@ (8000e98 <DMA1_Stream3_IRQHandler+0xcc>)
 8000e10:	681b      	ldr	r3, [r3, #0]
 8000e12:	6c5b      	ldr	r3, [r3, #68]	@ 0x44
 8000e14:	b12b      	cbz	r3, 8000e22 <DMA1_Stream3_IRQHandler+0x56>
 8000e16:	4798      	blx	r3
 8000e18:	4a1d      	ldr	r2, [pc, #116]	@ (8000e90 <DMA1_Stream3_IRQHandler+0xc4>)
 8000e1a:	6893      	ldr	r3, [r2, #8]
 8000e1c:	f043 7300 	orr.w	r3, r3, #33554432	@ 0x2000000
 8000e20:	6093      	str	r3, [r2, #8]
 8000e22:	6823      	ldr	r3, [r4, #0]
 8000e24:	015d      	lsls	r5, r3, #5
 8000e26:	d515      	bpl.n	8000e54 <DMA1_Stream3_IRQHandler+0x88>
 8000e28:	4d1b      	ldr	r5, [pc, #108]	@ (8000e98 <DMA1_Stream3_IRQHandler+0xcc>)
 8000e2a:	682b      	ldr	r3, [r5, #0]
 8000e2c:	6c9b      	ldr	r3, [r3, #72]	@ 0x48
 8000e2e:	b18b      	cbz	r3, 8000e54 <DMA1_Stream3_IRQHandler+0x88>
 8000e30:	4798      	blx	r3
 8000e32:	4a17      	ldr	r2, [pc, #92]	@ (8000e90 <DMA1_Stream3_IRQHandler+0xc4>)
 8000e34:	6893      	ldr	r3, [r2, #8]
 8000e36:	f043 6380 	orr.w	r3, r3, #67108864	@ 0x4000000
 8000e3a:	6093      	str	r3, [r2, #8]
 8000e3c:	682b      	ldr	r3, [r5, #0]
 8000e3e:	6b9a      	ldr	r2, [r3, #56]	@ 0x38
 8000e40:	f5b2 2f80 	cmp.w	r2, #262144	@ 0x40000
 8000e44:	d106      	bne.n	8000e54 <DMA1_Stream3_IRQHandler+0x88>
 8000e46:	685a      	ldr	r2, [r3, #4]
 8000e48:	6812      	ldr	r2, [r2, #0]
 8000e4a:	0350      	lsls	r0, r2, #13
 8000e4c:	bf4c      	ite	mi
 8000e4e:	6d1b      	ldrmi	r3, [r3, #80]	@ 0x50
 8000e50:	6d5b      	ldrpl	r3, [r3, #84]	@ 0x54
 8000e52:	4798      	blx	r3
 8000e54:	6823      	ldr	r3, [r4, #0]
 8000e56:	0119      	lsls	r1, r3, #4
 8000e58:	d518      	bpl.n	8000e8c <DMA1_Stream3_IRQHandler+0xc0>
 8000e5a:	4c0f      	ldr	r4, [pc, #60]	@ (8000e98 <DMA1_Stream3_IRQHandler+0xcc>)
 8000e5c:	6823      	ldr	r3, [r4, #0]
 8000e5e:	6cda      	ldr	r2, [r3, #76]	@ 0x4c
 8000e60:	b1a2      	cbz	r2, 8000e8c <DMA1_Stream3_IRQHandler+0xc0>
 8000e62:	6c9b      	ldr	r3, [r3, #72]	@ 0x48
 8000e64:	4798      	blx	r3
 8000e66:	4a0a      	ldr	r2, [pc, #40]	@ (8000e90 <DMA1_Stream3_IRQHandler+0xc4>)
 8000e68:	6893      	ldr	r3, [r2, #8]
 8000e6a:	f043 6300 	orr.w	r3, r3, #134217728	@ 0x8000000
 8000e6e:	6093      	str	r3, [r2, #8]
 8000e70:	6823      	ldr	r3, [r4, #0]
 8000e72:	6b9a      	ldr	r2, [r3, #56]	@ 0x38
 8000e74:	f5b2 2f80 	cmp.w	r2, #262144	@ 0x40000
 8000e78:	d108      	bne.n	8000e8c <DMA1_Stream3_IRQHandler+0xc0>
 8000e7a:	685a      	ldr	r2, [r3, #4]
 8000e7c:	6812      	ldr	r2, [r2, #0]
 8000e7e:	0352      	lsls	r2, r2, #13
 8000e80:	e8bd 4070 	ldmia.w	sp!, {r4, r5, r6, lr}
 8000e84:	bf4c      	ite	mi
 8000e86:	6d1b      	ldrmi	r3, [r3, #80]	@ 0x50
 8000e88:	6d5b      	ldrpl	r3, [r3, #84]	@ 0x54
 8000e8a:	4718      	bx	r3
 8000e8c:	bd70      	pop	{r4, r5, r6, pc}
 8000e8e:	bf00      	nop
 8000e90:	40026000 	.word	0x40026000
 8000e94:	20000024 	.word	0x20000024
 8000e98:	20000058 	.word	0x20000058

08000e9c <DMA1_Stream4_IRQHandler>:
 8000e9c:	b570      	push	{r4, r5, r6, lr}
 8000e9e:	4d30      	ldr	r5, [pc, #192]	@ (8000f60 <DMA1_Stream4_IRQHandler+0xc4>)
 8000ea0:	4c30      	ldr	r4, [pc, #192]	@ (8000f64 <DMA1_Stream4_IRQHandler+0xc8>)
 8000ea2:	686b      	ldr	r3, [r5, #4]
 8000ea4:	6023      	str	r3, [r4, #0]
 8000ea6:	6823      	ldr	r3, [r4, #0]
 8000ea8:	07da      	lsls	r2, r3, #31
 8000eaa:	d508      	bpl.n	8000ebe <DMA1_Stream4_IRQHandler+0x22>
 8000eac:	4b2e      	ldr	r3, [pc, #184]	@ (8000f68 <DMA1_Stream4_IRQHandler+0xcc>)
 8000eae:	681b      	ldr	r3, [r3, #0]
 8000eb0:	6bdb      	ldr	r3, [r3, #60]	@ 0x3c
 8000eb2:	b123      	cbz	r3, 8000ebe <DMA1_Stream4_IRQHandler+0x22>
 8000eb4:	4798      	blx	r3
 8000eb6:	68ab      	ldr	r3, [r5, #8]
 8000eb8:	f043 0340 	orr.w	r3, r3, #64	@ 0x40
 8000ebc:	60ab      	str	r3, [r5, #8]
 8000ebe:	6823      	ldr	r3, [r4, #0]
 8000ec0:	075b      	lsls	r3, r3, #29
 8000ec2:	d509      	bpl.n	8000ed8 <DMA1_Stream4_IRQHandler+0x3c>
 8000ec4:	4b28      	ldr	r3, [pc, #160]	@ (8000f68 <DMA1_Stream4_IRQHandler+0xcc>)
 8000ec6:	681b      	ldr	r3, [r3, #0]
 8000ec8:	6c1b      	ldr	r3, [r3, #64]	@ 0x40
 8000eca:	b12b      	cbz	r3, 8000ed8 <DMA1_Stream4_IRQHandler+0x3c>
 8000ecc:	4798      	blx	r3
 8000ece:	4a24      	ldr	r2, [pc, #144]	@ (8000f60 <DMA1_Stream4_IRQHandler+0xc4>)
 8000ed0:	68d3      	ldr	r3, [r2, #12]
 8000ed2:	f043 0304 	orr.w	r3, r3, #4
 8000ed6:	60d3      	str	r3, [r2, #12]
 8000ed8:	6823      	ldr	r3, [r4, #0]
 8000eda:	071e      	lsls	r6, r3, #28
 8000edc:	d509      	bpl.n	8000ef2 <DMA1_Stream4_IRQHandler+0x56>
 8000ede:	4b22      	ldr	r3, [pc, #136]	@ (8000f68 <DMA1_Stream4_IRQHandler+0xcc>)
 8000ee0:	681b      	ldr	r3, [r3, #0]
 8000ee2:	6c5b      	ldr	r3, [r3, #68]	@ 0x44
 8000ee4:	b12b      	cbz	r3, 8000ef2 <DMA1_Stream4_IRQHandler+0x56>
 8000ee6:	4798      	blx	r3
 8000ee8:	4a1d      	ldr	r2, [pc, #116]	@ (8000f60 <DMA1_Stream4_IRQHandler+0xc4>)
 8000eea:	68d3      	ldr	r3, [r2, #12]
 8000eec:	f043 0308 	orr.w	r3, r3, #8
 8000ef0:	60d3      	str	r3, [r2, #12]
 8000ef2:	6823      	ldr	r3, [r4, #0]
 8000ef4:	06dd      	lsls	r5, r3, #27
 8000ef6:	d515      	bpl.n	8000f24 <DMA1_Stream4_IRQHandler+0x88>
 8000ef8:	4d1b      	ldr	r5, [pc, #108]	@ (8000f68 <DMA1_Stream4_IRQHandler+0xcc>)
 8000efa:	682b      	ldr	r3, [r5, #0]
 8000efc:	6c9b      	ldr	r3, [r3, #72]	@ 0x48
 8000efe:	b18b      	cbz	r3, 8000f24 <DMA1_Stream4_IRQHandler+0x88>
 8000f00:	4798      	blx	r3
 8000f02:	4a17      	ldr	r2, [pc, #92]	@ (8000f60 <DMA1_Stream4_IRQHandler+0xc4>)
 8000f04:	68d3      	ldr	r3, [r2, #12]
 8000f06:	f043 0310 	orr.w	r3, r3, #16
 8000f0a:	60d3      	str	r3, [r2, #12]
 8000f0c:	682b      	ldr	r3, [r5, #0]
 8000f0e:	6b9a      	ldr	r2, [r3, #56]	@ 0x38
 8000f10:	f5b2 2f80 	cmp.w	r2, #262144	@ 0x40000
 8000f14:	d106      	bne.n	8000f24 <DMA1_Stream4_IRQHandler+0x88>
 8000f16:	685a      	ldr	r2, [r3, #4]
 8000f18:	6812      	ldr	r2, [r2, #0]
 8000f1a:	0350      	lsls	r0, r2, #13
 8000f1c:	bf4c      	ite	mi
 8000f1e:	6d1b      	ldrmi	r3, [r3, #80]	@ 0x50
 8000f20:	6d5b      	ldrpl	r3, [r3, #84]	@ 0x54
 8000f22:	4798      	blx	r3
 8000f24:	6823      	ldr	r3, [r4, #0]
 8000f26:	0699      	lsls	r1, r3, #26
 8000f28:	d518      	bpl.n	8000f5c <DMA1_Stream4_IRQHandler+0xc0>
 8000f2a:	4c0f      	ldr	r4, [pc, #60]	@ (8000f68 <DMA1_Stream4_IRQHandler+0xcc>)
 8000f2c:	6823      	ldr	r3, [r4, #0]
 8000f2e:	6cda      	ldr	r2, [r3, #76]	@ 0x4c
 8000f30:	b1a2      	cbz	r2, 8000f5c <DMA1_Stream4_IRQHandler+0xc0>
 8000f32:	6c9b      	ldr	r3, [r3, #72]	@ 0x48
 8000f34:	4798      	blx	r3
 8000f36:	4a0a      	ldr	r2, [pc, #40]	@ (8000f60 <DMA1_Stream4_IRQHandler+0xc4>)
 8000f38:	68d3      	ldr	r3, [r2, #12]
 8000f3a:	f043 0320 	orr.w	r3, r3, #32
 8000f3e:	60d3      	str	r3, [r2, #12]
 8000f40:	6823      	ldr	r3, [r4, #0]
 8000f42:	6b9a      	ldr	r2, [r3, #56]	@ 0x38
 8000f44:	f5b2 2f80 	cmp.w	r2, #262144	@ 0x40000
 8000f48:	d108      	bne.n	8000f5c <DMA1_Stream4_IRQHandler+0xc0>
 8000f4a:	685a      	ldr	r2, [r3, #4]
 8000f4c:	6812      	ldr	r2, [r2, #0]
 8000f4e:	0352      	lsls	r2, r2, #13
 8000f50:	e8bd 4070 	ldmia.w	sp!, {r4, r5, r6, lr}
 8000f54:	bf4c      	ite	mi
 8000f56:	6d1b      	ldrmi	r3, [r3, #80]	@ 0x50
 8000f58:	6d5b      	ldrpl	r3, [r3, #84]	@ 0x54
 8000f5a:	4718      	bx	r3
 8000f5c:	bd70      	pop	{r4, r5, r6, pc}
 8000f5e:	bf00      	nop
 8000f60:	40026000 	.word	0x40026000
 8000f64:	20000020 	.word	0x20000020
 8000f68:	20000054 	.word	0x20000054

08000f6c <DMA1_Stream5_IRQHandler>:
 8000f6c:	b570      	push	{r4, r5, r6, lr}
 8000f6e:	4d30      	ldr	r5, [pc, #192]	@ (8001030 <DMA1_Stream5_IRQHandler+0xc4>)
 8000f70:	4c30      	ldr	r4, [pc, #192]	@ (8001034 <DMA1_Stream5_IRQHandler+0xc8>)
 8000f72:	686b      	ldr	r3, [r5, #4]
 8000f74:	6023      	str	r3, [r4, #0]
 8000f76:	6823      	ldr	r3, [r4, #0]
 8000f78:	065a      	lsls	r2, r3, #25
 8000f7a:	d508      	bpl.n	8000f8e <DMA1_Stream5_IRQHandler+0x22>
 8000f7c:	4b2e      	ldr	r3, [pc, #184]	@ (8001038 <DMA1_Stream5_IRQHandler+0xcc>)
 8000f7e:	681b      	ldr	r3, [r3, #0]
 8000f80:	6bdb      	ldr	r3, [r3, #60]	@ 0x3c
 8000f82:	b123      	cbz	r3, 8000f8e <DMA1_Stream5_IRQHandler+0x22>
 8000f84:	4798      	blx	r3
 8000f86:	68eb      	ldr	r3, [r5, #12]
 8000f88:	f043 0340 	orr.w	r3, r3, #64	@ 0x40
 8000f8c:	60eb      	str	r3, [r5, #12]
 8000f8e:	6823      	ldr	r3, [r4, #0]
 8000f90:	05db      	lsls	r3, r3, #23
 8000f92:	d509      	bpl.n	8000fa8 <DMA1_Stream5_IRQHandler+0x3c>
 8000f94:	4b28      	ldr	r3, [pc, #160]	@ (8001038 <DMA1_Stream5_IRQHandler+0xcc>)
 8000f96:	681b      	ldr	r3, [r3, #0]
 8000f98:	6c1b      	ldr	r3, [r3, #64]	@ 0x40
 8000f9a:	b12b      	cbz	r3, 8000fa8 <DMA1_Stream5_IRQHandler+0x3c>
 8000f9c:	4798      	blx	r3
 8000f9e:	4a24      	ldr	r2, [pc, #144]	@ (8001030 <DMA1_Stream5_IRQHandler+0xc4>)
 8000fa0:	68d3      	ldr	r3, [r2, #12]
 8000fa2:	f443 7380 	orr.w	r3, r3, #256	@ 0x100
 8000fa6:	60d3      	str	r3, [r2, #12]
 8000fa8:	6823      	ldr	r3, [r4, #0]
 8000faa:	059e      	lsls	r6, r3, #22
 8000fac:	d509      	bpl.n	8000fc2 <DMA1_Stream5_IRQHandler+0x56>
 8000fae:	4b22      	ldr	r3, [pc, #136]	@ (8001038 <DMA1_Stream5_IRQHandler+0xcc>)
 8000fb0:	681b      	ldr	r3, [r3, #0]
 8000fb2:	6c5b      	ldr	r3, [r3, #68]	@ 0x44
 8000fb4:	b12b      	cbz	r3, 8000fc2 <DMA1_Stream5_IRQHandler+0x56>
 8000fb6:	4798      	blx	r3
 8000fb8:	4a1d      	ldr	r2, [pc, #116]	@ (8001030 <DMA1_Stream5_IRQHandler+0xc4>)
 8000fba:	68d3      	ldr	r3, [r2, #12]
 8000fbc:	f443 7300 	orr.w	r3, r3, #512	@ 0x200
 8000fc0:	60d3      	str	r3, [r2, #12]
 8000fc2:	6823      	ldr	r3, [r4, #0]
 8000fc4:	055d      	lsls	r5, r3, #21
 8000fc6:	d515      	bpl.n	8000ff4 <DMA1_Stream5_IRQHandler+0x88>
 8000fc8:	4d1b      	ldr	r5, [pc, #108]	@ (8001038 <DMA1_Stream5_IRQHandler+0xcc>)
 8000fca:	682b      	ldr	r3, [r5, #0]
 8000fcc:	6c9b      	ldr	r3, [r3, #72]	@ 0x48
 8000fce:	b18b      	cbz	r3, 8000ff4 <DMA1_Stream5_IRQHandler+0x88>
 8000fd0:	4798      	blx	r3
 8000fd2:	4a17      	ldr	r2, [pc, #92]	@ (8001030 <DMA1_Stream5_IRQHandler+0xc4>)
 8000fd4:	68d3      	ldr	r3, [r2, #12]
 8000fd6:	f443 6380 	orr.w	r3, r3, #1024	@ 0x400
 8000fda:	60d3      	str	r3, [r2, #12]
 8000fdc:	682b      	ldr	r3, [r5, #0]
 8000fde:	6b9a      	ldr	r2, [r3, #56]	@ 0x38
 8000fe0:	f5b2 2f80 	cmp.w	r2, #262144	@ 0x40000
 8000fe4:	d106      	bne.n	8000ff4 <DMA1_Stream5_IRQHandler+0x88>
 8000fe6:	685a      	ldr	r2, [r3, #4]
 8000fe8:	6812      	ldr	r2, [r2, #0]
 8000fea:	0350      	lsls	r0, r2, #13
 8000fec:	bf4c      	ite	mi
 8000fee:	6d1b      	ldrmi	r3, [r3, #80]	@ 0x50
 8000ff0:	6d5b      	ldrpl	r3, [r3, #84]	@ 0x54
 8000ff2:	4798      	blx	r3
 8000ff4:	6823      	ldr	r3, [r4, #0]
 8000ff6:	0519      	lsls	r1, r3, #20
 8000ff8:	d518      	bpl.n	800102c <DMA1_Stream5_IRQHandler+0xc0>
 8000ffa:	4c0f      	ldr	r4, [pc, #60]	@ (8001038 <DMA1_Stream5_IRQHandler+0xcc>)
 8000ffc:	6823      	ldr	r3, [r4, #0]
 8000ffe:	6cda      	ldr	r2, [r3, #76]	@ 0x4c
 8001000:	b1a2      	cbz	r2, 800102c <DMA1_Stream5_IRQHandler+0xc0>
 8001002:	6c9b      	ldr	r3, [r3, #72]	@ 0x48
 8001004:	4798      	blx	r3
 8001006:	4a0a      	ldr	r2, [pc, #40]	@ (8001030 <DMA1_Stream5_IRQHandler+0xc4>)
 8001008:	68d3      	ldr	r3, [r2, #12]
 800100a:	f443 6300 	orr.w	r3, r3, #2048	@ 0x800
 800100e:	60d3      	str	r3, [r2, #12]
 8001010:	6823      	ldr	r3, [r4, #0]
 8001012:	6b9a      	ldr	r2, [r3, #56]	@ 0x38
 8001014:	f5b2 2f80 	cmp.w	r2, #262144	@ 0x40000
 8001018:	d108      	bne.n	800102c <DMA1_Stream5_IRQHandler+0xc0>
 800101a:	685a      	ldr	r2, [r3, #4]
 800101c:	6812      	ldr	r2, [r2, #0]
 800101e:	0352      	lsls	r2, r2, #13
 8001020:	e8bd 4070 	ldmia.w	sp!, {r4, r5, r6, lr}
 8001024:	bf4c      	ite	mi
 8001026:	6d1b      	ldrmi	r3, [r3, #80]	@ 0x50
 8001028:	6d5b      	ldrpl	r3, [r3, #84]	@ 0x54
 800102a:	4718      	bx	r3
 800102c:	bd70      	pop	{r4, r5, r6, pc}
 800102e:	bf00      	nop
 8001030:	40026000 	.word	0x40026000
 8001034:	20000020 	.word	0x20000020
 8001038:	20000050 	.word	0x20000050

0800103c <DMA1_Stream6_IRQHandler>:
 800103c:	b570      	push	{r4, r5, r6, lr}
 800103e:	4d30      	ldr	r5, [pc, #192]	@ (8001100 <DMA1_Stream6_IRQHandler+0xc4>)
 8001040:	4c30      	ldr	r4, [pc, #192]	@ (8001104 <DMA1_Stream6_IRQHandler+0xc8>)
 8001042:	686b      	ldr	r3, [r5, #4]
 8001044:	6023      	str	r3, [r4, #0]
 8001046:	6823      	ldr	r3, [r4, #0]
 8001048:	03da      	lsls	r2, r3, #15
 800104a:	d508      	bpl.n	800105e <DMA1_Stream6_IRQHandler+0x22>
 800104c:	4b2e      	ldr	r3, [pc, #184]	@ (8001108 <DMA1_Stream6_IRQHandler+0xcc>)
 800104e:	681b      	ldr	r3, [r3, #0]
 8001050:	6bdb      	ldr	r3, [r3, #60]	@ 0x3c
 8001052:	b123      	cbz	r3, 800105e <DMA1_Stream6_IRQHandler+0x22>
 8001054:	4798      	blx	r3
 8001056:	68eb      	ldr	r3, [r5, #12]
 8001058:	f443 3380 	orr.w	r3, r3, #65536	@ 0x10000
 800105c:	60eb      	str	r3, [r5, #12]
 800105e:	6823      	ldr	r3, [r4, #0]
 8001060:	035b      	lsls	r3, r3, #13
 8001062:	d509      	bpl.n	8001078 <DMA1_Stream6_IRQHandler+0x3c>
 8001064:	4b28      	ldr	r3, [pc, #160]	@ (8001108 <DMA1_Stream6_IRQHandler+0xcc>)
 8001066:	681b      	ldr	r3, [r3, #0]
 8001068:	6c1b      	ldr	r3, [r3, #64]	@ 0x40
 800106a:	b12b      	cbz	r3, 8001078 <DMA1_Stream6_IRQHandler+0x3c>
 800106c:	4798      	blx	r3
 800106e:	4a24      	ldr	r2, [pc, #144]	@ (8001100 <DMA1_Stream6_IRQHandler+0xc4>)
 8001070:	68d3      	ldr	r3, [r2, #12]
 8001072:	f443 2380 	orr.w	r3, r3, #262144	@ 0x40000
 8001076:	60d3      	str	r3, [r2, #12]
 8001078:	6823      	ldr	r3, [r4, #0]
 800107a:	031e      	lsls	r6, r3, #12
 800107c:	d509      	bpl.n	8001092 <DMA1_Stream6_IRQHandler+0x56>
 800107e:	4b22      	ldr	r3, [pc, #136]	@ (8001108 <DMA1_Stream6_IRQHandler+0xcc>)
 8001080:	681b      	ldr	r3, [r3, #0]
 8001082:	6c5b      	ldr	r3, [r3, #68]	@ 0x44
 8001084:	b12b      	cbz	r3, 8001092 <DMA1_Stream6_IRQHandler+0x56>
 8001086:	4798      	blx	r3
 8001088:	4a1d      	ldr	r2, [pc, #116]	@ (8001100 <DMA1_Stream6_IRQHandler+0xc4>)
 800108a:	68d3      	ldr	r3, [r2, #12]
 800108c:	f443 2300 	orr.w	r3, r3, #524288	@ 0x80000
 8001090:	60d3      	str	r3, [r2, #12]
 8001092:	6823      	ldr	r3, [r4, #0]
 8001094:	02dd      	lsls	r5, r3, #11
 8001096:	d515      	bpl.n	80010c4 <DMA1_Stream6_IRQHandler+0x88>
 8001098:	4d1b      	ldr	r5, [pc, #108]	@ (8001108 <DMA1_Stream6_IRQHandler+0xcc>)
 800109a:	682b      	ldr	r3, [r5, #0]
 800109c:	6c9b      	ldr	r3, [r3, #72]	@ 0x48
 800109e:	b18b      	cbz	r3, 80010c4 <DMA1_Stream6_IRQHandler+0x88>
 80010a0:	4798      	blx	r3
 80010a2:	4a17      	ldr	r2, [pc, #92]	@ (8001100 <DMA1_Stream6_IRQHandler+0xc4>)
 80010a4:	68d3      	ldr	r3, [r2, #12]
 80010a6:	f443 1380 	orr.w	r3, r3, #1048576	@ 0x100000
 80010aa:	60d3      	str	r3, [r2, #12]
 80010ac:	682b      	ldr	r3, [r5, #0]
 80010ae:	6b9a      	ldr	r2, [r3, #56]	@ 0x38
 80010b0:	f5b2 2f80 	cmp.w	r2, #262144	@ 0x40000
 80010b4:	d106      	bne.n	80010c4 <DMA1_Stream6_IRQHandler+0x88>
 80010b6:	685a      	ldr	r2, [r3, #4]
 80010b8:	6812      	ldr	r2, [r2, #0]
 80010ba:	0350      	lsls	r0, r2, #13
 80010bc:	bf4c      	ite	mi
 80010be:	6d1b      	ldrmi	r3, [r3, #80]	@ 0x50
 80010c0:	6d5b      	ldrpl	r3, [r3, #84]	@ 0x54
 80010c2:	4798      	blx	r3
 80010c4:	6823      	ldr	r3, [r4, #0]
 80010c6:	0299      	lsls	r1, r3, #10
 80010c8:	d518      	bpl.n	80010fc <DMA1_Stream6_IRQHandler+0xc0>
 80010ca:	4c0f      	ldr	r4, [pc, #60]	@ (8001108 <DMA1_Stream6_IRQHandler+0xcc>)
 80010cc:	6823      	ldr	r3, [r4, #0]
 80010ce:	6cda      	ldr	r2, [r3, #76]	@ 0x4c
 80010d0:	b1a2      	cbz	r2, 80010fc <DMA1_Stream6_IRQHandler+0xc0>
 80010d2:	6c9b      	ldr	r3, [r3, #72]	@ 0x48
 80010d4:	4798      	blx	r3
 80010d6:	4a0a      	ldr	r2, [pc, #40]	@ (8001100 <DMA1_Stream6_IRQHandler+0xc4>)
 80010d8:	68d3      	ldr	r3, [r2, #12]
 80010da:	f443 1300 	orr.w	r3, r3, #2097152	@ 0x200000
 80010de:	60d3      	str	r3, [r2, #12]
 80010e0:	6823      	ldr	r3, [r4, #0]
 80010e2:	6b9a      	ldr	r2, [r3, #56]	@ 0x38
 80010e4:	f5b2 2f80 	cmp.w	r2, #262144	@ 0x40000
 80010e8:	d108      	bne.n	80010fc <DMA1_Stream6_IRQHandler+0xc0>
 80010ea:	685a      	ldr	r2, [r3, #4]
 80010ec:	6812      	ldr	r2, [r2, #0]
 80010ee:	0352      	lsls	r2, r2, #13
 80010f0:	e8bd 4070 	ldmia.w	sp!, {r4, r5, r6, lr}
 80010f4:	bf4c      	ite	mi
 80010f6:	6d1b      	ldrmi	r3, [r3, #80]	@ 0x50
 80010f8:	6d5b      	ldrpl	r3, [r3, #84]	@ 0x54
 80010fa:	4718      	bx	r3
 80010fc:	bd70      	pop	{r4, r5, r6, pc}
 80010fe:	bf00      	nop
 8001100:	40026000 	.word	0x40026000
 8001104:	20000020 	.word	0x20000020
 8001108:	2000004c 	.word	0x2000004c

0800110c <DMA1_Stream7_IRQHandler>:
 800110c:	b570      	push	{r4, r5, r6, lr}
 800110e:	4d30      	ldr	r5, [pc, #192]	@ (80011d0 <DMA1_Stream7_IRQHandler+0xc4>)
 8001110:	4c30      	ldr	r4, [pc, #192]	@ (80011d4 <DMA1_Stream7_IRQHandler+0xc8>)
 8001112:	686b      	ldr	r3, [r5, #4]
 8001114:	6023      	str	r3, [r4, #0]
 8001116:	6823      	ldr	r3, [r4, #0]
 8001118:	025a      	lsls	r2, r3, #9
 800111a:	d508      	bpl.n	800112e <DMA1_Stream7_IRQHandler+0x22>
 800111c:	4b2e      	ldr	r3, [pc, #184]	@ (80011d8 <DMA1_Stream7_IRQHandler+0xcc>)
 800111e:	681b      	ldr	r3, [r3, #0]
 8001120:	6bdb      	ldr	r3, [r3, #60]	@ 0x3c
 8001122:	b123      	cbz	r3, 800112e <DMA1_Stream7_IRQHandler+0x22>
 8001124:	4798      	blx	r3
 8001126:	68eb      	ldr	r3, [r5, #12]
 8001128:	f443 0380 	orr.w	r3, r3, #4194304	@ 0x400000
 800112c:	60eb      	str	r3, [r5, #12]
 800112e:	6823      	ldr	r3, [r4, #0]
 8001130:	01db      	lsls	r3, r3, #7
 8001132:	d509      	bpl.n	8001148 <DMA1_Stream7_IRQHandler+0x3c>
 8001134:	4b28      	ldr	r3, [pc, #160]	@ (80011d8 <DMA1_Stream7_IRQHandler+0xcc>)
 8001136:	681b      	ldr	r3, [r3, #0]
 8001138:	6c1b      	ldr	r3, [r3, #64]	@ 0x40
 800113a:	b12b      	cbz	r3, 8001148 <DMA1_Stream7_IRQHandler+0x3c>
 800113c:	4798      	blx	r3
 800113e:	4a24      	ldr	r2, [pc, #144]	@ (80011d0 <DMA1_Stream7_IRQHandler+0xc4>)
 8001140:	68d3      	ldr	r3, [r2, #12]
 8001142:	f043 7380 	orr.w	r3, r3, #16777216	@ 0x1000000
 8001146:	60d3      	str	r3, [r2, #12]
 8001148:	6823      	ldr	r3, [r4, #0]
 800114a:	019e      	lsls	r6, r3, #6
 800114c:	d509      	bpl.n	8001162 <DMA1_Stream7_IRQHandler+0x56>
 800114e:	4b22      	ldr	r3, [pc, #136]	@ (80011d8 <DMA1_Stream7_IRQHandler+0xcc>)
 8001150:	681b      	ldr	r3, [r3, #0]
 8001152:	6c5b      	ldr	r3, [r3, #68]	@ 0x44
 8001154:	b12b      	cbz	r3, 8001162 <DMA1_Stream7_IRQHandler+0x56>
 8001156:	4798      	blx	r3
 8001158:	4a1d      	ldr	r2, [pc, #116]	@ (80011d0 <DMA1_Stream7_IRQHandler+0xc4>)
 800115a:	68d3      	ldr	r3, [r2, #12]
 800115c:	f043 7300 	orr.w	r3, r3, #33554432	@ 0x2000000
 8001160:	60d3      	str	r3, [r2, #12]
 8001162:	6823      	ldr	r3, [r4, #0]
 8001164:	015d      	lsls	r5, r3, #5
 8001166:	d515      	bpl.n	8001194 <DMA1_Stream7_IRQHandler+0x88>
 8001168:	4d1b      	ldr	r5, [pc, #108]	@ (80011d8 <DMA1_Stream7_IRQHandler+0xcc>)
 800116a:	682b      	ldr	r3, [r5, #0]
 800116c:	6c9b      	ldr	r3, [r3, #72]	@ 0x48
 800116e:	b18b      	cbz	r3, 8001194 <DMA1_Stream7_IRQHandler+0x88>
 8001170:	4798      	blx	r3
 8001172:	4a17      	ldr	r2, [pc, #92]	@ (80011d0 <DMA1_Stream7_IRQHandler+0xc4>)
 8001174:	68d3      	ldr	r3, [r2, #12]
 8001176:	f043 6380 	orr.w	r3, r3, #67108864	@ 0x4000000
 800117a:	60d3      	str	r3, [r2, #12]
 800117c:	682b      	ldr	r3, [r5, #0]
 800117e:	6b9a      	ldr	r2, [r3, #56]	@ 0x38
 8001180:	f5b2 2f80 	cmp.w	r2, #262144	@ 0x40000
 8001184:	d106      	bne.n	8001194 <DMA1_Stream7_IRQHandler+0x88>
 8001186:	685a      	ldr	r2, [r3, #4]
 8001188:	6812      	ldr	r2, [r2, #0]
 800118a:	0350      	lsls	r0, r2, #13
 800118c:	bf4c      	ite	mi
 800118e:	6d1b      	ldrmi	r3, [r3, #80]	@ 0x50
 8001190:	6d5b      	ldrpl	r3, [r3, #84]	@ 0x54
 8001192:	4798      	blx	r3
 8001194:	6823      	ldr	r3, [r4, #0]
 8001196:	0119      	lsls	r1, r3, #4
 8001198:	d518      	bpl.n	80011cc <DMA1_Stream7_IRQHandler+0xc0>
 800119a:	4c0f      	ldr	r4, [pc, #60]	@ (80011d8 <DMA1_Stream7_IRQHandler+0xcc>)
 800119c:	6823      	ldr	r3, [r4, #0]
 800119e:	6cda      	ldr	r2, [r3, #76]	@ 0x4c
 80011a0:	b1a2      	cbz	r2, 80011cc <DMA1_Stream7_IRQHandler+0xc0>
 80011a2:	6c9b      	ldr	r3, [r3, #72]	@ 0x48
 80011a4:	4798      	blx	r3
 80011a6:	4a0a      	ldr	r2, [pc, #40]	@ (80011d0 <DMA1_Stream7_IRQHandler+0xc4>)
 80011a8:	68d3      	ldr	r3, [r2, #12]
 80011aa:	f043 6300 	orr.w	r3, r3, #134217728	@ 0x8000000
 80011ae:	60d3      	str	r3, [r2, #12]
 80011b0:	6823      	ldr	r3, [r4, #0]
 80011b2:	6b9a      	ldr	r2, [r3, #56]	@ 0x38
 80011b4:	f5b2 2f80 	cmp.w	r2, #262144	@ 0x40000
 80011b8:	d108      	bne.n	80011cc <DMA1_Stream7_IRQHandler+0xc0>
 80011ba:	685a      	ldr	r2, [r3, #4]
 80011bc:	6812      	ldr	r2, [r2, #0]
 80011be:	0352      	lsls	r2, r2, #13
 80011c0:	e8bd 4070 	ldmia.w	sp!, {r4, r5, r6, lr}
 80011c4:	bf4c      	ite	mi
 80011c6:	6d1b      	ldrmi	r3, [r3, #80]	@ 0x50
 80011c8:	6d5b      	ldrpl	r3, [r3, #84]	@ 0x54
 80011ca:	4718      	bx	r3
 80011cc:	bd70      	pop	{r4, r5, r6, pc}
 80011ce:	bf00      	nop
 80011d0:	40026000 	.word	0x40026000
 80011d4:	20000020 	.word	0x20000020
 80011d8:	20000048 	.word	0x20000048

080011dc <DMA2_Stream0_IRQHandler>:
 80011dc:	b570      	push	{r4, r5, r6, lr}
 80011de:	4d37      	ldr	r5, [pc, #220]	@ (80012bc <DMA2_Stream0_IRQHandler+0xe0>)
 80011e0:	4c37      	ldr	r4, [pc, #220]	@ (80012c0 <DMA2_Stream0_IRQHandler+0xe4>)
 80011e2:	682b      	ldr	r3, [r5, #0]
 80011e4:	6023      	str	r3, [r4, #0]
 80011e6:	6823      	ldr	r3, [r4, #0]
 80011e8:	07db      	lsls	r3, r3, #31
 80011ea:	d50b      	bpl.n	8001204 <DMA2_Stream0_IRQHandler+0x28>
 80011ec:	4b35      	ldr	r3, [pc, #212]	@ (80012c4 <DMA2_Stream0_IRQHandler+0xe8>)
 80011ee:	681b      	ldr	r3, [r3, #0]
 80011f0:	69da      	ldr	r2, [r3, #28]
 80011f2:	0616      	lsls	r6, r2, #24
 80011f4:	d506      	bpl.n	8001204 <DMA2_Stream0_IRQHandler+0x28>
 80011f6:	6bdb      	ldr	r3, [r3, #60]	@ 0x3c
 80011f8:	b123      	cbz	r3, 8001204 <DMA2_Stream0_IRQHandler+0x28>
 80011fa:	4798      	blx	r3
 80011fc:	68ab      	ldr	r3, [r5, #8]
 80011fe:	f043 0301 	orr.w	r3, r3, #1
 8001202:	60ab      	str	r3, [r5, #8]
 8001204:	6823      	ldr	r3, [r4, #0]
 8001206:	075d      	lsls	r5, r3, #29
 8001208:	d50c      	bpl.n	8001224 <DMA2_Stream0_IRQHandler+0x48>
 800120a:	4b2e      	ldr	r3, [pc, #184]	@ (80012c4 <DMA2_Stream0_IRQHandler+0xe8>)
 800120c:	681b      	ldr	r3, [r3, #0]
 800120e:	69da      	ldr	r2, [r3, #28]
 8001210:	0790      	lsls	r0, r2, #30
 8001212:	d507      	bpl.n	8001224 <DMA2_Stream0_IRQHandler+0x48>
 8001214:	6c1b      	ldr	r3, [r3, #64]	@ 0x40
 8001216:	b12b      	cbz	r3, 8001224 <DMA2_Stream0_IRQHandler+0x48>
 8001218:	4798      	blx	r3
 800121a:	4a28      	ldr	r2, [pc, #160]	@ (80012bc <DMA2_Stream0_IRQHandler+0xe0>)
 800121c:	6893      	ldr	r3, [r2, #8]
 800121e:	f043 0304 	orr.w	r3, r3, #4
 8001222:	6093      	str	r3, [r2, #8]
 8001224:	6823      	ldr	r3, [r4, #0]
 8001226:	0719      	lsls	r1, r3, #28
 8001228:	d50c      	bpl.n	8001244 <DMA2_Stream0_IRQHandler+0x68>
 800122a:	4b26      	ldr	r3, [pc, #152]	@ (80012c4 <DMA2_Stream0_IRQHandler+0xe8>)
 800122c:	681b      	ldr	r3, [r3, #0]
 800122e:	69da      	ldr	r2, [r3, #28]
 8001230:	0752      	lsls	r2, r2, #29
 8001232:	d507      	bpl.n	8001244 <DMA2_Stream0_IRQHandler+0x68>
 8001234:	6c5b      	ldr	r3, [r3, #68]	@ 0x44
 8001236:	b12b      	cbz	r3, 8001244 <DMA2_Stream0_IRQHandler+0x68>
 8001238:	4798      	blx	r3
 800123a:	4a20      	ldr	r2, [pc, #128]	@ (80012bc <DMA2_Stream0_IRQHandler+0xe0>)
 800123c:	6893      	ldr	r3, [r2, #8]
 800123e:	f043 0308 	orr.w	r3, r3, #8
 8001242:	6093      	str	r3, [r2, #8]
 8001244:	6823      	ldr	r3, [r4, #0]
 8001246:	06db      	lsls	r3, r3, #27
 8001248:	d518      	bpl.n	800127c <DMA2_Stream0_IRQHandler+0xa0>
 800124a:	4d1e      	ldr	r5, [pc, #120]	@ (80012c4 <DMA2_Stream0_IRQHandler+0xe8>)
 800124c:	682b      	ldr	r3, [r5, #0]
 800124e:	69da      	ldr	r2, [r3, #28]
 8001250:	0716      	lsls	r6, r2, #28
 8001252:	d513      	bpl.n	800127c <DMA2_Stream0_IRQHandler+0xa0>
 8001254:	6c9b      	ldr	r3, [r3, #72]	@ 0x48
 8001256:	b18b      	cbz	r3, 800127c <DMA2_Stream0_IRQHandler+0xa0>
 8001258:	4798      	blx	r3
 800125a:	4a18      	ldr	r2, [pc, #96]	@ (80012bc <DMA2_Stream0_IRQHandler+0xe0>)
 800125c:	6893      	ldr	r3, [r2, #8]
 800125e:	f043 0310 	orr.w	r3, r3, #16
 8001262:	6093      	str	r3, [r2, #8]
 8001264:	682b      	ldr	r3, [r5, #0]
 8001266:	6b9a      	ldr	r2, [r3, #56]	@ 0x38
 8001268:	f5b2 2f80 	cmp.w	r2, #262144	@ 0x40000
 800126c:	d106      	bne.n	800127c <DMA2_Stream0_IRQHandler+0xa0>
 800126e:	685a      	ldr	r2, [r3, #4]
 8001270:	6812      	ldr	r2, [r2, #0]
 8001272:	0355      	lsls	r5, r2, #13
 8001274:	bf4c      	ite	mi
 8001276:	6d1b      	ldrmi	r3, [r3, #80]	@ 0x50
 8001278:	6d5b      	ldrpl	r3, [r3, #84]	@ 0x54
 800127a:	4798      	blx	r3
 800127c:	6823      	ldr	r3, [r4, #0]
 800127e:	0698      	lsls	r0, r3, #26
 8001280:	d51a      	bpl.n	80012b8 <DMA2_Stream0_IRQHandler+0xdc>
 8001282:	4c10      	ldr	r4, [pc, #64]	@ (80012c4 <DMA2_Stream0_IRQHandler+0xe8>)
 8001284:	6823      	ldr	r3, [r4, #0]
 8001286:	69da      	ldr	r2, [r3, #28]
 8001288:	06d1      	lsls	r1, r2, #27
 800128a:	d515      	bpl.n	80012b8 <DMA2_Stream0_IRQHandler+0xdc>
 800128c:	6cdb      	ldr	r3, [r3, #76]	@ 0x4c
 800128e:	b19b      	cbz	r3, 80012b8 <DMA2_Stream0_IRQHandler+0xdc>
 8001290:	4798      	blx	r3
 8001292:	4a0a      	ldr	r2, [pc, #40]	@ (80012bc <DMA2_Stream0_IRQHandler+0xe0>)
 8001294:	6893      	ldr	r3, [r2, #8]
 8001296:	f043 0320 	orr.w	r3, r3, #32
 800129a:	6093      	str	r3, [r2, #8]
 800129c:	6823      	ldr	r3, [r4, #0]
 800129e:	6b9a      	ldr	r2, [r3, #56]	@ 0x38
 80012a0:	f5b2 2f80 	cmp.w	r2, #262144	@ 0x40000
 80012a4:	d108      	bne.n	80012b8 <DMA2_Stream0_IRQHandler+0xdc>
 80012a6:	685a      	ldr	r2, [r3, #4]
 80012a8:	6812      	ldr	r2, [r2, #0]
 80012aa:	0352      	lsls	r2, r2, #13
 80012ac:	e8bd 4070 	ldmia.w	sp!, {r4, r5, r6, lr}
 80012b0:	bf4c      	ite	mi
 80012b2:	6d1b      	ldrmi	r3, [r3, #80]	@ 0x50
 80012b4:	6d5b      	ldrpl	r3, [r3, #84]	@ 0x54
 80012b6:	4718      	bx	r3
 80012b8:	bd70      	pop	{r4, r5, r6, pc}
 80012ba:	bf00      	nop
 80012bc:	40026400 	.word	0x40026400
 80012c0:	20000024 	.word	0x20000024
 80012c4:	20000044 	.word	0x20000044

080012c8 <DMA2_Stream1_IRQHandler>:
 80012c8:	b570      	push	{r4, r5, r6, lr}
 80012ca:	4d30      	ldr	r5, [pc, #192]	@ (800138c <DMA2_Stream1_IRQHandler+0xc4>)
 80012cc:	4c30      	ldr	r4, [pc, #192]	@ (8001390 <DMA2_Stream1_IRQHandler+0xc8>)
 80012ce:	682b      	ldr	r3, [r5, #0]
 80012d0:	6023      	str	r3, [r4, #0]
 80012d2:	6823      	ldr	r3, [r4, #0]
 80012d4:	065a      	lsls	r2, r3, #25
 80012d6:	d508      	bpl.n	80012ea <DMA2_Stream1_IRQHandler+0x22>
 80012d8:	4b2e      	ldr	r3, [pc, #184]	@ (8001394 <DMA2_Stream1_IRQHandler+0xcc>)
 80012da:	681b      	ldr	r3, [r3, #0]
 80012dc:	6bdb      	ldr	r3, [r3, #60]	@ 0x3c
 80012de:	b123      	cbz	r3, 80012ea <DMA2_Stream1_IRQHandler+0x22>
 80012e0:	4798      	blx	r3
 80012e2:	68ab      	ldr	r3, [r5, #8]
 80012e4:	f043 0340 	orr.w	r3, r3, #64	@ 0x40
 80012e8:	60ab      	str	r3, [r5, #8]
 80012ea:	6823      	ldr	r3, [r4, #0]
 80012ec:	05db      	lsls	r3, r3, #23
 80012ee:	d509      	bpl.n	8001304 <DMA2_Stream1_IRQHandler+0x3c>
 80012f0:	4b28      	ldr	r3, [pc, #160]	@ (8001394 <DMA2_Stream1_IRQHandler+0xcc>)
 80012f2:	681b      	ldr	r3, [r3, #0]
 80012f4:	6c1b      	ldr	r3, [r3, #64]	@ 0x40
 80012f6:	b12b      	cbz	r3, 8001304 <DMA2_Stream1_IRQHandler+0x3c>
 80012f8:	4798      	blx	r3
 80012fa:	4a24      	ldr	r2, [pc, #144]	@ (800138c <DMA2_Stream1_IRQHandler+0xc4>)
 80012fc:	6893      	ldr	r3, [r2, #8]
 80012fe:	f443 7380 	orr.w	r3, r3, #256	@ 0x100
 8001302:	6093      	str	r3, [r2, #8]
 8001304:	6823      	ldr	r3, [r4, #0]
 8001306:	059e      	lsls	r6, r3, #22
 8001308:	d509      	bpl.n	800131e <DMA2_Stream1_IRQHandler+0x56>
 800130a:	4b22      	ldr	r3, [pc, #136]	@ (8001394 <DMA2_Stream1_IRQHandler+0xcc>)
 800130c:	681b      	ldr	r3, [r3, #0]
 800130e:	6c5b      	ldr	r3, [r3, #68]	@ 0x44
 8001310:	b12b      	cbz	r3, 800131e <DMA2_Stream1_IRQHandler+0x56>
 8001312:	4798      	blx	r3
 8001314:	4a1d      	ldr	r2, [pc, #116]	@ (800138c <DMA2_Stream1_IRQHandler+0xc4>)
 8001316:	6893      	ldr	r3, [r2, #8]
 8001318:	f443 7300 	orr.w	r3, r3, #512	@ 0x200
 800131c:	6093      	str	r3, [r2, #8]
 800131e:	6823      	ldr	r3, [r4, #0]
 8001320:	055d      	lsls	r5, r3, #21
 8001322:	d515      	bpl.n	8001350 <DMA2_Stream1_IRQHandler+0x88>
 8001324:	4d1b      	ldr	r5, [pc, #108]	@ (8001394 <DMA2_Stream1_IRQHandler+0xcc>)
 8001326:	682b      	ldr	r3, [r5, #0]
 8001328:	6c9b      	ldr	r3, [r3, #72]	@ 0x48
 800132a:	b18b      	cbz	r3, 8001350 <DMA2_Stream1_IRQHandler+0x88>
 800132c:	4798      	blx	r3
 800132e:	4a17      	ldr	r2, [pc, #92]	@ (800138c <DMA2_Stream1_IRQHandler+0xc4>)
 8001330:	6893      	ldr	r3, [r2, #8]
 8001332:	f443 6380 	orr.w	r3, r3, #1024	@ 0x400
 8001336:	6093      	str	r3, [r2, #8]
 8001338:	682b      	ldr	r3, [r5, #0]
 800133a:	6b9a      	ldr	r2, [r3, #56]	@ 0x38
 800133c:	f5b2 2f80 	cmp.w	r2, #262144	@ 0x40000
 8001340:	d106      	bne.n	8001350 <DMA2_Stream1_IRQHandler+0x88>
 8001342:	685a      	ldr	r2, [r3, #4]
 8001344:	6812      	ldr	r2, [r2, #0]
 8001346:	0350      	lsls	r0, r2, #13
 8001348:	bf4c      	ite	mi
 800134a:	6d1b      	ldrmi	r3, [r3, #80]	@ 0x50
 800134c:	6d5b      	ldrpl	r3, [r3, #84]	@ 0x54
 800134e:	4798      	blx	r3
 8001350:	6823      	ldr	r3, [r4, #0]
 8001352:	0519      	lsls	r1, r3, #20
 8001354:	d518      	bpl.n	8001388 <DMA2_Stream1_IRQHandler+0xc0>
 8001356:	4c0f      	ldr	r4, [pc, #60]	@ (8001394 <DMA2_Stream1_IRQHandler+0xcc>)
 8001358:	6823      	ldr	r3, [r4, #0]
 800135a:	6cda      	ldr	r2, [r3, #76]	@ 0x4c
 800135c:	b1a2      	cbz	r2, 8001388 <DMA2_Stream1_IRQHandler+0xc0>
 800135e:	6c9b      	ldr	r3, [r3, #72]	@ 0x48
 8001360:	4798      	blx	r3
 8001362:	4a0a      	ldr	r2, [pc, #40]	@ (800138c <DMA2_Stream1_IRQHandler+0xc4>)
 8001364:	6893      	ldr	r3, [r2, #8]
 8001366:	f443 6300 	orr.w	r3, r3, #2048	@ 0x800
 800136a:	6093      	str	r3, [r2, #8]
 800136c:	6823      	ldr	r3, [r4, #0]
 800136e:	6b9a      	ldr	r2, [r3, #56]	@ 0x38
 8001370:	f5b2 2f80 	cmp.w	r2, #262144	@ 0x40000
 8001374:	d108      	bne.n	8001388 <DMA2_Stream1_IRQHandler+0xc0>
 8001376:	685a      	ldr	r2, [r3, #4]
 8001378:	6812      	ldr	r2, [r2, #0]
 800137a:	0352      	lsls	r2, r2, #13
 800137c:	e8bd 4070 	ldmia.w	sp!, {r4, r5, r6, lr}
 8001380:	bf4c      	ite	mi
 8001382:	6d1b      	ldrmi	r3, [r3, #80]	@ 0x50
 8001384:	6d5b      	ldrpl	r3, [r3, #84]	@ 0x54
 8001386:	4718      	bx	r3
 8001388:	bd70      	pop	{r4, r5, r6, pc}
 800138a:	bf00      	nop
 800138c:	40026400 	.word	0x40026400
 8001390:	20000024 	.word	0x20000024
 8001394:	20000040 	.word	0x20000040

08001398 <DMA2_Stream2_IRQHandler>:
 8001398:	b570      	push	{r4, r5, r6, lr}
 800139a:	4d30      	ldr	r5, [pc, #192]	@ (800145c <DMA2_Stream2_IRQHandler+0xc4>)
 800139c:	4c30      	ldr	r4, [pc, #192]	@ (8001460 <DMA2_Stream2_IRQHandler+0xc8>)
 800139e:	682b      	ldr	r3, [r5, #0]
 80013a0:	6023      	str	r3, [r4, #0]
 80013a2:	6823      	ldr	r3, [r4, #0]
 80013a4:	03da      	lsls	r2, r3, #15
 80013a6:	d508      	bpl.n	80013ba <DMA2_Stream2_IRQHandler+0x22>
 80013a8:	4b2e      	ldr	r3, [pc, #184]	@ (8001464 <DMA2_Stream2_IRQHandler+0xcc>)
 80013aa:	681b      	ldr	r3, [r3, #0]
 80013ac:	6bdb      	ldr	r3, [r3, #60]	@ 0x3c
 80013ae:	b123      	cbz	r3, 80013ba <DMA2_Stream2_IRQHandler+0x22>
 80013b0:	4798      	blx	r3
 80013b2:	68ab      	ldr	r3, [r5, #8]
 80013b4:	f443 3380 	orr.w	r3, r3, #65536	@ 0x10000
 80013b8:	60ab      	str	r3, [r5, #8]
 80013ba:	6823      	ldr	r3, [r4, #0]
 80013bc:	035b      	lsls	r3, r3, #13
 80013be:	d509      	bpl.n	80013d4 <DMA2_Stream2_IRQHandler+0x3c>
 80013c0:	4b28      	ldr	r3, [pc, #160]	@ (8001464 <DMA2_Stream2_IRQHandler+0xcc>)
 80013c2:	681b      	ldr	r3, [r3, #0]
 80013c4:	6c1b      	ldr	r3, [r3, #64]	@ 0x40
 80013c6:	b12b      	cbz	r3, 80013d4 <DMA2_Stream2_IRQHandler+0x3c>
 80013c8:	4798      	blx	r3
 80013ca:	4a24      	ldr	r2, [pc, #144]	@ (800145c <DMA2_Stream2_IRQHandler+0xc4>)
 80013cc:	6893      	ldr	r3, [r2, #8]
 80013ce:	f443 2380 	orr.w	r3, r3, #262144	@ 0x40000
 80013d2:	6093      	str	r3, [r2, #8]
 80013d4:	6823      	ldr	r3, [r4, #0]
 80013d6:	031e      	lsls	r6, r3, #12
 80013d8:	d509      	bpl.n	80013ee <DMA2_Stream2_IRQHandler+0x56>
 80013da:	4b22      	ldr	r3, [pc, #136]	@ (8001464 <DMA2_Stream2_IRQHandler+0xcc>)
 80013dc:	681b      	ldr	r3, [r3, #0]
 80013de:	6c5b      	ldr	r3, [r3, #68]	@ 0x44
 80013e0:	b12b      	cbz	r3, 80013ee <DMA2_Stream2_IRQHandler+0x56>
 80013e2:	4798      	blx	r3
 80013e4:	4a1d      	ldr	r2, [pc, #116]	@ (800145c <DMA2_Stream2_IRQHandler+0xc4>)
 80013e6:	6893      	ldr	r3, [r2, #8]
 80013e8:	f443 2300 	orr.w	r3, r3, #524288	@ 0x80000
 80013ec:	6093      	str	r3, [r2, #8]
 80013ee:	6823      	ldr	r3, [r4, #0]
 80013f0:	02dd      	lsls	r5, r3, #11
 80013f2:	d515      	bpl.n	8001420 <DMA2_Stream2_IRQHandler+0x88>
 80013f4:	4d1b      	ldr	r5, [pc, #108]	@ (8001464 <DMA2_Stream2_IRQHandler+0xcc>)
 80013f6:	682b      	ldr	r3, [r5, #0]
 80013f8:	6c9b      	ldr	r3, [r3, #72]	@ 0x48
 80013fa:	b18b      	cbz	r3, 8001420 <DMA2_Stream2_IRQHandler+0x88>
 80013fc:	4798      	blx	r3
 80013fe:	4a17      	ldr	r2, [pc, #92]	@ (800145c <DMA2_Stream2_IRQHandler+0xc4>)
 8001400:	6893      	ldr	r3, [r2, #8]
 8001402:	f443 1380 	orr.w	r3, r3, #1048576	@ 0x100000
 8001406:	6093      	str	r3, [r2, #8]
 8001408:	682b      	ldr	r3, [r5, #0]
 800140a:	6b9a      	ldr	r2, [r3, #56]	@ 0x38
 800140c:	f5b2 2f80 	cmp.w	r2, #262144	@ 0x40000
 8001410:	d106      	bne.n	8001420 <DMA2_Stream2_IRQHandler+0x88>
 8001412:	685a      	ldr	r2, [r3, #4]
 8001414:	6812      	ldr	r2, [r2, #0]
 8001416:	0350      	lsls	r0, r2, #13
 8001418:	bf4c      	ite	mi
 800141a:	6d1b      	ldrmi	r3, [r3, #80]	@ 0x50
 800141c:	6d5b      	ldrpl	r3, [r3, #84]	@ 0x54
 800141e:	4798      	blx	r3
 8001420:	6823      	ldr	r3, [r4, #0]
 8001422:	0299      	lsls	r1, r3, #10
 8001424:	d518      	bpl.n	8001458 <DMA2_Stream2_IRQHandler+0xc0>
 8001426:	4c0f      	ldr	r4, [pc, #60]	@ (8001464 <DMA2_Stream2_IRQHandler+0xcc>)
 8001428:	6823      	ldr	r3, [r4, #0]
 800142a:	6cda      	ldr	r2, [r3, #76]	@ 0x4c
 800142c:	b1a2      	cbz	r2, 8001458 <DMA2_Stream2_IRQHandler+0xc0>
 800142e:	6c9b      	ldr	r3, [r3, #72]	@ 0x48
 8001430:	4798      	blx	r3
 8001432:	4a0a      	ldr	r2, [pc, #40]	@ (800145c <DMA2_Stream2_IRQHandler+0xc4>)
 8001434:	6893      	ldr	r3, [r2, #8]
 8001436:	f443 1300 	orr.w	r3, r3, #2097152	@ 0x200000
 800143a:	6093      	str	r3, [r2, #8]
 800143c:	6823      	ldr	r3, [r4, #0]
 800143e:	6b9a      	ldr	r2, [r3, #56]	@ 0x38
 8001440:	f5b2 2f80 	cmp.w	r2, #262144	@ 0x40000
 8001444:	d108      	bne.n	8001458 <DMA2_Stream2_IRQHandler+0xc0>
 8001446:	685a      	ldr	r2, [r3, #4]
 8001448:	6812      	ldr	r2, [r2, #0]
 800144a:	0352      	lsls	r2, r2, #13
 800144c:	e8bd 4070 	ldmia.w	sp!, {r4, r5, r6, lr}
 8001450:	bf4c      	ite	mi
 8001452:	6d1b      	ldrmi	r3, [r3, #80]	@ 0x50
 8001454:	6d5b      	ldrpl	r3, [r3, #84]	@ 0x54
 8001456:	4718      	bx	r3
 8001458:	bd70      	pop	{r4, r5, r6, pc}
 800145a:	bf00      	nop
 800145c:	40026400 	.word	0x40026400
 8001460:	20000024 	.word	0x20000024
 8001464:	2000003c 	.word	0x2000003c

08001468 <DMA2_Stream3_IRQHandler>:
 8001468:	b570      	push	{r4, r5, r6, lr}
 800146a:	4d37      	ldr	r5, [pc, #220]	@ (8001548 <DMA2_Stream3_IRQHandler+0xe0>)
 800146c:	4c37      	ldr	r4, [pc, #220]	@ (800154c <DMA2_Stream3_IRQHandler+0xe4>)
 800146e:	682b      	ldr	r3, [r5, #0]
 8001470:	6023      	str	r3, [r4, #0]
 8001472:	6823      	ldr	r3, [r4, #0]
 8001474:	025b      	lsls	r3, r3, #9
 8001476:	d50b      	bpl.n	8001490 <DMA2_Stream3_IRQHandler+0x28>
 8001478:	4b35      	ldr	r3, [pc, #212]	@ (8001550 <DMA2_Stream3_IRQHandler+0xe8>)
 800147a:	681b      	ldr	r3, [r3, #0]
 800147c:	69da      	ldr	r2, [r3, #28]
 800147e:	0616      	lsls	r6, r2, #24
 8001480:	d506      	bpl.n	8001490 <DMA2_Stream3_IRQHandler+0x28>
 8001482:	6bdb      	ldr	r3, [r3, #60]	@ 0x3c
 8001484:	b123      	cbz	r3, 8001490 <DMA2_Stream3_IRQHandler+0x28>
 8001486:	4798      	blx	r3
 8001488:	68ab      	ldr	r3, [r5, #8]
 800148a:	f443 0380 	orr.w	r3, r3, #4194304	@ 0x400000
 800148e:	60ab      	str	r3, [r5, #8]
 8001490:	6823      	ldr	r3, [r4, #0]
 8001492:	01dd      	lsls	r5, r3, #7
 8001494:	d50c      	bpl.n	80014b0 <DMA2_Stream3_IRQHandler+0x48>
 8001496:	4b2e      	ldr	r3, [pc, #184]	@ (8001550 <DMA2_Stream3_IRQHandler+0xe8>)
 8001498:	681b      	ldr	r3, [r3, #0]
 800149a:	69da      	ldr	r2, [r3, #28]
 800149c:	0790      	lsls	r0, r2, #30
 800149e:	d507      	bpl.n	80014b0 <DMA2_Stream3_IRQHandler+0x48>
 80014a0:	6c1b      	ldr	r3, [r3, #64]	@ 0x40
 80014a2:	b12b      	cbz	r3, 80014b0 <DMA2_Stream3_IRQHandler+0x48>
 80014a4:	4798      	blx	r3
 80014a6:	4a28      	ldr	r2, [pc, #160]	@ (8001548 <DMA2_Stream3_IRQHandler+0xe0>)
 80014a8:	6893      	ldr	r3, [r2, #8]
 80014aa:	f043 7380 	orr.w	r3, r3, #16777216	@ 0x1000000
 80014ae:	6093      	str	r3, [r2, #8]
 80014b0:	6823      	ldr	r3, [r4, #0]
 80014b2:	0199      	lsls	r1, r3, #6
 80014b4:	d50c      	bpl.n	80014d0 <DMA2_Stream3_IRQHandler+0x68>
 80014b6:	4b26      	ldr	r3, [pc, #152]	@ (8001550 <DMA2_Stream3_IRQHandler+0xe8>)
 80014b8:	681b      	ldr	r3, [r3, #0]
 80014ba:	69da      	ldr	r2, [r3, #28]
 80014bc:	0752      	lsls	r2, r2, #29
 80014be:	d507      	bpl.n	80014d0 <DMA2_Stream3_IRQHandler+0x68>
 80014c0:	6c5b      	ldr	r3, [r3, #68]	@ 0x44
 80014c2:	b12b      	cbz	r3, 80014d0 <DMA2_Stream3_IRQHandler+0x68>
 80014c4:	4798      	blx	r3
 80014c6:	4a20      	ldr	r2, [pc, #128]	@ (8001548 <DMA2_Stream3_IRQHandler+0xe0>)
 80014c8:	6893      	ldr	r3, [r2, #8]
 80014ca:	f043 7300 	orr.w	r3, r3, #33554432	@ 0x2000000
 80014ce:	6093      	str	r3, [r2, #8]
 80014d0:	6823      	ldr	r3, [r4, #0]
 80014d2:	015b      	lsls	r3, r3, #5
 80014d4:	d518      	bpl.n	8001508 <DMA2_Stream3_IRQHandler+0xa0>
 80014d6:	4d1e      	ldr	r5, [pc, #120]	@ (8001550 <DMA2_Stream3_IRQHandler+0xe8>)
 80014d8:	682b      	ldr	r3, [r5, #0]
 80014da:	69da      	ldr	r2, [r3, #28]
 80014dc:	0716      	lsls	r6, r2, #28
 80014de:	d513      	bpl.n	8001508 <DMA2_Stream3_IRQHandler+0xa0>
 80014e0:	6c9b      	ldr	r3, [r3, #72]	@ 0x48
 80014e2:	b18b      	cbz	r3, 8001508 <DMA2_Stream3_IRQHandler+0xa0>
 80014e4:	4798      	blx	r3
 80014e6:	4a18      	ldr	r2, [pc, #96]	@ (8001548 <DMA2_Stream3_IRQHandler+0xe0>)
 80014e8:	6893      	ldr	r3, [r2, #8]
 80014ea:	f043 6380 	orr.w	r3, r3, #67108864	@ 0x4000000
 80014ee:	6093      	str	r3, [r2, #8]
 80014f0:	682b      	ldr	r3, [r5, #0]
 80014f2:	6b9a      	ldr	r2, [r3, #56]	@ 0x38
 80014f4:	f5b2 2f80 	cmp.w	r2, #262144	@ 0x40000
 80014f8:	d106      	bne.n	8001508 <DMA2_Stream3_IRQHandler+0xa0>
 80014fa:	685a      	ldr	r2, [r3, #4]
 80014fc:	6812      	ldr	r2, [r2, #0]
 80014fe:	0355      	lsls	r5, r2, #13
 8001500:	bf4c      	ite	mi
 8001502:	6d1b      	ldrmi	r3, [r3, #80]	@ 0x50
 8001504:	6d5b      	ldrpl	r3, [r3, #84]	@ 0x54
 8001506:	4798      	blx	r3
 8001508:	6823      	ldr	r3, [r4, #0]
 800150a:	0118      	lsls	r0, r3, #4
 800150c:	d51a      	bpl.n	8001544 <DMA2_Stream3_IRQHandler+0xdc>
 800150e:	4c10      	ldr	r4, [pc, #64]	@ (8001550 <DMA2_Stream3_IRQHandler+0xe8>)
 8001510:	6823      	ldr	r3, [r4, #0]
 8001512:	69da      	ldr	r2, [r3, #28]
 8001514:	06d1      	lsls	r1, r2, #27
 8001516:	d515      	bpl.n	8001544 <DMA2_Stream3_IRQHandler+0xdc>
 8001518:	6cdb      	ldr	r3, [r3, #76]	@ 0x4c
 800151a:	b19b      	cbz	r3, 8001544 <DMA2_Stream3_IRQHandler+0xdc>
 800151c:	4798      	blx	r3
 800151e:	4a0a      	ldr	r2, [pc, #40]	@ (8001548 <DMA2_Stream3_IRQHandler+0xe0>)
 8001520:	6893      	ldr	r3, [r2, #8]
 8001522:	f043 6300 	orr.w	r3, r3, #134217728	@ 0x8000000
 8001526:	6093      	str	r3, [r2, #8]
 8001528:	6823      	ldr	r3, [r4, #0]
 800152a:	6b9a      	ldr	r2, [r3, #56]	@ 0x38
 800152c:	f5b2 2f80 	cmp.w	r2, #262144	@ 0x40000
 8001530:	d108      	bne.n	8001544 <DMA2_Stream3_IRQHandler+0xdc>
 8001532:	685a      	ldr	r2, [r3, #4]
 8001534:	6812      	ldr	r2, [r2, #0]
 8001536:	0352      	lsls	r2, r2, #13
 8001538:	e8bd 4070 	ldmia.w	sp!, {r4, r5, r6, lr}
 800153c:	bf4c      	ite	mi
 800153e:	6d1b      	ldrmi	r3, [r3, #80]	@ 0x50
 8001540:	6d5b      	ldrpl	r3, [r3, #84]	@ 0x54
 8001542:	4718      	bx	r3
 8001544:	bd70      	pop	{r4, r5, r6, pc}
 8001546:	bf00      	nop
 8001548:	40026400 	.word	0x40026400
 800154c:	20000024 	.word	0x20000024
 8001550:	20000038 	.word	0x20000038

08001554 <DMA2_Stream4_IRQHandler>:
 8001554:	b570      	push	{r4, r5, r6, lr}
 8001556:	4d30      	ldr	r5, [pc, #192]	@ (8001618 <DMA2_Stream4_IRQHandler+0xc4>)
 8001558:	4c30      	ldr	r4, [pc, #192]	@ (800161c <DMA2_Stream4_IRQHandler+0xc8>)
 800155a:	686b      	ldr	r3, [r5, #4]
 800155c:	6023      	str	r3, [r4, #0]
 800155e:	6823      	ldr	r3, [r4, #0]
 8001560:	07da      	lsls	r2, r3, #31
 8001562:	d508      	bpl.n	8001576 <DMA2_Stream4_IRQHandler+0x22>
 8001564:	4b2e      	ldr	r3, [pc, #184]	@ (8001620 <DMA2_Stream4_IRQHandler+0xcc>)
 8001566:	681b      	ldr	r3, [r3, #0]
 8001568:	6bdb      	ldr	r3, [r3, #60]	@ 0x3c
 800156a:	b123      	cbz	r3, 8001576 <DMA2_Stream4_IRQHandler+0x22>
 800156c:	4798      	blx	r3
 800156e:	68ab      	ldr	r3, [r5, #8]
 8001570:	f043 0340 	orr.w	r3, r3, #64	@ 0x40
 8001574:	60ab      	str	r3, [r5, #8]
 8001576:	6823      	ldr	r3, [r4, #0]
 8001578:	075b      	lsls	r3, r3, #29
 800157a:	d509      	bpl.n	8001590 <DMA2_Stream4_IRQHandler+0x3c>
 800157c:	4b28      	ldr	r3, [pc, #160]	@ (8001620 <DMA2_Stream4_IRQHandler+0xcc>)
 800157e:	681b      	ldr	r3, [r3, #0]
 8001580:	6c1b      	ldr	r3, [r3, #64]	@ 0x40
 8001582:	b12b      	cbz	r3, 8001590 <DMA2_Stream4_IRQHandler+0x3c>
 8001584:	4798      	blx	r3
 8001586:	4a24      	ldr	r2, [pc, #144]	@ (8001618 <DMA2_Stream4_IRQHandler+0xc4>)
 8001588:	68d3      	ldr	r3, [r2, #12]
 800158a:	f043 0304 	orr.w	r3, r3, #4
 800158e:	60d3      	str	r3, [r2, #12]
 8001590:	6823      	ldr	r3, [r4, #0]
 8001592:	071e      	lsls	r6, r3, #28
 8001594:	d509      	bpl.n	80015aa <DMA2_Stream4_IRQHandler+0x56>
 8001596:	4b22      	ldr	r3, [pc, #136]	@ (8001620 <DMA2_Stream4_IRQHandler+0xcc>)
 8001598:	681b      	ldr	r3, [r3, #0]
 800159a:	6c5b      	ldr	r3, [r3, #68]	@ 0x44
 800159c:	b12b      	cbz	r3, 80015aa <DMA2_Stream4_IRQHandler+0x56>
 800159e:	4798      	blx	r3
 80015a0:	4a1d      	ldr	r2, [pc, #116]	@ (8001618 <DMA2_Stream4_IRQHandler+0xc4>)
 80015a2:	68d3      	ldr	r3, [r2, #12]
 80015a4:	f043 0308 	orr.w	r3, r3, #8
 80015a8:	60d3      	str	r3, [r2, #12]
 80015aa:	6823      	ldr	r3, [r4, #0]
 80015ac:	06dd      	lsls	r5, r3, #27
 80015ae:	d515      	bpl.n	80015dc <DMA2_Stream4_IRQHandler+0x88>
 80015b0:	4d1b      	ldr	r5, [pc, #108]	@ (8001620 <DMA2_Stream4_IRQHandler+0xcc>)
 80015b2:	682b      	ldr	r3, [r5, #0]
 80015b4:	6c9b      	ldr	r3, [r3, #72]	@ 0x48
 80015b6:	b18b      	cbz	r3, 80015dc <DMA2_Stream4_IRQHandler+0x88>
 80015b8:	4798      	blx	r3
 80015ba:	4a17      	ldr	r2, [pc, #92]	@ (8001618 <DMA2_Stream4_IRQHandler+0xc4>)
 80015bc:	68d3      	ldr	r3, [r2, #12]
 80015be:	f043 0310 	orr.w	r3, r3, #16
 80015c2:	60d3      	str	r3, [r2, #12]
 80015c4:	682b      	ldr	r3, [r5, #0]
 80015c6:	6b9a      	ldr	r2, [r3, #56]	@ 0x38
 80015c8:	f5b2 2f80 	cmp.w	r2, #262144	@ 0x40000
 80015cc:	d106      	bne.n	80015dc <DMA2_Stream4_IRQHandler+0x88>
 80015ce:	685a      	ldr	r2, [r3, #4]
 80015d0:	6812      	ldr	r2, [r2, #0]
 80015d2:	0350      	lsls	r0, r2, #13
 80015d4:	bf4c      	ite	mi
 80015d6:	6d1b      	ldrmi	r3, [r3, #80]	@ 0x50
 80015d8:	6d5b      	ldrpl	r3, [r3, #84]	@ 0x54
 80015da:	4798      	blx	r3
 80015dc:	6823      	ldr	r3, [r4, #0]
 80015de:	0699      	lsls	r1, r3, #26
 80015e0:	d518      	bpl.n	8001614 <DMA2_Stream4_IRQHandler+0xc0>
 80015e2:	4c0f      	ldr	r4, [pc, #60]	@ (8001620 <DMA2_Stream4_IRQHandler+0xcc>)
 80015e4:	6823      	ldr	r3, [r4, #0]
 80015e6:	6cda      	ldr	r2, [r3, #76]	@ 0x4c
 80015e8:	b1a2      	cbz	r2, 8001614 <DMA2_Stream4_IRQHandler+0xc0>
 80015ea:	6c9b      	ldr	r3, [r3, #72]	@ 0x48
 80015ec:	4798      	blx	r3
 80015ee:	4a0a      	ldr	r2, [pc, #40]	@ (8001618 <DMA2_Stream4_IRQHandler+0xc4>)
 80015f0:	68d3      	ldr	r3, [r2, #12]
 80015f2:	f043 0320 	orr.w	r3, r3, #32
 80015f6:	60d3      	str	r3, [r2, #12]
 80015f8:	6823      	ldr	r3, [r4, #0]
 80015fa:	6b9a      	ldr	r2, [r3, #56]	@ 0x38
 80015fc:	f5b2 2f80 	cmp.w	r2, #262144	@ 0x40000
 8001600:	d108      	bne.n	8001614 <DMA2_Stream4_IRQHandler+0xc0>
 8001602:	685a      	ldr	r2, [r3, #4]
 8001604:	6812      	ldr	r2, [r2, #0]
 8001606:	0352      	lsls	r2, r2, #13
 8001608:	e8bd 4070 	ldmia.w	sp!, {r4, r5, r6, lr}
 800160c:	bf4c      	ite	mi
 800160e:	6d1b      	ldrmi	r3, [r3, #80]	@ 0x50
 8001610:	6d5b      	ldrpl	r3, [r3, #84]	@ 0x54
 8001612:	4718      	bx	r3
 8001614:	bd70      	pop	{r4, r5, r6, pc}
 8001616:	bf00      	nop
 8001618:	40026400 	.word	0x40026400
 800161c:	20000020 	.word	0x20000020
 8001620:	20000034 	.word	0x20000034

08001624 <DMA2_Stream5_IRQHandler>:
 8001624:	b570      	push	{r4, r5, r6, lr}
 8001626:	4d30      	ldr	r5, [pc, #192]	@ (80016e8 <DMA2_Stream5_IRQHandler+0xc4>)
 8001628:	4c30      	ldr	r4, [pc, #192]	@ (80016ec <DMA2_Stream5_IRQHandler+0xc8>)
 800162a:	686b      	ldr	r3, [r5, #4]
 800162c:	6023      	str	r3, [r4, #0]
 800162e:	6823      	ldr	r3, [r4, #0]
 8001630:	065a      	lsls	r2, r3, #25
 8001632:	d508      	bpl.n	8001646 <DMA2_Stream5_IRQHandler+0x22>
 8001634:	4b2e      	ldr	r3, [pc, #184]	@ (80016f0 <DMA2_Stream5_IRQHandler+0xcc>)
 8001636:	681b      	ldr	r3, [r3, #0]
 8001638:	6bdb      	ldr	r3, [r3, #60]	@ 0x3c
 800163a:	b123      	cbz	r3, 8001646 <DMA2_Stream5_IRQHandler+0x22>
 800163c:	4798      	blx	r3
 800163e:	68eb      	ldr	r3, [r5, #12]
 8001640:	f043 0340 	orr.w	r3, r3, #64	@ 0x40
 8001644:	60eb      	str	r3, [r5, #12]
 8001646:	6823      	ldr	r3, [r4, #0]
 8001648:	05db      	lsls	r3, r3, #23
 800164a:	d509      	bpl.n	8001660 <DMA2_Stream5_IRQHandler+0x3c>
 800164c:	4b28      	ldr	r3, [pc, #160]	@ (80016f0 <DMA2_Stream5_IRQHandler+0xcc>)
 800164e:	681b      	ldr	r3, [r3, #0]
 8001650:	6c1b      	ldr	r3, [r3, #64]	@ 0x40
 8001652:	b12b      	cbz	r3, 8001660 <DMA2_Stream5_IRQHandler+0x3c>
 8001654:	4798      	blx	r3
 8001656:	4a24      	ldr	r2, [pc, #144]	@ (80016e8 <DMA2_Stream5_IRQHandler+0xc4>)
 8001658:	68d3      	ldr	r3, [r2, #12]
 800165a:	f443 7380 	orr.w	r3, r3, #256	@ 0x100
 800165e:	60d3      	str	r3, [r2, #12]
 8001660:	6823      	ldr	r3, [r4, #0]
 8001662:	059e      	lsls	r6, r3, #22
 8001664:	d509      	bpl.n	800167a <DMA2_Stream5_IRQHandler+0x56>
 8001666:	4b22      	ldr	r3, [pc, #136]	@ (80016f0 <DMA2_Stream5_IRQHandler+0xcc>)
 8001668:	681b      	ldr	r3, [r3, #0]
 800166a:	6c5b      	ldr	r3, [r3, #68]	@ 0x44
 800166c:	b12b      	cbz	r3, 800167a <DMA2_Stream5_IRQHandler+0x56>
 800166e:	4798      	blx	r3
 8001670:	4a1d      	ldr	r2, [pc, #116]	@ (80016e8 <DMA2_Stream5_IRQHandler+0xc4>)
 8001672:	68d3      	ldr	r3, [r2, #12]
 8001674:	f443 7300 	orr.w	r3, r3, #512	@ 0x200
 8001678:	60d3      	str	r3, [r2, #12]
 800167a:	6823      	ldr	r3, [r4, #0]
 800167c:	055d      	lsls	r5, r3, #21
 800167e:	d515      	bpl.n	80016ac <DMA2_Stream5_IRQHandler+0x88>
 8001680:	4d1b      	ldr	r5, [pc, #108]	@ (80016f0 <DMA2_Stream5_IRQHandler+0xcc>)
 8001682:	682b      	ldr	r3, [r5, #0]
 8001684:	6c9b      	ldr	r3, [r3, #72]	@ 0x48
 8001686:	b18b      	cbz	r3, 80016ac <DMA2_Stream5_IRQHandler+0x88>
 8001688:	4798      	blx	r3
 800168a:	4a17      	ldr	r2, [pc, #92]	@ (80016e8 <DMA2_Stream5_IRQHandler+0xc4>)
 800168c:	68d3      	ldr	r3, [r2, #12]
 800168e:	f443 6380 	orr.w	r3, r3, #1024	@ 0x400
 8001692:	60d3      	str	r3, [r2, #12]
 8001694:	682b      	ldr	r3, [r5, #0]
 8001696:	6b9a      	ldr	r2, [r3, #56]	@ 0x38
 8001698:	f5b2 2f80 	cmp.w	r2, #262144	@ 0x40000
 800169c:	d106      	bne.n	80016ac <DMA2_Stream5_IRQHandler+0x88>
 800169e:	685a      	ldr	r2, [r3, #4]
 80016a0:	6812      	ldr	r2, [r2, #0]
 80016a2:	0350      	lsls	r0, r2, #13
 80016a4:	bf4c      	ite	mi
 80016a6:	6d1b      	ldrmi	r3, [r3, #80]	@ 0x50
 80016a8:	6d5b      	ldrpl	r3, [r3, #84]	@ 0x54
 80016aa:	4798      	blx	r3
 80016ac:	6823      	ldr	r3, [r4, #0]
 80016ae:	0519      	lsls	r1, r3, #20
 80016b0:	d518      	bpl.n	80016e4 <DMA2_Stream5_IRQHandler+0xc0>
 80016b2:	4c0f      	ldr	r4, [pc, #60]	@ (80016f0 <DMA2_Stream5_IRQHandler+0xcc>)
 80016b4:	6823      	ldr	r3, [r4, #0]
 80016b6:	6cda      	ldr	r2, [r3, #76]	@ 0x4c
 80016b8:	b1a2      	cbz	r2, 80016e4 <DMA2_Stream5_IRQHandler+0xc0>
 80016ba:	6c9b      	ldr	r3, [r3, #72]	@ 0x48
 80016bc:	4798      	blx	r3
 80016be:	4a0a      	ldr	r2, [pc, #40]	@ (80016e8 <DMA2_Stream5_IRQHandler+0xc4>)
 80016c0:	68d3      	ldr	r3, [r2, #12]
 80016c2:	f443 6300 	orr.w	r3, r3, #2048	@ 0x800
 80016c6:	60d3      	str	r3, [r2, #12]
 80016c8:	6823      	ldr	r3, [r4, #0]
 80016ca:	6b9a      	ldr	r2, [r3, #56]	@ 0x38
 80016cc:	f5b2 2f80 	cmp.w	r2, #262144	@ 0x40000
 80016d0:	d108      	bne.n	80016e4 <DMA2_Stream5_IRQHandler+0xc0>
 80016d2:	685a      	ldr	r2, [r3, #4]
 80016d4:	6812      	ldr	r2, [r2, #0]
 80016d6:	0352      	lsls	r2, r2, #13
 80016d8:	e8bd 4070 	ldmia.w	sp!, {r4, r5, r6, lr}
 80016dc:	bf4c      	ite	mi
 80016de:	6d1b      	ldrmi	r3, [r3, #80]	@ 0x50
 80016e0:	6d5b      	ldrpl	r3, [r3, #84]	@ 0x54
 80016e2:	4718      	bx	r3
 80016e4:	bd70      	pop	{r4, r5, r6, pc}
 80016e6:	bf00      	nop
 80016e8:	40026400 	.word	0x40026400
 80016ec:	20000020 	.word	0x20000020
 80016f0:	20000030 	.word	0x20000030

080016f4 <DMA2_Stream6_IRQHandler>:
 80016f4:	b570      	push	{r4, r5, r6, lr}
 80016f6:	4d30      	ldr	r5, [pc, #192]	@ (80017b8 <DMA2_Stream6_IRQHandler+0xc4>)
 80016f8:	4c30      	ldr	r4, [pc, #192]	@ (80017bc <DMA2_Stream6_IRQHandler+0xc8>)
 80016fa:	686b      	ldr	r3, [r5, #4]
 80016fc:	6023      	str	r3, [r4, #0]
 80016fe:	6823      	ldr	r3, [r4, #0]
 8001700:	03da      	lsls	r2, r3, #15
 8001702:	d508      	bpl.n	8001716 <DMA2_Stream6_IRQHandler+0x22>
 8001704:	4b2e      	ldr	r3, [pc, #184]	@ (80017c0 <DMA2_Stream6_IRQHandler+0xcc>)
 8001706:	681b      	ldr	r3, [r3, #0]
 8001708:	6bdb      	ldr	r3, [r3, #60]	@ 0x3c
 800170a:	b123      	cbz	r3, 8001716 <DMA2_Stream6_IRQHandler+0x22>
 800170c:	4798      	blx	r3
 800170e:	68eb      	ldr	r3, [r5, #12]
 8001710:	f443 3380 	orr.w	r3, r3, #65536	@ 0x10000
 8001714:	60eb      	str	r3, [r5, #12]
 8001716:	6823      	ldr	r3, [r4, #0]
 8001718:	035b      	lsls	r3, r3, #13
 800171a:	d509      	bpl.n	8001730 <DMA2_Stream6_IRQHandler+0x3c>
 800171c:	4b28      	ldr	r3, [pc, #160]	@ (80017c0 <DMA2_Stream6_IRQHandler+0xcc>)
 800171e:	681b      	ldr	r3, [r3, #0]
 8001720:	6c1b      	ldr	r3, [r3, #64]	@ 0x40
 8001722:	b12b      	cbz	r3, 8001730 <DMA2_Stream6_IRQHandler+0x3c>
 8001724:	4798      	blx	r3
 8001726:	4a24      	ldr	r2, [pc, #144]	@ (80017b8 <DMA2_Stream6_IRQHandler+0xc4>)
 8001728:	68d3      	ldr	r3, [r2, #12]
 800172a:	f443 2380 	orr.w	r3, r3, #262144	@ 0x40000
 800172e:	60d3      	str	r3, [r2, #12]
 8001730:	6823      	ldr	r3, [r4, #0]
 8001732:	031e      	lsls	r6, r3, #12
 8001734:	d509      	bpl.n	800174a <DMA2_Stream6_IRQHandler+0x56>
 8001736:	4b22      	ldr	r3, [pc, #136]	@ (80017c0 <DMA2_Stream6_IRQHandler+0xcc>)
 8001738:	681b      	ldr	r3, [r3, #0]
 800173a:	6c5b      	ldr	r3, [r3, #68]	@ 0x44
 800173c:	b12b      	cbz	r3, 800174a <DMA2_Stream6_IRQHandler+0x56>
 800173e:	4798      	blx	r3
 8001740:	4a1d      	ldr	r2, [pc, #116]	@ (80017b8 <DMA2_Stream6_IRQHandler+0xc4>)
 8001742:	68d3      	ldr	r3, [r2, #12]
 8001744:	f443 2300 	orr.w	r3, r3, #524288	@ 0x80000
 8001748:	60d3      	str	r3, [r2, #12]
 800174a:	6823      	ldr	r3, [r4, #0]
 800174c:	02dd      	lsls	r5, r3, #11
 800174e:	d515      	bpl.n	800177c <DMA2_Stream6_IRQHandler+0x88>
 8001750:	4d1b      	ldr	r5, [pc, #108]	@ (80017c0 <DMA2_Stream6_IRQHandler+0xcc>)
 8001752:	682b      	ldr	r3, [r5, #0]
 8001754:	6c9b      	ldr	r3, [r3, #72]	@ 0x48
 8001756:	b18b      	cbz	r3, 800177c <DMA2_Stream6_IRQHandler+0x88>
 8001758:	4798      	blx	r3
 800175a:	4a17      	ldr	r2, [pc, #92]	@ (80017b8 <DMA2_Stream6_IRQHandler+0xc4>)
 800175c:	68d3      	ldr	r3, [r2, #12]
 800175e:	f443 1380 	orr.w	r3, r3, #1048576	@ 0x100000
 8001762:	60d3      	str	r3, [r2, #12]
 8001764:	682b      	ldr	r3, [r5, #0]
 8001766:	6b9a      	ldr	r2, [r3, #56]	@ 0x38
 8001768:	f5b2 2f80 	cmp.w	r2, #262144	@ 0x40000
 800176c:	d106      	bne.n	800177c <DMA2_Stream6_IRQHandler+0x88>
 800176e:	685a      	ldr	r2, [r3, #4]
 8001770:	6812      	ldr	r2, [r2, #0]
 8001772:	0350      	lsls	r0, r2, #13
 8001774:	bf4c      	ite	mi
 8001776:	6d1b      	ldrmi	r3, [r3, #80]	@ 0x50
 8001778:	6d5b      	ldrpl	r3, [r3, #84]	@ 0x54
 800177a:	4798      	blx	r3
 800177c:	6823      	ldr	r3, [r4, #0]
 800177e:	0299      	lsls	r1, r3, #10
 8001780:	d518      	bpl.n	80017b4 <DMA2_Stream6_IRQHandler+0xc0>
 8001782:	4c0f      	ldr	r4, [pc, #60]	@ (80017c0 <DMA2_Stream6_IRQHandler+0xcc>)
 8001784:	6823      	ldr	r3, [r4, #0]
 8001786:	6cda      	ldr	r2, [r3, #76]	@ 0x4c
 8001788:	b1a2      	cbz	r2, 80017b4 <DMA2_Stream6_IRQHandler+0xc0>
 800178a:	6c9b      	ldr	r3, [r3, #72]	@ 0x48
 800178c:	4798      	blx	r3
 800178e:	4a0a      	ldr	r2, [pc, #40]	@ (80017b8 <DMA2_Stream6_IRQHandler+0xc4>)
 8001790:	68d3      	ldr	r3, [r2, #12]
 8001792:	f443 1300 	orr.w	r3, r3, #2097152	@ 0x200000
 8001796:	60d3      	str	r3, [r2, #12]
 8001798:	6823      	ldr	r3, [r4, #0]
 800179a:	6b9a      	ldr	r2, [r3, #56]	@ 0x38
 800179c:	f5b2 2f80 	cmp.w	r2, #262144	@ 0x40000
 80017a0:	d108      	bne.n	80017b4 <DMA2_Stream6_IRQHandler+0xc0>
 80017a2:	685a      	ldr	r2, [r3, #4]
 80017a4:	6812      	ldr	r2, [r2, #0]
 80017a6:	0352      	lsls	r2, r2, #13
 80017a8:	e8bd 4070 	ldmia.w	sp!, {r4, r5, r6, lr}
 80017ac:	bf4c      	ite	mi
 80017ae:	6d1b      	ldrmi	r3, [r3, #80]	@ 0x50
 80017b0:	6d5b      	ldrpl	r3, [r3, #84]	@ 0x54
 80017b2:	4718      	bx	r3
 80017b4:	bd70      	pop	{r4, r5, r6, pc}
 80017b6:	bf00      	nop
 80017b8:	40026400 	.word	0x40026400
 80017bc:	20000020 	.word	0x20000020
 80017c0:	2000002c 	.word	0x2000002c

080017c4 <DMA2_Stream7_IRQHandler>:
 80017c4:	b570      	push	{r4, r5, r6, lr}
 80017c6:	4d30      	ldr	r5, [pc, #192]	@ (8001888 <DMA2_Stream7_IRQHandler+0xc4>)
 80017c8:	4c30      	ldr	r4, [pc, #192]	@ (800188c <DMA2_Stream7_IRQHandler+0xc8>)
 80017ca:	686b      	ldr	r3, [r5, #4]
 80017cc:	6023      	str	r3, [r4, #0]
 80017ce:	6823      	ldr	r3, [r4, #0]
 80017d0:	025a      	lsls	r2, r3, #9
 80017d2:	d508      	bpl.n	80017e6 <DMA2_Stream7_IRQHandler+0x22>
 80017d4:	4b2e      	ldr	r3, [pc, #184]	@ (8001890 <DMA2_Stream7_IRQHandler+0xcc>)
 80017d6:	681b      	ldr	r3, [r3, #0]
 80017d8:	6bdb      	ldr	r3, [r3, #60]	@ 0x3c
 80017da:	b123      	cbz	r3, 80017e6 <DMA2_Stream7_IRQHandler+0x22>
 80017dc:	4798      	blx	r3
 80017de:	68eb      	ldr	r3, [r5, #12]
 80017e0:	f443 0380 	orr.w	r3, r3, #4194304	@ 0x400000
 80017e4:	60eb      	str	r3, [r5, #12]
 80017e6:	6823      	ldr	r3, [r4, #0]
 80017e8:	01db      	lsls	r3, r3, #7
 80017ea:	d509      	bpl.n	8001800 <DMA2_Stream7_IRQHandler+0x3c>
 80017ec:	4b28      	ldr	r3, [pc, #160]	@ (8001890 <DMA2_Stream7_IRQHandler+0xcc>)
 80017ee:	681b      	ldr	r3, [r3, #0]
 80017f0:	6c1b      	ldr	r3, [r3, #64]	@ 0x40
 80017f2:	b12b      	cbz	r3, 8001800 <DMA2_Stream7_IRQHandler+0x3c>
 80017f4:	4798      	blx	r3
 80017f6:	4a24      	ldr	r2, [pc, #144]	@ (8001888 <DMA2_Stream7_IRQHandler+0xc4>)
 80017f8:	68d3      	ldr	r3, [r2, #12]
 80017fa:	f043 7380 	orr.w	r3, r3, #16777216	@ 0x1000000
 80017fe:	60d3      	str	r3, [r2, #12]
 8001800:	6823      	ldr	r3, [r4, #0]
 8001802:	019e      	lsls	r6, r3, #6
 8001804:	d509      	bpl.n	800181a <DMA2_Stream7_IRQHandler+0x56>
 8001806:	4b22      	ldr	r3, [pc, #136]	@ (8001890 <DMA2_Stream7_IRQHandler+0xcc>)
 8001808:	681b      	ldr	r3, [r3, #0]
 800180a:	6c5b      	ldr	r3, [r3, #68]	@ 0x44
 800180c:	b12b      	cbz	r3, 800181a <DMA2_Stream7_IRQHandler+0x56>
 800180e:	4798      	blx	r3
 8001810:	4a1d      	ldr	r2, [pc, #116]	@ (8001888 <DMA2_Stream7_IRQHandler+0xc4>)
 8001812:	68d3      	ldr	r3, [r2, #12]
 8001814:	f043 7300 	orr.w	r3, r3, #33554432	@ 0x2000000
 8001818:	60d3      	str	r3, [r2, #12]
 800181a:	6823      	ldr	r3, [r4, #0]
 800181c:	015d      	lsls	r5, r3, #5
 800181e:	d515      	bpl.n	800184c <DMA2_Stream7_IRQHandler+0x88>
 8001820:	4d1b      	ldr	r5, [pc, #108]	@ (8001890 <DMA2_Stream7_IRQHandler+0xcc>)
 8001822:	682b      	ldr	r3, [r5, #0]
 8001824:	6c9b      	ldr	r3, [r3, #72]	@ 0x48
 8001826:	b18b      	cbz	r3, 800184c <DMA2_Stream7_IRQHandler+0x88>
 8001828:	4798      	blx	r3
 800182a:	4a17      	ldr	r2, [pc, #92]	@ (8001888 <DMA2_Stream7_IRQHandler+0xc4>)
 800182c:	68d3      	ldr	r3, [r2, #12]
 800182e:	f043 6380 	orr.w	r3, r3, #67108864	@ 0x4000000
 8001832:	60d3      	str	r3, [r2, #12]
 8001834:	682b      	ldr	r3, [r5, #0]
 8001836:	6b9a      	ldr	r2, [r3, #56]	@ 0x38
 8001838:	f5b2 2f80 	cmp.w	r2, #262144	@ 0x40000
 800183c:	d106      	bne.n	800184c <DMA2_Stream7_IRQHandler+0x88>
 800183e:	685a      	ldr	r2, [r3, #4]
 8001840:	6812      	ldr	r2, [r2, #0]
 8001842:	0350      	lsls	r0, r2, #13
 8001844:	bf4c      	ite	mi
 8001846:	6d1b      	ldrmi	r3, [r3, #80]	@ 0x50
 8001848:	6d5b      	ldrpl	r3, [r3, #84]	@ 0x54
 800184a:	4798      	blx	r3
 800184c:	6823      	ldr	r3, [r4, #0]
 800184e:	0119      	lsls	r1, r3, #4
 8001850:	d518      	bpl.n	8001884 <DMA2_Stream7_IRQHandler+0xc0>
 8001852:	4c0f      	ldr	r4, [pc, #60]	@ (8001890 <DMA2_Stream7_IRQHandler+0xcc>)
 8001854:	6823      	ldr	r3, [r4, #0]
 8001856:	6cda      	ldr	r2, [r3, #76]	@ 0x4c
 8001858:	b1a2      	cbz	r2, 8001884 <DMA2_Stream7_IRQHandler+0xc0>
 800185a:	6c9b      	ldr	r3, [r3, #72]	@ 0x48
 800185c:	4798      	blx	r3
 800185e:	4a0a      	ldr	r2, [pc, #40]	@ (8001888 <DMA2_Stream7_IRQHandler+0xc4>)
 8001860:	68d3      	ldr	r3, [r2, #12]
 8001862:	f043 6300 	orr.w	r3, r3, #134217728	@ 0x8000000
 8001866:	60d3      	str	r3, [r2, #12]
 8001868:	6823      	ldr	r3, [r4, #0]
 800186a:	6b9a      	ldr	r2, [r3, #56]	@ 0x38
 800186c:	f5b2 2f80 	cmp.w	r2, #262144	@ 0x40000
 8001870:	d108      	bne.n	8001884 <DMA2_Stream7_IRQHandler+0xc0>
 8001872:	685a      	ldr	r2, [r3, #4]
 8001874:	6812      	ldr	r2, [r2, #0]
 8001876:	0352      	lsls	r2, r2, #13
 8001878:	e8bd 4070 	ldmia.w	sp!, {r4, r5, r6, lr}
 800187c:	bf4c      	ite	mi
 800187e:	6d1b      	ldrmi	r3, [r3, #80]	@ 0x50
 8001880:	6d5b      	ldrpl	r3, [r3, #84]	@ 0x54
 8001882:	4718      	bx	r3
 8001884:	bd70      	pop	{r4, r5, r6, pc}
 8001886:	bf00      	nop
 8001888:	40026400 	.word	0x40026400
 800188c:	20000020 	.word	0x20000020
 8001890:	20000028 	.word	0x20000028

08001894 <DMA_Clock_Enable>:
 8001894:	6803      	ldr	r3, [r0, #0]
 8001896:	4a09      	ldr	r2, [pc, #36]	@ (80018bc <DMA_Clock_Enable+0x28>)
 8001898:	4293      	cmp	r3, r2
 800189a:	d106      	bne.n	80018aa <DMA_Clock_Enable+0x16>
 800189c:	f5a2 5220 	sub.w	r2, r2, #10240	@ 0x2800
 80018a0:	6b13      	ldr	r3, [r2, #48]	@ 0x30
 80018a2:	f443 1300 	orr.w	r3, r3, #2097152	@ 0x200000
 80018a6:	6313      	str	r3, [r2, #48]	@ 0x30
 80018a8:	4770      	bx	lr
 80018aa:	4a05      	ldr	r2, [pc, #20]	@ (80018c0 <DMA_Clock_Enable+0x2c>)
 80018ac:	4293      	cmp	r3, r2
 80018ae:	d1fb      	bne.n	80018a8 <DMA_Clock_Enable+0x14>
 80018b0:	f5a2 5230 	sub.w	r2, r2, #11264	@ 0x2c00
 80018b4:	6b13      	ldr	r3, [r2, #48]	@ 0x30
 80018b6:	f443 0380 	orr.w	r3, r3, #4194304	@ 0x400000
 80018ba:	e7f4      	b.n	80018a6 <DMA_Clock_Enable+0x12>
 80018bc:	40026000 	.word	0x40026000
 80018c0:	40026400 	.word	0x40026400

080018c4 <DMA_Init>:
 80018c4:	b510      	push	{r4, lr}
 80018c6:	f7ff ffe5 	bl	8001894 <DMA_Clock_Enable>
 80018ca:	6843      	ldr	r3, [r0, #4]
 80018cc:	681a      	ldr	r2, [r3, #0]
 80018ce:	07d1      	lsls	r1, r2, #31
 80018d0:	4604      	mov	r4, r0
 80018d2:	d506      	bpl.n	80018e2 <DMA_Init+0x1e>
 80018d4:	681a      	ldr	r2, [r3, #0]
 80018d6:	f022 0201 	bic.w	r2, r2, #1
 80018da:	601a      	str	r2, [r3, #0]
 80018dc:	681a      	ldr	r2, [r3, #0]
 80018de:	07d2      	lsls	r2, r2, #31
 80018e0:	d4fc      	bmi.n	80018dc <DMA_Init+0x18>
 80018e2:	681a      	ldr	r2, [r3, #0]
 80018e4:	7a21      	ldrb	r1, [r4, #8]
 80018e6:	ea42 6241 	orr.w	r2, r2, r1, lsl #25
 80018ea:	601a      	str	r2, [r3, #0]
 80018ec:	681a      	ldr	r2, [r3, #0]
 80018ee:	69a1      	ldr	r1, [r4, #24]
 80018f0:	430a      	orrs	r2, r1
 80018f2:	601a      	str	r2, [r3, #0]
 80018f4:	681a      	ldr	r2, [r3, #0]
 80018f6:	68e1      	ldr	r1, [r4, #12]
 80018f8:	430a      	orrs	r2, r1
 80018fa:	601a      	str	r2, [r3, #0]
 80018fc:	681a      	ldr	r2, [r3, #0]
 80018fe:	6961      	ldr	r1, [r4, #20]
 8001900:	430a      	orrs	r2, r1
 8001902:	601a      	str	r2, [r3, #0]
 8001904:	681a      	ldr	r2, [r3, #0]
 8001906:	6aa1      	ldr	r1, [r4, #40]	@ 0x28
 8001908:	430a      	orrs	r2, r1
 800190a:	601a      	str	r2, [r3, #0]
 800190c:	681a      	ldr	r2, [r3, #0]
 800190e:	6a61      	ldr	r1, [r4, #36]	@ 0x24
 8001910:	430a      	orrs	r2, r1
 8001912:	601a      	str	r2, [r3, #0]
 8001914:	681a      	ldr	r2, [r3, #0]
 8001916:	6921      	ldr	r1, [r4, #16]
 8001918:	430a      	orrs	r2, r1
 800191a:	601a      	str	r2, [r3, #0]
 800191c:	69e2      	ldr	r2, [r4, #28]
 800191e:	2a00      	cmp	r2, #0
 8001920:	d029      	beq.n	8001976 <DMA_Init+0xb2>
 8001922:	0610      	lsls	r0, r2, #24
 8001924:	bf42      	ittt	mi
 8001926:	6959      	ldrmi	r1, [r3, #20]
 8001928:	4311      	orrmi	r1, r2
 800192a:	6159      	strmi	r1, [r3, #20]
 800192c:	06d1      	lsls	r1, r2, #27
 800192e:	bf42      	ittt	mi
 8001930:	6819      	ldrmi	r1, [r3, #0]
 8001932:	f041 0110 	orrmi.w	r1, r1, #16
 8001936:	6019      	strmi	r1, [r3, #0]
 8001938:	0710      	lsls	r0, r2, #28
 800193a:	bf42      	ittt	mi
 800193c:	6819      	ldrmi	r1, [r3, #0]
 800193e:	f041 0108 	orrmi.w	r1, r1, #8
 8001942:	6019      	strmi	r1, [r3, #0]
 8001944:	0751      	lsls	r1, r2, #29
 8001946:	bf42      	ittt	mi
 8001948:	6819      	ldrmi	r1, [r3, #0]
 800194a:	f041 0104 	orrmi.w	r1, r1, #4
 800194e:	6019      	strmi	r1, [r3, #0]
 8001950:	0792      	lsls	r2, r2, #30
 8001952:	bf48      	it	mi
 8001954:	681a      	ldrmi	r2, [r3, #0]
 8001956:	494b      	ldr	r1, [pc, #300]	@ (8001a84 <DMA_Init+0x1c0>)
 8001958:	bf44      	itt	mi
 800195a:	f042 0202 	orrmi.w	r2, r2, #2
 800195e:	601a      	strmi	r2, [r3, #0]
 8001960:	6822      	ldr	r2, [r4, #0]
 8001962:	428a      	cmp	r2, r1
 8001964:	d14b      	bne.n	80019fe <DMA_Init+0x13a>
 8001966:	4a48      	ldr	r2, [pc, #288]	@ (8001a88 <DMA_Init+0x1c4>)
 8001968:	4293      	cmp	r3, r2
 800196a:	d117      	bne.n	800199c <DMA_Init+0xd8>
 800196c:	4b47      	ldr	r3, [pc, #284]	@ (8001a8c <DMA_Init+0x1c8>)
 800196e:	200b      	movs	r0, #11
 8001970:	601c      	str	r4, [r3, #0]
 8001972:	f7ff f8d9 	bl	8000b28 <__NVIC_EnableIRQ.part.0>
 8001976:	6863      	ldr	r3, [r4, #4]
 8001978:	8c22      	ldrh	r2, [r4, #32]
 800197a:	6819      	ldr	r1, [r3, #0]
 800197c:	430a      	orrs	r2, r1
 800197e:	601a      	str	r2, [r3, #0]
 8001980:	6819      	ldr	r1, [r3, #0]
 8001982:	8c62      	ldrh	r2, [r4, #34]	@ 0x22
 8001984:	430a      	orrs	r2, r1
 8001986:	601a      	str	r2, [r3, #0]
 8001988:	69a2      	ldr	r2, [r4, #24]
 800198a:	f5b2 7f80 	cmp.w	r2, #256	@ 0x100
 800198e:	d171      	bne.n	8001a74 <DMA_Init+0x1b0>
 8001990:	681a      	ldr	r2, [r3, #0]
 8001992:	f442 7280 	orr.w	r2, r2, #256	@ 0x100
 8001996:	601a      	str	r2, [r3, #0]
 8001998:	2001      	movs	r0, #1
 800199a:	bd10      	pop	{r4, pc}
 800199c:	4a3c      	ldr	r2, [pc, #240]	@ (8001a90 <DMA_Init+0x1cc>)
 800199e:	4293      	cmp	r3, r2
 80019a0:	d103      	bne.n	80019aa <DMA_Init+0xe6>
 80019a2:	4b3c      	ldr	r3, [pc, #240]	@ (8001a94 <DMA_Init+0x1d0>)
 80019a4:	200c      	movs	r0, #12
 80019a6:	601c      	str	r4, [r3, #0]
 80019a8:	e7e3      	b.n	8001972 <DMA_Init+0xae>
 80019aa:	4a3b      	ldr	r2, [pc, #236]	@ (8001a98 <DMA_Init+0x1d4>)
 80019ac:	4293      	cmp	r3, r2
 80019ae:	d103      	bne.n	80019b8 <DMA_Init+0xf4>
 80019b0:	4b3a      	ldr	r3, [pc, #232]	@ (8001a9c <DMA_Init+0x1d8>)
 80019b2:	200d      	movs	r0, #13
 80019b4:	601c      	str	r4, [r3, #0]
 80019b6:	e7dc      	b.n	8001972 <DMA_Init+0xae>
 80019b8:	4a39      	ldr	r2, [pc, #228]	@ (8001aa0 <DMA_Init+0x1dc>)
 80019ba:	4293      	cmp	r3, r2
 80019bc:	d103      	bne.n	80019c6 <DMA_Init+0x102>
 80019be:	4b39      	ldr	r3, [pc, #228]	@ (8001aa4 <DMA_Init+0x1e0>)
 80019c0:	200e      	movs	r0, #14
 80019c2:	601c      	str	r4, [r3, #0]
 80019c4:	e7d5      	b.n	8001972 <DMA_Init+0xae>
 80019c6:	4a38      	ldr	r2, [pc, #224]	@ (8001aa8 <DMA_Init+0x1e4>)
 80019c8:	4293      	cmp	r3, r2
 80019ca:	d103      	bne.n	80019d4 <DMA_Init+0x110>
 80019cc:	4b37      	ldr	r3, [pc, #220]	@ (8001aac <DMA_Init+0x1e8>)
 80019ce:	200f      	movs	r0, #15
 80019d0:	601c      	str	r4, [r3, #0]
 80019d2:	e7ce      	b.n	8001972 <DMA_Init+0xae>
 80019d4:	4a36      	ldr	r2, [pc, #216]	@ (8001ab0 <DMA_Init+0x1ec>)
 80019d6:	4293      	cmp	r3, r2
 80019d8:	d103      	bne.n	80019e2 <DMA_Init+0x11e>
 80019da:	4b36      	ldr	r3, [pc, #216]	@ (8001ab4 <DMA_Init+0x1f0>)
 80019dc:	2010      	movs	r0, #16
 80019de:	601c      	str	r4, [r3, #0]
 80019e0:	e7c7      	b.n	8001972 <DMA_Init+0xae>
 80019e2:	4a35      	ldr	r2, [pc, #212]	@ (8001ab8 <DMA_Init+0x1f4>)
 80019e4:	4293      	cmp	r3, r2
 80019e6:	d103      	bne.n	80019f0 <DMA_Init+0x12c>
 80019e8:	4b34      	ldr	r3, [pc, #208]	@ (8001abc <DMA_Init+0x1f8>)
 80019ea:	2011      	movs	r0, #17
 80019ec:	601c      	str	r4, [r3, #0]
 80019ee:	e7c0      	b.n	8001972 <DMA_Init+0xae>
 80019f0:	4a33      	ldr	r2, [pc, #204]	@ (8001ac0 <DMA_Init+0x1fc>)
 80019f2:	4293      	cmp	r3, r2
 80019f4:	d1bf      	bne.n	8001976 <DMA_Init+0xb2>
 80019f6:	4b33      	ldr	r3, [pc, #204]	@ (8001ac4 <DMA_Init+0x200>)
 80019f8:	202f      	movs	r0, #47	@ 0x2f
 80019fa:	601c      	str	r4, [r3, #0]
 80019fc:	e7b9      	b.n	8001972 <DMA_Init+0xae>
 80019fe:	4932      	ldr	r1, [pc, #200]	@ (8001ac8 <DMA_Init+0x204>)
 8001a00:	428a      	cmp	r2, r1
 8001a02:	d1b8      	bne.n	8001976 <DMA_Init+0xb2>
 8001a04:	4a31      	ldr	r2, [pc, #196]	@ (8001acc <DMA_Init+0x208>)
 8001a06:	4293      	cmp	r3, r2
 8001a08:	d103      	bne.n	8001a12 <DMA_Init+0x14e>
 8001a0a:	4b31      	ldr	r3, [pc, #196]	@ (8001ad0 <DMA_Init+0x20c>)
 8001a0c:	2038      	movs	r0, #56	@ 0x38
 8001a0e:	601c      	str	r4, [r3, #0]
 8001a10:	e7af      	b.n	8001972 <DMA_Init+0xae>
 8001a12:	4a30      	ldr	r2, [pc, #192]	@ (8001ad4 <DMA_Init+0x210>)
 8001a14:	4293      	cmp	r3, r2
 8001a16:	d103      	bne.n	8001a20 <DMA_Init+0x15c>
 8001a18:	4b2f      	ldr	r3, [pc, #188]	@ (8001ad8 <DMA_Init+0x214>)
 8001a1a:	2039      	movs	r0, #57	@ 0x39
 8001a1c:	601c      	str	r4, [r3, #0]
 8001a1e:	e7a8      	b.n	8001972 <DMA_Init+0xae>
 8001a20:	4a2e      	ldr	r2, [pc, #184]	@ (8001adc <DMA_Init+0x218>)
 8001a22:	4293      	cmp	r3, r2
 8001a24:	d103      	bne.n	8001a2e <DMA_Init+0x16a>
 8001a26:	4b2e      	ldr	r3, [pc, #184]	@ (8001ae0 <DMA_Init+0x21c>)
 8001a28:	203a      	movs	r0, #58	@ 0x3a
 8001a2a:	601c      	str	r4, [r3, #0]
 8001a2c:	e7a1      	b.n	8001972 <DMA_Init+0xae>
 8001a2e:	4a2d      	ldr	r2, [pc, #180]	@ (8001ae4 <DMA_Init+0x220>)
 8001a30:	4293      	cmp	r3, r2
 8001a32:	d103      	bne.n	8001a3c <DMA_Init+0x178>
 8001a34:	4b2c      	ldr	r3, [pc, #176]	@ (8001ae8 <DMA_Init+0x224>)
 8001a36:	203b      	movs	r0, #59	@ 0x3b
 8001a38:	601c      	str	r4, [r3, #0]
 8001a3a:	e79a      	b.n	8001972 <DMA_Init+0xae>
 8001a3c:	4a2b      	ldr	r2, [pc, #172]	@ (8001aec <DMA_Init+0x228>)
 8001a3e:	4293      	cmp	r3, r2
 8001a40:	d103      	bne.n	8001a4a <DMA_Init+0x186>
 8001a42:	4b2b      	ldr	r3, [pc, #172]	@ (8001af0 <DMA_Init+0x22c>)
 8001a44:	203c      	movs	r0, #60	@ 0x3c
 8001a46:	601c      	str	r4, [r3, #0]
 8001a48:	e793      	b.n	8001972 <DMA_Init+0xae>
 8001a4a:	4a2a      	ldr	r2, [pc, #168]	@ (8001af4 <DMA_Init+0x230>)
 8001a4c:	4293      	cmp	r3, r2
 8001a4e:	d103      	bne.n	8001a58 <DMA_Init+0x194>
 8001a50:	4b29      	ldr	r3, [pc, #164]	@ (8001af8 <DMA_Init+0x234>)
 8001a52:	2044      	movs	r0, #68	@ 0x44
 8001a54:	601c      	str	r4, [r3, #0]
 8001a56:	e78c      	b.n	8001972 <DMA_Init+0xae>
 8001a58:	4a28      	ldr	r2, [pc, #160]	@ (8001afc <DMA_Init+0x238>)
 8001a5a:	4293      	cmp	r3, r2
 8001a5c:	d103      	bne.n	8001a66 <DMA_Init+0x1a2>
 8001a5e:	4b28      	ldr	r3, [pc, #160]	@ (8001b00 <DMA_Init+0x23c>)
 8001a60:	2045      	movs	r0, #69	@ 0x45
 8001a62:	601c      	str	r4, [r3, #0]
 8001a64:	e785      	b.n	8001972 <DMA_Init+0xae>
 8001a66:	4a27      	ldr	r2, [pc, #156]	@ (8001b04 <DMA_Init+0x240>)
 8001a68:	4293      	cmp	r3, r2
 8001a6a:	d184      	bne.n	8001976 <DMA_Init+0xb2>
 8001a6c:	4b26      	ldr	r3, [pc, #152]	@ (8001b08 <DMA_Init+0x244>)
 8001a6e:	2046      	movs	r0, #70	@ 0x46
 8001a70:	601c      	str	r4, [r3, #0]
 8001a72:	e77e      	b.n	8001972 <DMA_Init+0xae>
 8001a74:	b91a      	cbnz	r2, 8001a7e <DMA_Init+0x1ba>
 8001a76:	681a      	ldr	r2, [r3, #0]
 8001a78:	f422 7280 	bic.w	r2, r2, #256	@ 0x100
 8001a7c:	e78b      	b.n	8001996 <DMA_Init+0xd2>
 8001a7e:	f04f 30ff 	mov.w	r0, #4294967295
 8001a82:	e78a      	b.n	800199a <DMA_Init+0xd6>
 8001a84:	40026000 	.word	0x40026000
 8001a88:	40026010 	.word	0x40026010
 8001a8c:	20000064 	.word	0x20000064
 8001a90:	40026028 	.word	0x40026028
 8001a94:	20000060 	.word	0x20000060
 8001a98:	40026040 	.word	0x40026040
 8001a9c:	2000005c 	.word	0x2000005c
 8001aa0:	40026058 	.word	0x40026058
 8001aa4:	20000058 	.word	0x20000058
 8001aa8:	40026070 	.word	0x40026070
 8001aac:	20000054 	.word	0x20000054
 8001ab0:	40026088 	.word	0x40026088
 8001ab4:	20000050 	.word	0x20000050
 8001ab8:	400260a0 	.word	0x400260a0
 8001abc:	2000004c 	.word	0x2000004c
 8001ac0:	400260b8 	.word	0x400260b8
 8001ac4:	20000048 	.word	0x20000048
 8001ac8:	40026400 	.word	0x40026400
 8001acc:	40026410 	.word	0x40026410
 8001ad0:	20000044 	.word	0x20000044
 8001ad4:	40026428 	.word	0x40026428
 8001ad8:	20000040 	.word	0x20000040
 8001adc:	40026440 	.word	0x40026440
 8001ae0:	2000003c 	.word	0x2000003c
 8001ae4:	40026458 	.word	0x40026458
 8001ae8:	20000038 	.word	0x20000038
 8001aec:	40026470 	.word	0x40026470
 8001af0:	20000034 	.word	0x20000034
 8001af4:	40026488 	.word	0x40026488
 8001af8:	20000030 	.word	0x20000030
 8001afc:	400264a0 	.word	0x400264a0
 8001b00:	2000002c 	.word	0x2000002c
 8001b04:	400264b8 	.word	0x400264b8
 8001b08:	20000028 	.word	0x20000028

08001b0c <EXTI0_IRQHandler>:
 8001b0c:	b508      	push	{r3, lr}
 8001b0e:	4b05      	ldr	r3, [pc, #20]	@ (8001b24 <EXTI0_IRQHandler+0x18>)
 8001b10:	681b      	ldr	r3, [r3, #0]
 8001b12:	b103      	cbz	r3, 8001b16 <EXTI0_IRQHandler+0xa>
 8001b14:	4798      	blx	r3
 8001b16:	4a04      	ldr	r2, [pc, #16]	@ (8001b28 <EXTI0_IRQHandler+0x1c>)
 8001b18:	6953      	ldr	r3, [r2, #20]
 8001b1a:	f043 0301 	orr.w	r3, r3, #1
 8001b1e:	6153      	str	r3, [r2, #20]
 8001b20:	bd08      	pop	{r3, pc}
 8001b22:	bf00      	nop
 8001b24:	20000068 	.word	0x20000068
 8001b28:	40013c00 	.word	0x40013c00

08001b2c <EXTI1_IRQHandler>:
 8001b2c:	b508      	push	{r3, lr}
 8001b2e:	4b05      	ldr	r3, [pc, #20]	@ (8001b44 <EXTI1_IRQHandler+0x18>)
 8001b30:	685b      	ldr	r3, [r3, #4]
 8001b32:	b103      	cbz	r3, 8001b36 <EXTI1_IRQHandler+0xa>
 8001b34:	4798      	blx	r3
 8001b36:	4a04      	ldr	r2, [pc, #16]	@ (8001b48 <EXTI1_IRQHandler+0x1c>)
 8001b38:	6953      	ldr	r3, [r2, #20]
 8001b3a:	f043 0302 	orr.w	r3, r3, #2
 8001b3e:	6153      	str	r3, [r2, #20]
 8001b40:	bd08      	pop	{r3, pc}
 8001b42:	bf00      	nop
 8001b44:	20000068 	.word	0x20000068
 8001b48:	40013c00 	.word	0x40013c00

08001b4c <EXTI2_IRQHandler>:
 8001b4c:	b508      	push	{r3, lr}
 8001b4e:	4b05      	ldr	r3, [pc, #20]	@ (8001b64 <EXTI2_IRQHandler+0x18>)
 8001b50:	689b      	ldr	r3, [r3, #8]
 8001b52:	b103      	cbz	r3, 8001b56 <EXTI2_IRQHandler+0xa>
 8001b54:	4798      	blx	r3
 8001b56:	4a04      	ldr	r2, [pc, #16]	@ (8001b68 <EXTI2_IRQHandler+0x1c>)
 8001b58:	6953      	ldr	r3, [r2, #20]
 8001b5a:	f043 0304 	orr.w	r3, r3, #4
 8001b5e:	6153      	str	r3, [r2, #20]
 8001b60:	bd08      	pop	{r3, pc}
 8001b62:	bf00      	nop
 8001b64:	20000068 	.word	0x20000068
 8001b68:	40013c00 	.word	0x40013c00

08001b6c <EXTI3_IRQHandler>:
 8001b6c:	b508      	push	{r3, lr}
 8001b6e:	4b05      	ldr	r3, [pc, #20]	@ (8001b84 <EXTI3_IRQHandler+0x18>)
 8001b70:	68db      	ldr	r3, [r3, #12]
 8001b72:	b103      	cbz	r3, 8001b76 <EXTI3_IRQHandler+0xa>
 8001b74:	4798      	blx	r3
 8001b76:	4a04      	ldr	r2, [pc, #16]	@ (8001b88 <EXTI3_IRQHandler+0x1c>)
 8001b78:	6953      	ldr	r3, [r2, #20]
 8001b7a:	f043 0308 	orr.w	r3, r3, #8
 8001b7e:	6153      	str	r3, [r2, #20]
 8001b80:	bd08      	pop	{r3, pc}
 8001b82:	bf00      	nop
 8001b84:	20000068 	.word	0x20000068
 8001b88:	40013c00 	.word	0x40013c00

08001b8c <EXTI4_IRQHandler>:
 8001b8c:	b508      	push	{r3, lr}
 8001b8e:	4b05      	ldr	r3, [pc, #20]	@ (8001ba4 <EXTI4_IRQHandler+0x18>)
 8001b90:	691b      	ldr	r3, [r3, #16]
 8001b92:	b103      	cbz	r3, 8001b96 <EXTI4_IRQHandler+0xa>
 8001b94:	4798      	blx	r3
 8001b96:	4a04      	ldr	r2, [pc, #16]	@ (8001ba8 <EXTI4_IRQHandler+0x1c>)
 8001b98:	6953      	ldr	r3, [r2, #20]
 8001b9a:	f043 0310 	orr.w	r3, r3, #16
 8001b9e:	6153      	str	r3, [r2, #20]
 8001ba0:	bd08      	pop	{r3, pc}
 8001ba2:	bf00      	nop
 8001ba4:	20000068 	.word	0x20000068
 8001ba8:	40013c00 	.word	0x40013c00

08001bac <EXTI9_5_IRQHandler>:
 8001bac:	e92d 41f0 	stmdb	sp!, {r4, r5, r6, r7, r8, lr}
 8001bb0:	4e0a      	ldr	r6, [pc, #40]	@ (8001bdc <EXTI9_5_IRQHandler+0x30>)
 8001bb2:	f8df 802c 	ldr.w	r8, [pc, #44]	@ 8001be0 <EXTI9_5_IRQHandler+0x34>
 8001bb6:	2405      	movs	r4, #5
 8001bb8:	2701      	movs	r7, #1
 8001bba:	6973      	ldr	r3, [r6, #20]
 8001bbc:	fa07 f504 	lsl.w	r5, r7, r4
 8001bc0:	422b      	tst	r3, r5
 8001bc2:	d006      	beq.n	8001bd2 <EXTI9_5_IRQHandler+0x26>
 8001bc4:	f858 3024 	ldr.w	r3, [r8, r4, lsl #2]
 8001bc8:	b11b      	cbz	r3, 8001bd2 <EXTI9_5_IRQHandler+0x26>
 8001bca:	4798      	blx	r3
 8001bcc:	6973      	ldr	r3, [r6, #20]
 8001bce:	431d      	orrs	r5, r3
 8001bd0:	6175      	str	r5, [r6, #20]
 8001bd2:	3401      	adds	r4, #1
 8001bd4:	2c0a      	cmp	r4, #10
 8001bd6:	d1f0      	bne.n	8001bba <EXTI9_5_IRQHandler+0xe>
 8001bd8:	e8bd 81f0 	ldmia.w	sp!, {r4, r5, r6, r7, r8, pc}
 8001bdc:	40013c00 	.word	0x40013c00
 8001be0:	20000068 	.word	0x20000068

08001be4 <EXTI15_10_IRQHandler>:
 8001be4:	e92d 41f0 	stmdb	sp!, {r4, r5, r6, r7, r8, lr}
 8001be8:	4e0a      	ldr	r6, [pc, #40]	@ (8001c14 <EXTI15_10_IRQHandler+0x30>)
 8001bea:	f8df 802c 	ldr.w	r8, [pc, #44]	@ 8001c18 <EXTI15_10_IRQHandler+0x34>
 8001bee:	240a      	movs	r4, #10
 8001bf0:	2701      	movs	r7, #1
 8001bf2:	6973      	ldr	r3, [r6, #20]
 8001bf4:	fa07 f504 	lsl.w	r5, r7, r4
 8001bf8:	422b      	tst	r3, r5
 8001bfa:	d006      	beq.n	8001c0a <EXTI15_10_IRQHandler+0x26>
 8001bfc:	f858 3024 	ldr.w	r3, [r8, r4, lsl #2]
 8001c00:	b11b      	cbz	r3, 8001c0a <EXTI15_10_IRQHandler+0x26>
 8001c02:	4798      	blx	r3
 8001c04:	6973      	ldr	r3, [r6, #20]
 8001c06:	431d      	orrs	r5, r3
 8001c08:	6175      	str	r5, [r6, #20]
 8001c0a:	3401      	adds	r4, #1
 8001c0c:	2c10      	cmp	r4, #16
 8001c0e:	d1f0      	bne.n	8001bf2 <EXTI15_10_IRQHandler+0xe>
 8001c10:	e8bd 81f0 	ldmia.w	sp!, {r4, r5, r6, r7, r8, pc}
 8001c14:	40013c00 	.word	0x40013c00
 8001c18:	20000068 	.word	0x20000068

08001c1c <GPIO_Clock_Enable>:
 8001c1c:	4b21      	ldr	r3, [pc, #132]	@ (8001ca4 <GPIO_Clock_Enable+0x88>)
 8001c1e:	4298      	cmp	r0, r3
 8001c20:	d030      	beq.n	8001c84 <GPIO_Clock_Enable+0x68>
 8001c22:	d80e      	bhi.n	8001c42 <GPIO_Clock_Enable+0x26>
 8001c24:	f5a3 6300 	sub.w	r3, r3, #2048	@ 0x800
 8001c28:	4298      	cmp	r0, r3
 8001c2a:	d021      	beq.n	8001c70 <GPIO_Clock_Enable+0x54>
 8001c2c:	f503 6380 	add.w	r3, r3, #1024	@ 0x400
 8001c30:	4298      	cmp	r0, r3
 8001c32:	d022      	beq.n	8001c7a <GPIO_Clock_Enable+0x5e>
 8001c34:	f5a3 6300 	sub.w	r3, r3, #2048	@ 0x800
 8001c38:	4298      	cmp	r0, r3
 8001c3a:	d012      	beq.n	8001c62 <GPIO_Clock_Enable+0x46>
 8001c3c:	f04f 30ff 	mov.w	r0, #4294967295
 8001c40:	4770      	bx	lr
 8001c42:	4b19      	ldr	r3, [pc, #100]	@ (8001ca8 <GPIO_Clock_Enable+0x8c>)
 8001c44:	4298      	cmp	r0, r3
 8001c46:	d022      	beq.n	8001c8e <GPIO_Clock_Enable+0x72>
 8001c48:	f503 6300 	add.w	r3, r3, #2048	@ 0x800
 8001c4c:	4298      	cmp	r0, r3
 8001c4e:	d023      	beq.n	8001c98 <GPIO_Clock_Enable+0x7c>
 8001c50:	f5a3 6340 	sub.w	r3, r3, #3072	@ 0xc00
 8001c54:	4298      	cmp	r0, r3
 8001c56:	d1f1      	bne.n	8001c3c <GPIO_Clock_Enable+0x20>
 8001c58:	4a14      	ldr	r2, [pc, #80]	@ (8001cac <GPIO_Clock_Enable+0x90>)
 8001c5a:	6b13      	ldr	r3, [r2, #48]	@ 0x30
 8001c5c:	f043 0310 	orr.w	r3, r3, #16
 8001c60:	e003      	b.n	8001c6a <GPIO_Clock_Enable+0x4e>
 8001c62:	4a12      	ldr	r2, [pc, #72]	@ (8001cac <GPIO_Clock_Enable+0x90>)
 8001c64:	6b13      	ldr	r3, [r2, #48]	@ 0x30
 8001c66:	f043 0301 	orr.w	r3, r3, #1
 8001c6a:	6313      	str	r3, [r2, #48]	@ 0x30
 8001c6c:	2000      	movs	r0, #0
 8001c6e:	4770      	bx	lr
 8001c70:	4a0e      	ldr	r2, [pc, #56]	@ (8001cac <GPIO_Clock_Enable+0x90>)
 8001c72:	6b13      	ldr	r3, [r2, #48]	@ 0x30
 8001c74:	f043 0302 	orr.w	r3, r3, #2
 8001c78:	e7f7      	b.n	8001c6a <GPIO_Clock_Enable+0x4e>
 8001c7a:	4a0c      	ldr	r2, [pc, #48]	@ (8001cac <GPIO_Clock_Enable+0x90>)
 8001c7c:	6b13      	ldr	r3, [r2, #48]	@ 0x30
 8001c7e:	f043 0304 	orr.w	r3, r3, #4
 8001c82:	e7f2      	b.n	8001c6a <GPIO_Clock_Enable+0x4e>
 8001c84:	4a09      	ldr	r2, [pc, #36]	@ (8001cac <GPIO_Clock_Enable+0x90>)
 8001c86:	6b13      	ldr	r3, [r2, #48]	@ 0x30
 8001c88:	f043 0308 	orr.w	r3, r3, #8
 8001c8c:	e7ed      	b.n	8001c6a <GPIO_Clock_Enable+0x4e>
 8001c8e:	4a07      	ldr	r2, [pc, #28]	@ (8001cac <GPIO_Clock_Enable+0x90>)
 8001c90:	6b13      	ldr	r3, [r2, #48]	@ 0x30
 8001c92:	f043 0320 	orr.w	r3, r3, #32
 8001c96:	e7e8      	b.n	8001c6a <GPIO_Clock_Enable+0x4e>
 8001c98:	4a04      	ldr	r2, [pc, #16]	@ (8001cac <GPIO_Clock_Enable+0x90>)
 8001c9a:	6b13      	ldr	r3, [r2, #48]	@ 0x30
 8001c9c:	f043 0380 	orr.w	r3, r3, #128	@ 0x80
 8001ca0:	e7e3      	b.n	8001c6a <GPIO_Clock_Enable+0x4e>
 8001ca2:	bf00      	nop
 8001ca4:	40020c00 	.word	0x40020c00
 8001ca8:	40021400 	.word	0x40021400
 8001cac:	40023800 	.word	0x40023800

08001cb0 <GPIO_Pin_Init>:
 8001cb0:	e92d 43f8 	stmdb	sp!, {r3, r4, r5, r6, r7, r8, r9, lr}
 8001cb4:	4604      	mov	r4, r0
 8001cb6:	461d      	mov	r5, r3
 8001cb8:	4617      	mov	r7, r2
 8001cba:	f89d 9020 	ldrb.w	r9, [sp, #32]
 8001cbe:	f89d 8024 	ldrb.w	r8, [sp, #36]	@ 0x24
 8001cc2:	f89d 6028 	ldrb.w	r6, [sp, #40]	@ 0x28
 8001cc6:	f7ff ffa9 	bl	8001c1c <GPIO_Clock_Enable>
 8001cca:	f8d4 e000 	ldr.w	lr, [r4]
 8001cce:	004b      	lsls	r3, r1, #1
 8001cd0:	2203      	movs	r2, #3
 8001cd2:	409a      	lsls	r2, r3
 8001cd4:	ea6f 0c02 	mvn.w	ip, r2
 8001cd8:	ea2e 0202 	bic.w	r2, lr, r2
 8001cdc:	6022      	str	r2, [r4, #0]
 8001cde:	f8d4 e000 	ldr.w	lr, [r4]
 8001ce2:	fa07 f203 	lsl.w	r2, r7, r3
 8001ce6:	ea42 020e 	orr.w	r2, r2, lr
 8001cea:	6022      	str	r2, [r4, #0]
 8001cec:	6862      	ldr	r2, [r4, #4]
 8001cee:	f04f 0e01 	mov.w	lr, #1
 8001cf2:	fa0e fe01 	lsl.w	lr, lr, r1
 8001cf6:	ea22 020e 	bic.w	r2, r2, lr
 8001cfa:	6062      	str	r2, [r4, #4]
 8001cfc:	2d02      	cmp	r5, #2
 8001cfe:	bf1f      	itttt	ne
 8001d00:	f8d4 e004 	ldrne.w	lr, [r4, #4]
 8001d04:	fa05 f201 	lslne.w	r2, r5, r1
 8001d08:	ea42 020e 	orrne.w	r2, r2, lr
 8001d0c:	6062      	strne	r2, [r4, #4]
 8001d0e:	68a2      	ldr	r2, [r4, #8]
 8001d10:	ea0c 0202 	and.w	r2, ip, r2
 8001d14:	60a2      	str	r2, [r4, #8]
 8001d16:	f1b9 0f04 	cmp.w	r9, #4
 8001d1a:	bf1f      	itttt	ne
 8001d1c:	68a2      	ldrne	r2, [r4, #8]
 8001d1e:	fa09 f503 	lslne.w	r5, r9, r3
 8001d22:	4315      	orrne	r5, r2
 8001d24:	60a5      	strne	r5, [r4, #8]
 8001d26:	68e2      	ldr	r2, [r4, #12]
 8001d28:	ea0c 0202 	and.w	r2, ip, r2
 8001d2c:	f1b8 0f04 	cmp.w	r8, #4
 8001d30:	60e2      	str	r2, [r4, #12]
 8001d32:	bf1f      	itttt	ne
 8001d34:	68e2      	ldrne	r2, [r4, #12]
 8001d36:	fa08 f303 	lslne.w	r3, r8, r3
 8001d3a:	4313      	orrne	r3, r2
 8001d3c:	60e3      	strne	r3, [r4, #12]
 8001d3e:	2f02      	cmp	r7, #2
 8001d40:	b208      	sxth	r0, r1
 8001d42:	d10e      	bne.n	8001d62 <GPIO_Pin_Init+0xb2>
 8001d44:	2907      	cmp	r1, #7
 8001d46:	f04f 020f 	mov.w	r2, #15
 8001d4a:	d80d      	bhi.n	8001d68 <GPIO_Pin_Init+0xb8>
 8001d4c:	6a21      	ldr	r1, [r4, #32]
 8001d4e:	0083      	lsls	r3, r0, #2
 8001d50:	409a      	lsls	r2, r3
 8001d52:	ea21 0202 	bic.w	r2, r1, r2
 8001d56:	6222      	str	r2, [r4, #32]
 8001d58:	6a22      	ldr	r2, [r4, #32]
 8001d5a:	fa06 f303 	lsl.w	r3, r6, r3
 8001d5e:	4313      	orrs	r3, r2
 8001d60:	6223      	str	r3, [r4, #32]
 8001d62:	2000      	movs	r0, #0
 8001d64:	e8bd 83f8 	ldmia.w	sp!, {r3, r4, r5, r6, r7, r8, r9, pc}
 8001d68:	3908      	subs	r1, #8
 8001d6a:	6a63      	ldr	r3, [r4, #36]	@ 0x24
 8001d6c:	0089      	lsls	r1, r1, #2
 8001d6e:	408a      	lsls	r2, r1
 8001d70:	ea23 0302 	bic.w	r3, r3, r2
 8001d74:	6263      	str	r3, [r4, #36]	@ 0x24
 8001d76:	6a63      	ldr	r3, [r4, #36]	@ 0x24
 8001d78:	408e      	lsls	r6, r1
 8001d7a:	431e      	orrs	r6, r3
 8001d7c:	6266      	str	r6, [r4, #36]	@ 0x24
 8001d7e:	e7f0      	b.n	8001d62 <GPIO_Pin_Init+0xb2>

08001d80 <SPI1_TX_ISR>:
 8001d80:	4b01      	ldr	r3, [pc, #4]	@ (8001d88 <SPI1_TX_ISR+0x8>)
 8001d82:	2201      	movs	r2, #1
 8001d84:	701a      	strb	r2, [r3, #0]
 8001d86:	4770      	bx	lr
 8001d88:	200002b9 	.word	0x200002b9

08001d8c <SPI1_RX_ISR>:
 8001d8c:	4b01      	ldr	r3, [pc, #4]	@ (8001d94 <SPI1_RX_ISR+0x8>)
 8001d8e:	2201      	movs	r2, #1
 8001d90:	701a      	strb	r2, [r3, #0]
 8001d92:	4770      	bx	lr
 8001d94:	200002b8 	.word	0x200002b8

08001d98 <SPI_Clock_Enable>:
 8001d98:	6803      	ldr	r3, [r0, #0]
 8001d9a:	4a10      	ldr	r2, [pc, #64]	@ (8001ddc <SPI_Clock_Enable+0x44>)
 8001d9c:	4293      	cmp	r3, r2
 8001d9e:	d108      	bne.n	8001db2 <SPI_Clock_Enable+0x1a>
 8001da0:	f502 3284 	add.w	r2, r2, #67584	@ 0x10800
 8001da4:	6c53      	ldr	r3, [r2, #68]	@ 0x44
 8001da6:	f443 5380 	orr.w	r3, r3, #4096	@ 0x1000
 8001daa:	6453      	str	r3, [r2, #68]	@ 0x44
 8001dac:	f04f 30ff 	mov.w	r0, #4294967295
 8001db0:	4770      	bx	lr
 8001db2:	4a0b      	ldr	r2, [pc, #44]	@ (8001de0 <SPI_Clock_Enable+0x48>)
 8001db4:	4293      	cmp	r3, r2
 8001db6:	d106      	bne.n	8001dc6 <SPI_Clock_Enable+0x2e>
 8001db8:	f502 3200 	add.w	r2, r2, #131072	@ 0x20000
 8001dbc:	6c13      	ldr	r3, [r2, #64]	@ 0x40
 8001dbe:	f443 4380 	orr.w	r3, r3, #16384	@ 0x4000
 8001dc2:	6413      	str	r3, [r2, #64]	@ 0x40
 8001dc4:	e7f2      	b.n	8001dac <SPI_Clock_Enable+0x14>
 8001dc6:	4a07      	ldr	r2, [pc, #28]	@ (8001de4 <SPI_Clock_Enable+0x4c>)
 8001dc8:	4293      	cmp	r3, r2
 8001dca:	d1ef      	bne.n	8001dac <SPI_Clock_Enable+0x14>
 8001dcc:	4a06      	ldr	r2, [pc, #24]	@ (8001de8 <SPI_Clock_Enable+0x50>)
 8001dce:	6c13      	ldr	r3, [r2, #64]	@ 0x40
 8001dd0:	f443 4300 	orr.w	r3, r3, #32768	@ 0x8000
 8001dd4:	6413      	str	r3, [r2, #64]	@ 0x40
 8001dd6:	2000      	movs	r0, #0
 8001dd8:	4770      	bx	lr
 8001dda:	bf00      	nop
 8001ddc:	40013000 	.word	0x40013000
 8001de0:	40003800 	.word	0x40003800
 8001de4:	40003c00 	.word	0x40003c00
 8001de8:	40023800 	.word	0x40023800

08001dec <SPI_Enable>:
 8001dec:	6802      	ldr	r2, [r0, #0]
 8001dee:	6813      	ldr	r3, [r2, #0]
 8001df0:	f043 0340 	orr.w	r3, r3, #64	@ 0x40
 8001df4:	6013      	str	r3, [r2, #0]
 8001df6:	4770      	bx	lr

08001df8 <SPI_TRX_Byte>:
 8001df8:	b082      	sub	sp, #8
 8001dfa:	2300      	movs	r3, #0
 8001dfc:	f8ad 3006 	strh.w	r3, [sp, #6]
 8001e00:	6803      	ldr	r3, [r0, #0]
 8001e02:	689a      	ldr	r2, [r3, #8]
 8001e04:	0792      	lsls	r2, r2, #30
 8001e06:	d5fc      	bpl.n	8001e02 <SPI_TRX_Byte+0xa>
 8001e08:	60d9      	str	r1, [r3, #12]
 8001e0a:	689a      	ldr	r2, [r3, #8]
 8001e0c:	07d0      	lsls	r0, r2, #31
 8001e0e:	d5fc      	bpl.n	8001e0a <SPI_TRX_Byte+0x12>
 8001e10:	68da      	ldr	r2, [r3, #12]
 8001e12:	b292      	uxth	r2, r2
 8001e14:	f8ad 2006 	strh.w	r2, [sp, #6]
 8001e18:	689a      	ldr	r2, [r3, #8]
 8001e1a:	0791      	lsls	r1, r2, #30
 8001e1c:	d5fc      	bpl.n	8001e18 <SPI_TRX_Byte+0x20>
 8001e1e:	689a      	ldr	r2, [r3, #8]
 8001e20:	0612      	lsls	r2, r2, #24
 8001e22:	d4fc      	bmi.n	8001e1e <SPI_TRX_Byte+0x26>
 8001e24:	f8bd 0006 	ldrh.w	r0, [sp, #6]
 8001e28:	b280      	uxth	r0, r0
 8001e2a:	b002      	add	sp, #8
 8001e2c:	4770      	bx	lr

08001e2e <SPI_NSS_High>:
 8001e2e:	6882      	ldr	r2, [r0, #8]
 8001e30:	7b00      	ldrb	r0, [r0, #12]
 8001e32:	6951      	ldr	r1, [r2, #20]
 8001e34:	2301      	movs	r3, #1
 8001e36:	4083      	lsls	r3, r0
 8001e38:	430b      	orrs	r3, r1
 8001e3a:	6153      	str	r3, [r2, #20]
 8001e3c:	4770      	bx	lr
	...

08001e40 <SPI_Init>:
 8001e40:	b530      	push	{r4, r5, lr}
 8001e42:	8b03      	ldrh	r3, [r0, #24]
 8001e44:	2b32      	cmp	r3, #50	@ 0x32
 8001e46:	b085      	sub	sp, #20
 8001e48:	4604      	mov	r4, r0
 8001e4a:	d120      	bne.n	8001e8e <SPI_Init+0x4e>
 8001e4c:	2201      	movs	r2, #1
 8001e4e:	2300      	movs	r3, #0
 8001e50:	e9cd 2301 	strd	r2, r3, [sp, #4]
 8001e54:	2103      	movs	r1, #3
 8001e56:	9100      	str	r1, [sp, #0]
 8001e58:	7b21      	ldrb	r1, [r4, #12]
 8001e5a:	68a0      	ldr	r0, [r4, #8]
 8001e5c:	f7ff ff28 	bl	8001cb0 <GPIO_Pin_Init>
 8001e60:	4620      	mov	r0, r4
 8001e62:	f7ff ff99 	bl	8001d98 <SPI_Clock_Enable>
 8001e66:	6823      	ldr	r3, [r4, #0]
 8001e68:	4aac      	ldr	r2, [pc, #688]	@ (800211c <SPI_Init+0x2dc>)
 8001e6a:	4293      	cmp	r3, r2
 8001e6c:	f040 815c 	bne.w	8002128 <SPI_Init+0x2e8>
 8001e70:	89e3      	ldrh	r3, [r4, #14]
 8001e72:	2b0b      	cmp	r3, #11
 8001e74:	d015      	beq.n	8001ea2 <SPI_Init+0x62>
 8001e76:	3b0c      	subs	r3, #12
 8001e78:	2b06      	cmp	r3, #6
 8001e7a:	d844      	bhi.n	8001f06 <SPI_Init+0xc6>
 8001e7c:	e8df f013 	tbh	[pc, r3, lsl #1]
 8001e80:	00d60011 	.word	0x00d60011
 8001e84:	01110111 	.word	0x01110111
 8001e88:	00d600d6 	.word	0x00d600d6
 8001e8c:	0111      	.short	0x0111
 8001e8e:	2b33      	cmp	r3, #51	@ 0x33
 8001e90:	d1e6      	bne.n	8001e60 <SPI_Init+0x20>
 8001e92:	2201      	movs	r2, #1
 8001e94:	2300      	movs	r3, #0
 8001e96:	e9cd 2301 	strd	r2, r3, [sp, #4]
 8001e9a:	2203      	movs	r2, #3
 8001e9c:	9200      	str	r2, [sp, #0]
 8001e9e:	461a      	mov	r2, r3
 8001ea0:	e7da      	b.n	8001e58 <SPI_Init+0x18>
 8001ea2:	7923      	ldrb	r3, [r4, #4]
 8001ea4:	2b0f      	cmp	r3, #15
 8001ea6:	f040 809b 	bne.w	8001fe0 <SPI_Init+0x1a0>
 8001eaa:	2300      	movs	r3, #0
 8001eac:	2105      	movs	r1, #5
 8001eae:	e9cd 3101 	strd	r3, r1, [sp, #4]
 8001eb2:	2203      	movs	r2, #3
 8001eb4:	489a      	ldr	r0, [pc, #616]	@ (8002120 <SPI_Init+0x2e0>)
 8001eb6:	9200      	str	r2, [sp, #0]
 8001eb8:	2202      	movs	r2, #2
 8001eba:	f7ff fef9 	bl	8001cb0 <GPIO_Pin_Init>
 8001ebe:	79a3      	ldrb	r3, [r4, #6]
 8001ec0:	2b10      	cmp	r3, #16
 8001ec2:	f040 809a 	bne.w	8001ffa <SPI_Init+0x1ba>
 8001ec6:	2300      	movs	r3, #0
 8001ec8:	f04f 0c05 	mov.w	ip, #5
 8001ecc:	e9cd 3c01 	strd	r3, ip, [sp, #4]
 8001ed0:	2203      	movs	r2, #3
 8001ed2:	4893      	ldr	r0, [pc, #588]	@ (8002120 <SPI_Init+0x2e0>)
 8001ed4:	9200      	str	r2, [sp, #0]
 8001ed6:	2106      	movs	r1, #6
 8001ed8:	2202      	movs	r2, #2
 8001eda:	f7ff fee9 	bl	8001cb0 <GPIO_Pin_Init>
 8001ede:	7963      	ldrb	r3, [r4, #5]
 8001ee0:	2b11      	cmp	r3, #17
 8001ee2:	f040 8097 	bne.w	8002014 <SPI_Init+0x1d4>
 8001ee6:	2005      	movs	r0, #5
 8001ee8:	2300      	movs	r3, #0
 8001eea:	2203      	movs	r2, #3
 8001eec:	e9cd 3001 	strd	r3, r0, [sp, #4]
 8001ef0:	488b      	ldr	r0, [pc, #556]	@ (8002120 <SPI_Init+0x2e0>)
 8001ef2:	9200      	str	r2, [sp, #0]
 8001ef4:	2107      	movs	r1, #7
 8001ef6:	2202      	movs	r2, #2
 8001ef8:	f7ff feda 	bl	8001cb0 <GPIO_Pin_Init>
 8001efc:	6822      	ldr	r2, [r4, #0]
 8001efe:	6813      	ldr	r3, [r2, #0]
 8001f00:	f423 4300 	bic.w	r3, r3, #32768	@ 0x8000
 8001f04:	6013      	str	r3, [r2, #0]
 8001f06:	4620      	mov	r0, r4
 8001f08:	f7ff ff91 	bl	8001e2e <SPI_NSS_High>
 8001f0c:	6823      	ldr	r3, [r4, #0]
 8001f0e:	681a      	ldr	r2, [r3, #0]
 8001f10:	f022 0240 	bic.w	r2, r2, #64	@ 0x40
 8001f14:	601a      	str	r2, [r3, #0]
 8001f16:	4a81      	ldr	r2, [pc, #516]	@ (800211c <SPI_Init+0x2dc>)
 8001f18:	4293      	cmp	r3, r2
 8001f1a:	d008      	beq.n	8001f2e <SPI_Init+0xee>
 8001f1c:	f5a2 4278 	sub.w	r2, r2, #63488	@ 0xf800
 8001f20:	4293      	cmp	r3, r2
 8001f22:	d004      	beq.n	8001f2e <SPI_Init+0xee>
 8001f24:	f502 6280 	add.w	r2, r2, #1024	@ 0x400
 8001f28:	4293      	cmp	r3, r2
 8001f2a:	f040 829a 	bne.w	8002462 <SPI_Init+0x622>
 8001f2e:	681a      	ldr	r2, [r3, #0]
 8001f30:	f442 7240 	orr.w	r2, r2, #768	@ 0x300
 8001f34:	601a      	str	r2, [r3, #0]
 8001f36:	8ba2      	ldrh	r2, [r4, #28]
 8001f38:	2a17      	cmp	r2, #23
 8001f3a:	f040 826b 	bne.w	8002414 <SPI_Init+0x5d4>
 8001f3e:	681a      	ldr	r2, [r3, #0]
 8001f40:	f022 0201 	bic.w	r2, r2, #1
 8001f44:	601a      	str	r2, [r3, #0]
 8001f46:	8b62      	ldrh	r2, [r4, #26]
 8001f48:	2a21      	cmp	r2, #33	@ 0x21
 8001f4a:	f040 8269 	bne.w	8002420 <SPI_Init+0x5e0>
 8001f4e:	681a      	ldr	r2, [r3, #0]
 8001f50:	f022 0202 	bic.w	r2, r2, #2
 8001f54:	601a      	str	r2, [r3, #0]
 8001f56:	8a22      	ldrh	r2, [r4, #16]
 8001f58:	2a00      	cmp	r2, #0
 8001f5a:	f040 8267 	bne.w	800242c <SPI_Init+0x5ec>
 8001f5e:	681a      	ldr	r2, [r3, #0]
 8001f60:	f422 5200 	bic.w	r2, r2, #8192	@ 0x2000
 8001f64:	601a      	str	r2, [r3, #0]
 8001f66:	8a62      	ldrh	r2, [r4, #18]
 8001f68:	2a0b      	cmp	r2, #11
 8001f6a:	f040 8265 	bne.w	8002438 <SPI_Init+0x5f8>
 8001f6e:	681a      	ldr	r2, [r3, #0]
 8001f70:	f422 6200 	bic.w	r2, r2, #2048	@ 0x800
 8001f74:	601a      	str	r2, [r3, #0]
 8001f76:	8aa2      	ldrh	r2, [r4, #20]
 8001f78:	2a18      	cmp	r2, #24
 8001f7a:	f040 8263 	bne.w	8002444 <SPI_Init+0x604>
 8001f7e:	681a      	ldr	r2, [r3, #0]
 8001f80:	f042 0280 	orr.w	r2, r2, #128	@ 0x80
 8001f84:	601a      	str	r2, [r3, #0]
 8001f86:	8ae2      	ldrh	r2, [r4, #22]
 8001f88:	2a28      	cmp	r2, #40	@ 0x28
 8001f8a:	f040 8261 	bne.w	8002450 <SPI_Init+0x610>
 8001f8e:	681a      	ldr	r2, [r3, #0]
 8001f90:	f022 0238 	bic.w	r2, r2, #56	@ 0x38
 8001f94:	601a      	str	r2, [r3, #0]
 8001f96:	8b22      	ldrh	r2, [r4, #24]
 8001f98:	2a32      	cmp	r2, #50	@ 0x32
 8001f9a:	f040 8282 	bne.w	80024a2 <SPI_Init+0x662>
 8001f9e:	681a      	ldr	r2, [r3, #0]
 8001fa0:	f042 0204 	orr.w	r2, r2, #4
 8001fa4:	601a      	str	r2, [r3, #0]
 8001fa6:	8be2      	ldrh	r2, [r4, #30]
 8001fa8:	2a46      	cmp	r2, #70	@ 0x46
 8001faa:	f040 8280 	bne.w	80024ae <SPI_Init+0x66e>
 8001fae:	685a      	ldr	r2, [r3, #4]
 8001fb0:	f022 02e0 	bic.w	r2, r2, #224	@ 0xe0
 8001fb4:	605a      	str	r2, [r3, #4]
 8001fb6:	8c22      	ldrh	r2, [r4, #32]
 8001fb8:	f012 0510 	ands.w	r5, r2, #16
 8001fbc:	f000 8289 	beq.w	80024d2 <SPI_Init+0x692>
 8001fc0:	685a      	ldr	r2, [r3, #4]
 8001fc2:	f022 0201 	bic.w	r2, r2, #1
 8001fc6:	605a      	str	r2, [r3, #4]
 8001fc8:	8c23      	ldrh	r3, [r4, #32]
 8001fca:	f013 0504 	ands.w	r5, r3, #4
 8001fce:	f000 82b6 	beq.w	800253e <SPI_Init+0x6fe>
 8001fd2:	6822      	ldr	r2, [r4, #0]
 8001fd4:	6853      	ldr	r3, [r2, #4]
 8001fd6:	f023 0302 	bic.w	r3, r3, #2
 8001fda:	6053      	str	r3, [r2, #4]
 8001fdc:	2001      	movs	r0, #1
 8001fde:	e242      	b.n	8002466 <SPI_Init+0x626>
 8001fe0:	2b21      	cmp	r3, #33	@ 0x21
 8001fe2:	f47f af6c 	bne.w	8001ebe <SPI_Init+0x7e>
 8001fe6:	2300      	movs	r3, #0
 8001fe8:	f04f 0e05 	mov.w	lr, #5
 8001fec:	2103      	movs	r1, #3
 8001fee:	e9cd 3e01 	strd	r3, lr, [sp, #4]
 8001ff2:	484c      	ldr	r0, [pc, #304]	@ (8002124 <SPI_Init+0x2e4>)
 8001ff4:	9100      	str	r1, [sp, #0]
 8001ff6:	2202      	movs	r2, #2
 8001ff8:	e75f      	b.n	8001eba <SPI_Init+0x7a>
 8001ffa:	2b22      	cmp	r3, #34	@ 0x22
 8001ffc:	f47f af6f 	bne.w	8001ede <SPI_Init+0x9e>
 8002000:	2203      	movs	r2, #3
 8002002:	2300      	movs	r3, #0
 8002004:	2505      	movs	r5, #5
 8002006:	9200      	str	r2, [sp, #0]
 8002008:	e9cd 3501 	strd	r3, r5, [sp, #4]
 800200c:	4845      	ldr	r0, [pc, #276]	@ (8002124 <SPI_Init+0x2e4>)
 800200e:	2202      	movs	r2, #2
 8002010:	2104      	movs	r1, #4
 8002012:	e762      	b.n	8001eda <SPI_Init+0x9a>
 8002014:	2b23      	cmp	r3, #35	@ 0x23
 8002016:	f47f af71 	bne.w	8001efc <SPI_Init+0xbc>
 800201a:	2300      	movs	r3, #0
 800201c:	2105      	movs	r1, #5
 800201e:	e9cd 3101 	strd	r3, r1, [sp, #4]
 8002022:	2203      	movs	r2, #3
 8002024:	9200      	str	r2, [sp, #0]
 8002026:	2202      	movs	r2, #2
 8002028:	483e      	ldr	r0, [pc, #248]	@ (8002124 <SPI_Init+0x2e4>)
 800202a:	e765      	b.n	8001ef8 <SPI_Init+0xb8>
 800202c:	7923      	ldrb	r3, [r4, #4]
 800202e:	2b0f      	cmp	r3, #15
 8002030:	d121      	bne.n	8002076 <SPI_Init+0x236>
 8002032:	2300      	movs	r3, #0
 8002034:	2105      	movs	r1, #5
 8002036:	e9cd 3101 	strd	r3, r1, [sp, #4]
 800203a:	2203      	movs	r2, #3
 800203c:	4838      	ldr	r0, [pc, #224]	@ (8002120 <SPI_Init+0x2e0>)
 800203e:	9200      	str	r2, [sp, #0]
 8002040:	2202      	movs	r2, #2
 8002042:	f7ff fe35 	bl	8001cb0 <GPIO_Pin_Init>
 8002046:	7963      	ldrb	r3, [r4, #5]
 8002048:	2b11      	cmp	r3, #17
 800204a:	d11f      	bne.n	800208c <SPI_Init+0x24c>
 800204c:	2205      	movs	r2, #5
 800204e:	2300      	movs	r3, #0
 8002050:	e9cd 3201 	strd	r3, r2, [sp, #4]
 8002054:	4832      	ldr	r0, [pc, #200]	@ (8002120 <SPI_Init+0x2e0>)
 8002056:	2203      	movs	r2, #3
 8002058:	9200      	str	r2, [sp, #0]
 800205a:	2107      	movs	r1, #7
 800205c:	2202      	movs	r2, #2
 800205e:	f7ff fe27 	bl	8001cb0 <GPIO_Pin_Init>
 8002062:	6823      	ldr	r3, [r4, #0]
 8002064:	681a      	ldr	r2, [r3, #0]
 8002066:	f442 4200 	orr.w	r2, r2, #32768	@ 0x8000
 800206a:	601a      	str	r2, [r3, #0]
 800206c:	681a      	ldr	r2, [r3, #0]
 800206e:	f442 4280 	orr.w	r2, r2, #16384	@ 0x4000
 8002072:	601a      	str	r2, [r3, #0]
 8002074:	e747      	b.n	8001f06 <SPI_Init+0xc6>
 8002076:	2b21      	cmp	r3, #33	@ 0x21
 8002078:	d1e5      	bne.n	8002046 <SPI_Init+0x206>
 800207a:	2105      	movs	r1, #5
 800207c:	2300      	movs	r3, #0
 800207e:	e9cd 3101 	strd	r3, r1, [sp, #4]
 8002082:	2103      	movs	r1, #3
 8002084:	4827      	ldr	r0, [pc, #156]	@ (8002124 <SPI_Init+0x2e4>)
 8002086:	9100      	str	r1, [sp, #0]
 8002088:	2202      	movs	r2, #2
 800208a:	e7da      	b.n	8002042 <SPI_Init+0x202>
 800208c:	2b23      	cmp	r3, #35	@ 0x23
 800208e:	d1e8      	bne.n	8002062 <SPI_Init+0x222>
 8002090:	2300      	movs	r3, #0
 8002092:	2105      	movs	r1, #5
 8002094:	e9cd 3101 	strd	r3, r1, [sp, #4]
 8002098:	2203      	movs	r2, #3
 800209a:	9200      	str	r2, [sp, #0]
 800209c:	2202      	movs	r2, #2
 800209e:	4821      	ldr	r0, [pc, #132]	@ (8002124 <SPI_Init+0x2e4>)
 80020a0:	e7dd      	b.n	800205e <SPI_Init+0x21e>
 80020a2:	7923      	ldrb	r3, [r4, #4]
 80020a4:	2b0f      	cmp	r3, #15
 80020a6:	d121      	bne.n	80020ec <SPI_Init+0x2ac>
 80020a8:	2300      	movs	r3, #0
 80020aa:	2105      	movs	r1, #5
 80020ac:	e9cd 3101 	strd	r3, r1, [sp, #4]
 80020b0:	2203      	movs	r2, #3
 80020b2:	481b      	ldr	r0, [pc, #108]	@ (8002120 <SPI_Init+0x2e0>)
 80020b4:	9200      	str	r2, [sp, #0]
 80020b6:	2202      	movs	r2, #2
 80020b8:	f7ff fdfa 	bl	8001cb0 <GPIO_Pin_Init>
 80020bc:	79a3      	ldrb	r3, [r4, #6]
 80020be:	2b10      	cmp	r3, #16
 80020c0:	d120      	bne.n	8002104 <SPI_Init+0x2c4>
 80020c2:	2300      	movs	r3, #0
 80020c4:	f04f 0c05 	mov.w	ip, #5
 80020c8:	e9cd 3c01 	strd	r3, ip, [sp, #4]
 80020cc:	2203      	movs	r2, #3
 80020ce:	4814      	ldr	r0, [pc, #80]	@ (8002120 <SPI_Init+0x2e0>)
 80020d0:	9200      	str	r2, [sp, #0]
 80020d2:	2106      	movs	r1, #6
 80020d4:	2202      	movs	r2, #2
 80020d6:	f7ff fdeb 	bl	8001cb0 <GPIO_Pin_Init>
 80020da:	6823      	ldr	r3, [r4, #0]
 80020dc:	681a      	ldr	r2, [r3, #0]
 80020de:	f442 4200 	orr.w	r2, r2, #32768	@ 0x8000
 80020e2:	601a      	str	r2, [r3, #0]
 80020e4:	681a      	ldr	r2, [r3, #0]
 80020e6:	f422 4280 	bic.w	r2, r2, #16384	@ 0x4000
 80020ea:	e7c2      	b.n	8002072 <SPI_Init+0x232>
 80020ec:	2b21      	cmp	r3, #33	@ 0x21
 80020ee:	d1e5      	bne.n	80020bc <SPI_Init+0x27c>
 80020f0:	2300      	movs	r3, #0
 80020f2:	f04f 0e05 	mov.w	lr, #5
 80020f6:	2103      	movs	r1, #3
 80020f8:	e9cd 3e01 	strd	r3, lr, [sp, #4]
 80020fc:	4809      	ldr	r0, [pc, #36]	@ (8002124 <SPI_Init+0x2e4>)
 80020fe:	9100      	str	r1, [sp, #0]
 8002100:	2202      	movs	r2, #2
 8002102:	e7d9      	b.n	80020b8 <SPI_Init+0x278>
 8002104:	2b22      	cmp	r3, #34	@ 0x22
 8002106:	d1e8      	bne.n	80020da <SPI_Init+0x29a>
 8002108:	2300      	movs	r3, #0
 800210a:	2505      	movs	r5, #5
 800210c:	e9cd 3501 	strd	r3, r5, [sp, #4]
 8002110:	2203      	movs	r2, #3
 8002112:	9200      	str	r2, [sp, #0]
 8002114:	2104      	movs	r1, #4
 8002116:	2202      	movs	r2, #2
 8002118:	4802      	ldr	r0, [pc, #8]	@ (8002124 <SPI_Init+0x2e4>)
 800211a:	e7dc      	b.n	80020d6 <SPI_Init+0x296>
 800211c:	40013000 	.word	0x40013000
 8002120:	40020000 	.word	0x40020000
 8002124:	40020400 	.word	0x40020400
 8002128:	4ab0      	ldr	r2, [pc, #704]	@ (80023ec <SPI_Init+0x5ac>)
 800212a:	4293      	cmp	r3, r2
 800212c:	f040 80a6 	bne.w	800227c <SPI_Init+0x43c>
 8002130:	89e3      	ldrh	r3, [r4, #14]
 8002132:	2b0b      	cmp	r3, #11
 8002134:	d009      	beq.n	800214a <SPI_Init+0x30a>
 8002136:	3b0c      	subs	r3, #12
 8002138:	2b06      	cmp	r3, #6
 800213a:	f63f aee4 	bhi.w	8001f06 <SPI_Init+0xc6>
 800213e:	e8df f003 	tbb	[pc, r3]
 8002142:	5104      	.short	0x5104
 8002144:	51516969 	.word	0x51516969
 8002148:	69          	.byte	0x69
 8002149:	00          	.byte	0x00
 800214a:	7923      	ldrb	r3, [r4, #4]
 800214c:	2b13      	cmp	r3, #19
 800214e:	d125      	bne.n	800219c <SPI_Init+0x35c>
 8002150:	2300      	movs	r3, #0
 8002152:	2005      	movs	r0, #5
 8002154:	e9cd 3001 	strd	r3, r0, [sp, #4]
 8002158:	2203      	movs	r2, #3
 800215a:	9200      	str	r2, [sp, #0]
 800215c:	210a      	movs	r1, #10
 800215e:	2202      	movs	r2, #2
 8002160:	48a3      	ldr	r0, [pc, #652]	@ (80023f0 <SPI_Init+0x5b0>)
 8002162:	f7ff fda5 	bl	8001cb0 <GPIO_Pin_Init>
 8002166:	79a3      	ldrb	r3, [r4, #6]
 8002168:	2b1b      	cmp	r3, #27
 800216a:	d122      	bne.n	80021b2 <SPI_Init+0x372>
 800216c:	2205      	movs	r2, #5
 800216e:	2300      	movs	r3, #0
 8002170:	e9cd 3201 	strd	r3, r2, [sp, #4]
 8002174:	489e      	ldr	r0, [pc, #632]	@ (80023f0 <SPI_Init+0x5b0>)
 8002176:	2203      	movs	r2, #3
 8002178:	9200      	str	r2, [sp, #0]
 800217a:	210e      	movs	r1, #14
 800217c:	2202      	movs	r2, #2
 800217e:	f7ff fd97 	bl	8001cb0 <GPIO_Pin_Init>
 8002182:	7963      	ldrb	r3, [r4, #5]
 8002184:	2b1d      	cmp	r3, #29
 8002186:	d121      	bne.n	80021cc <SPI_Init+0x38c>
 8002188:	2203      	movs	r2, #3
 800218a:	2300      	movs	r3, #0
 800218c:	f04f 0c05 	mov.w	ip, #5
 8002190:	9200      	str	r2, [sp, #0]
 8002192:	e9cd 3c01 	strd	r3, ip, [sp, #4]
 8002196:	2202      	movs	r2, #2
 8002198:	210f      	movs	r1, #15
 800219a:	e745      	b.n	8002028 <SPI_Init+0x1e8>
 800219c:	2b17      	cmp	r3, #23
 800219e:	d1e2      	bne.n	8002166 <SPI_Init+0x326>
 80021a0:	2105      	movs	r1, #5
 80021a2:	2203      	movs	r2, #3
 80021a4:	2300      	movs	r3, #0
 80021a6:	e9cd 3101 	strd	r3, r1, [sp, #4]
 80021aa:	9200      	str	r2, [sp, #0]
 80021ac:	210d      	movs	r1, #13
 80021ae:	2202      	movs	r2, #2
 80021b0:	e7d6      	b.n	8002160 <SPI_Init+0x320>
 80021b2:	2b20      	cmp	r3, #32
 80021b4:	d1e5      	bne.n	8002182 <SPI_Init+0x342>
 80021b6:	2203      	movs	r2, #3
 80021b8:	2300      	movs	r3, #0
 80021ba:	f04f 0e05 	mov.w	lr, #5
 80021be:	9200      	str	r2, [sp, #0]
 80021c0:	2202      	movs	r2, #2
 80021c2:	e9cd 3e01 	strd	r3, lr, [sp, #4]
 80021c6:	488b      	ldr	r0, [pc, #556]	@ (80023f4 <SPI_Init+0x5b4>)
 80021c8:	4611      	mov	r1, r2
 80021ca:	e7d8      	b.n	800217e <SPI_Init+0x33e>
 80021cc:	2b11      	cmp	r3, #17
 80021ce:	f47f ae95 	bne.w	8001efc <SPI_Init+0xbc>
 80021d2:	2300      	movs	r3, #0
 80021d4:	2505      	movs	r5, #5
 80021d6:	e9cd 3501 	strd	r3, r5, [sp, #4]
 80021da:	2103      	movs	r1, #3
 80021dc:	9100      	str	r1, [sp, #0]
 80021de:	2202      	movs	r2, #2
 80021e0:	4884      	ldr	r0, [pc, #528]	@ (80023f4 <SPI_Init+0x5b4>)
 80021e2:	e689      	b.n	8001ef8 <SPI_Init+0xb8>
 80021e4:	7923      	ldrb	r3, [r4, #4]
 80021e6:	2b13      	cmp	r3, #19
 80021e8:	d108      	bne.n	80021fc <SPI_Init+0x3bc>
 80021ea:	2203      	movs	r2, #3
 80021ec:	2300      	movs	r3, #0
 80021ee:	2005      	movs	r0, #5
 80021f0:	9200      	str	r2, [sp, #0]
 80021f2:	e9cd 3001 	strd	r3, r0, [sp, #4]
 80021f6:	2202      	movs	r2, #2
 80021f8:	210a      	movs	r1, #10
 80021fa:	e750      	b.n	800209e <SPI_Init+0x25e>
 80021fc:	2b17      	cmp	r3, #23
 80021fe:	f47f af30 	bne.w	8002062 <SPI_Init+0x222>
 8002202:	2105      	movs	r1, #5
 8002204:	2203      	movs	r2, #3
 8002206:	2300      	movs	r3, #0
 8002208:	e9cd 3101 	strd	r3, r1, [sp, #4]
 800220c:	9200      	str	r2, [sp, #0]
 800220e:	210d      	movs	r1, #13
 8002210:	2202      	movs	r2, #2
 8002212:	e744      	b.n	800209e <SPI_Init+0x25e>
 8002214:	7923      	ldrb	r3, [r4, #4]
 8002216:	2b13      	cmp	r3, #19
 8002218:	d117      	bne.n	800224a <SPI_Init+0x40a>
 800221a:	2205      	movs	r2, #5
 800221c:	2300      	movs	r3, #0
 800221e:	e9cd 3201 	strd	r3, r2, [sp, #4]
 8002222:	2203      	movs	r2, #3
 8002224:	9200      	str	r2, [sp, #0]
 8002226:	210a      	movs	r1, #10
 8002228:	2202      	movs	r2, #2
 800222a:	4871      	ldr	r0, [pc, #452]	@ (80023f0 <SPI_Init+0x5b0>)
 800222c:	f7ff fd40 	bl	8001cb0 <GPIO_Pin_Init>
 8002230:	79a3      	ldrb	r3, [r4, #6]
 8002232:	2b1b      	cmp	r3, #27
 8002234:	d115      	bne.n	8002262 <SPI_Init+0x422>
 8002236:	2203      	movs	r2, #3
 8002238:	2300      	movs	r3, #0
 800223a:	f04f 0c05 	mov.w	ip, #5
 800223e:	9200      	str	r2, [sp, #0]
 8002240:	e9cd 3c01 	strd	r3, ip, [sp, #4]
 8002244:	2202      	movs	r2, #2
 8002246:	210e      	movs	r1, #14
 8002248:	e766      	b.n	8002118 <SPI_Init+0x2d8>
 800224a:	2b17      	cmp	r3, #23
 800224c:	d1f0      	bne.n	8002230 <SPI_Init+0x3f0>
 800224e:	2203      	movs	r2, #3
 8002250:	2300      	movs	r3, #0
 8002252:	f04f 0e05 	mov.w	lr, #5
 8002256:	9200      	str	r2, [sp, #0]
 8002258:	e9cd 3e01 	strd	r3, lr, [sp, #4]
 800225c:	2202      	movs	r2, #2
 800225e:	210d      	movs	r1, #13
 8002260:	e7e3      	b.n	800222a <SPI_Init+0x3ea>
 8002262:	2b20      	cmp	r3, #32
 8002264:	f47f af39 	bne.w	80020da <SPI_Init+0x29a>
 8002268:	2300      	movs	r3, #0
 800226a:	2505      	movs	r5, #5
 800226c:	2203      	movs	r2, #3
 800226e:	e9cd 3501 	strd	r3, r5, [sp, #4]
 8002272:	9200      	str	r2, [sp, #0]
 8002274:	2202      	movs	r2, #2
 8002276:	4611      	mov	r1, r2
 8002278:	485e      	ldr	r0, [pc, #376]	@ (80023f4 <SPI_Init+0x5b4>)
 800227a:	e72c      	b.n	80020d6 <SPI_Init+0x296>
 800227c:	4a5e      	ldr	r2, [pc, #376]	@ (80023f8 <SPI_Init+0x5b8>)
 800227e:	4293      	cmp	r3, r2
 8002280:	f47f ae41 	bne.w	8001f06 <SPI_Init+0xc6>
 8002284:	89e3      	ldrh	r3, [r4, #14]
 8002286:	2b0b      	cmp	r3, #11
 8002288:	d009      	beq.n	800229e <SPI_Init+0x45e>
 800228a:	3b0c      	subs	r3, #12
 800228c:	2b06      	cmp	r3, #6
 800228e:	f63f ae3a 	bhi.w	8001f06 <SPI_Init+0xc6>
 8002292:	e8df f003 	tbb	[pc, r3]
 8002296:	5104      	.short	0x5104
 8002298:	51518484 	.word	0x51518484
 800229c:	84          	.byte	0x84
 800229d:	00          	.byte	0x00
 800229e:	7923      	ldrb	r3, [r4, #4]
 80022a0:	2b17      	cmp	r3, #23
 80022a2:	d124      	bne.n	80022ee <SPI_Init+0x4ae>
 80022a4:	2006      	movs	r0, #6
 80022a6:	2300      	movs	r3, #0
 80022a8:	e9cd 3001 	strd	r3, r0, [sp, #4]
 80022ac:	2103      	movs	r1, #3
 80022ae:	4850      	ldr	r0, [pc, #320]	@ (80023f0 <SPI_Init+0x5b0>)
 80022b0:	9100      	str	r1, [sp, #0]
 80022b2:	2202      	movs	r2, #2
 80022b4:	f7ff fcfc 	bl	8001cb0 <GPIO_Pin_Init>
 80022b8:	79a3      	ldrb	r3, [r4, #6]
 80022ba:	2b18      	cmp	r3, #24
 80022bc:	d123      	bne.n	8002306 <SPI_Init+0x4c6>
 80022be:	2206      	movs	r2, #6
 80022c0:	2300      	movs	r3, #0
 80022c2:	e9cd 3201 	strd	r3, r2, [sp, #4]
 80022c6:	484a      	ldr	r0, [pc, #296]	@ (80023f0 <SPI_Init+0x5b0>)
 80022c8:	2203      	movs	r2, #3
 80022ca:	9200      	str	r2, [sp, #0]
 80022cc:	2104      	movs	r1, #4
 80022ce:	2202      	movs	r2, #2
 80022d0:	f7ff fcee 	bl	8001cb0 <GPIO_Pin_Init>
 80022d4:	7963      	ldrb	r3, [r4, #5]
 80022d6:	2b19      	cmp	r3, #25
 80022d8:	d122      	bne.n	8002320 <SPI_Init+0x4e0>
 80022da:	2203      	movs	r2, #3
 80022dc:	2300      	movs	r3, #0
 80022de:	f04f 0c06 	mov.w	ip, #6
 80022e2:	9200      	str	r2, [sp, #0]
 80022e4:	e9cd 3c01 	strd	r3, ip, [sp, #4]
 80022e8:	2202      	movs	r2, #2
 80022ea:	2105      	movs	r1, #5
 80022ec:	e69c      	b.n	8002028 <SPI_Init+0x1e8>
 80022ee:	2b25      	cmp	r3, #37	@ 0x25
 80022f0:	d1e2      	bne.n	80022b8 <SPI_Init+0x478>
 80022f2:	2106      	movs	r1, #6
 80022f4:	2203      	movs	r2, #3
 80022f6:	2300      	movs	r3, #0
 80022f8:	e9cd 3101 	strd	r3, r1, [sp, #4]
 80022fc:	9200      	str	r2, [sp, #0]
 80022fe:	483d      	ldr	r0, [pc, #244]	@ (80023f4 <SPI_Init+0x5b4>)
 8002300:	2202      	movs	r2, #2
 8002302:	210a      	movs	r1, #10
 8002304:	e7d6      	b.n	80022b4 <SPI_Init+0x474>
 8002306:	2b27      	cmp	r3, #39	@ 0x27
 8002308:	d1e4      	bne.n	80022d4 <SPI_Init+0x494>
 800230a:	2203      	movs	r2, #3
 800230c:	2300      	movs	r3, #0
 800230e:	f04f 0e06 	mov.w	lr, #6
 8002312:	9200      	str	r2, [sp, #0]
 8002314:	e9cd 3e01 	strd	r3, lr, [sp, #4]
 8002318:	4836      	ldr	r0, [pc, #216]	@ (80023f4 <SPI_Init+0x5b4>)
 800231a:	2202      	movs	r2, #2
 800231c:	210b      	movs	r1, #11
 800231e:	e7d7      	b.n	80022d0 <SPI_Init+0x490>
 8002320:	2b27      	cmp	r3, #39	@ 0x27
 8002322:	f47f adeb 	bne.w	8001efc <SPI_Init+0xbc>
 8002326:	2203      	movs	r2, #3
 8002328:	2300      	movs	r3, #0
 800232a:	2506      	movs	r5, #6
 800232c:	9200      	str	r2, [sp, #0]
 800232e:	e9cd 3501 	strd	r3, r5, [sp, #4]
 8002332:	2202      	movs	r2, #2
 8002334:	210c      	movs	r1, #12
 8002336:	e753      	b.n	80021e0 <SPI_Init+0x3a0>
 8002338:	7923      	ldrb	r3, [r4, #4]
 800233a:	2b17      	cmp	r3, #23
 800233c:	d115      	bne.n	800236a <SPI_Init+0x52a>
 800233e:	2006      	movs	r0, #6
 8002340:	2300      	movs	r3, #0
 8002342:	e9cd 3001 	strd	r3, r0, [sp, #4]
 8002346:	2103      	movs	r1, #3
 8002348:	4829      	ldr	r0, [pc, #164]	@ (80023f0 <SPI_Init+0x5b0>)
 800234a:	9100      	str	r1, [sp, #0]
 800234c:	2202      	movs	r2, #2
 800234e:	f7ff fcaf 	bl	8001cb0 <GPIO_Pin_Init>
 8002352:	79a3      	ldrb	r3, [r4, #6]
 8002354:	2b18      	cmp	r3, #24
 8002356:	d114      	bne.n	8002382 <SPI_Init+0x542>
 8002358:	2206      	movs	r2, #6
 800235a:	2300      	movs	r3, #0
 800235c:	e9cd 3201 	strd	r3, r2, [sp, #4]
 8002360:	2203      	movs	r2, #3
 8002362:	9200      	str	r2, [sp, #0]
 8002364:	2104      	movs	r1, #4
 8002366:	2202      	movs	r2, #2
 8002368:	e699      	b.n	800209e <SPI_Init+0x25e>
 800236a:	2b25      	cmp	r3, #37	@ 0x25
 800236c:	d1f1      	bne.n	8002352 <SPI_Init+0x512>
 800236e:	2106      	movs	r1, #6
 8002370:	2203      	movs	r2, #3
 8002372:	2300      	movs	r3, #0
 8002374:	e9cd 3101 	strd	r3, r1, [sp, #4]
 8002378:	9200      	str	r2, [sp, #0]
 800237a:	481e      	ldr	r0, [pc, #120]	@ (80023f4 <SPI_Init+0x5b4>)
 800237c:	2202      	movs	r2, #2
 800237e:	210a      	movs	r1, #10
 8002380:	e7e5      	b.n	800234e <SPI_Init+0x50e>
 8002382:	2b27      	cmp	r3, #39	@ 0x27
 8002384:	f47f ae6d 	bne.w	8002062 <SPI_Init+0x222>
 8002388:	2203      	movs	r2, #3
 800238a:	2300      	movs	r3, #0
 800238c:	f04f 0e06 	mov.w	lr, #6
 8002390:	9200      	str	r2, [sp, #0]
 8002392:	e9cd 3e01 	strd	r3, lr, [sp, #4]
 8002396:	4817      	ldr	r0, [pc, #92]	@ (80023f4 <SPI_Init+0x5b4>)
 8002398:	2202      	movs	r2, #2
 800239a:	210b      	movs	r1, #11
 800239c:	e65f      	b.n	800205e <SPI_Init+0x21e>
 800239e:	7923      	ldrb	r3, [r4, #4]
 80023a0:	2b17      	cmp	r3, #23
 80023a2:	d116      	bne.n	80023d2 <SPI_Init+0x592>
 80023a4:	2300      	movs	r3, #0
 80023a6:	f04f 0c06 	mov.w	ip, #6
 80023aa:	e9cd 3c01 	strd	r3, ip, [sp, #4]
 80023ae:	2103      	movs	r1, #3
 80023b0:	480f      	ldr	r0, [pc, #60]	@ (80023f0 <SPI_Init+0x5b0>)
 80023b2:	9100      	str	r1, [sp, #0]
 80023b4:	2202      	movs	r2, #2
 80023b6:	f7ff fc7b 	bl	8001cb0 <GPIO_Pin_Init>
 80023ba:	7963      	ldrb	r3, [r4, #5]
 80023bc:	2b19      	cmp	r3, #25
 80023be:	d11d      	bne.n	80023fc <SPI_Init+0x5bc>
 80023c0:	2203      	movs	r2, #3
 80023c2:	2300      	movs	r3, #0
 80023c4:	2006      	movs	r0, #6
 80023c6:	9200      	str	r2, [sp, #0]
 80023c8:	e9cd 3001 	strd	r3, r0, [sp, #4]
 80023cc:	2202      	movs	r2, #2
 80023ce:	2105      	movs	r1, #5
 80023d0:	e6a2      	b.n	8002118 <SPI_Init+0x2d8>
 80023d2:	2b25      	cmp	r3, #37	@ 0x25
 80023d4:	d1f1      	bne.n	80023ba <SPI_Init+0x57a>
 80023d6:	2203      	movs	r2, #3
 80023d8:	2300      	movs	r3, #0
 80023da:	2506      	movs	r5, #6
 80023dc:	9200      	str	r2, [sp, #0]
 80023de:	e9cd 3501 	strd	r3, r5, [sp, #4]
 80023e2:	4804      	ldr	r0, [pc, #16]	@ (80023f4 <SPI_Init+0x5b4>)
 80023e4:	2202      	movs	r2, #2
 80023e6:	210a      	movs	r1, #10
 80023e8:	e7e5      	b.n	80023b6 <SPI_Init+0x576>
 80023ea:	bf00      	nop
 80023ec:	40003800 	.word	0x40003800
 80023f0:	40020400 	.word	0x40020400
 80023f4:	40020800 	.word	0x40020800
 80023f8:	40003c00 	.word	0x40003c00
 80023fc:	2b27      	cmp	r3, #39	@ 0x27
 80023fe:	f47f ae6c 	bne.w	80020da <SPI_Init+0x29a>
 8002402:	2106      	movs	r1, #6
 8002404:	2203      	movs	r2, #3
 8002406:	2300      	movs	r3, #0
 8002408:	e9cd 3101 	strd	r3, r1, [sp, #4]
 800240c:	9200      	str	r2, [sp, #0]
 800240e:	210c      	movs	r1, #12
 8002410:	2202      	movs	r2, #2
 8002412:	e731      	b.n	8002278 <SPI_Init+0x438>
 8002414:	2a16      	cmp	r2, #22
 8002416:	d124      	bne.n	8002462 <SPI_Init+0x622>
 8002418:	681a      	ldr	r2, [r3, #0]
 800241a:	f042 0201 	orr.w	r2, r2, #1
 800241e:	e591      	b.n	8001f44 <SPI_Init+0x104>
 8002420:	2a20      	cmp	r2, #32
 8002422:	d11e      	bne.n	8002462 <SPI_Init+0x622>
 8002424:	681a      	ldr	r2, [r3, #0]
 8002426:	f042 0202 	orr.w	r2, r2, #2
 800242a:	e593      	b.n	8001f54 <SPI_Init+0x114>
 800242c:	2a01      	cmp	r2, #1
 800242e:	d118      	bne.n	8002462 <SPI_Init+0x622>
 8002430:	681a      	ldr	r2, [r3, #0]
 8002432:	f442 5200 	orr.w	r2, r2, #8192	@ 0x2000
 8002436:	e595      	b.n	8001f64 <SPI_Init+0x124>
 8002438:	2a0c      	cmp	r2, #12
 800243a:	d112      	bne.n	8002462 <SPI_Init+0x622>
 800243c:	681a      	ldr	r2, [r3, #0]
 800243e:	f442 6200 	orr.w	r2, r2, #2048	@ 0x800
 8002442:	e597      	b.n	8001f74 <SPI_Init+0x134>
 8002444:	2a17      	cmp	r2, #23
 8002446:	d10c      	bne.n	8002462 <SPI_Init+0x622>
 8002448:	681a      	ldr	r2, [r3, #0]
 800244a:	f022 0280 	bic.w	r2, r2, #128	@ 0x80
 800244e:	e599      	b.n	8001f84 <SPI_Init+0x144>
 8002450:	3a29      	subs	r2, #41	@ 0x29
 8002452:	2a06      	cmp	r2, #6
 8002454:	d805      	bhi.n	8002462 <SPI_Init+0x622>
 8002456:	e8df f002 	tbb	[pc, r2]
 800245a:	0c08      	.short	0x0c08
 800245c:	1c181410 	.word	0x1c181410
 8002460:	20          	.byte	0x20
 8002461:	00          	.byte	0x00
 8002462:	f04f 30ff 	mov.w	r0, #4294967295
 8002466:	b005      	add	sp, #20
 8002468:	bd30      	pop	{r4, r5, pc}
 800246a:	681a      	ldr	r2, [r3, #0]
 800246c:	f042 0208 	orr.w	r2, r2, #8
 8002470:	e590      	b.n	8001f94 <SPI_Init+0x154>
 8002472:	681a      	ldr	r2, [r3, #0]
 8002474:	f042 0210 	orr.w	r2, r2, #16
 8002478:	e58c      	b.n	8001f94 <SPI_Init+0x154>
 800247a:	681a      	ldr	r2, [r3, #0]
 800247c:	f042 0218 	orr.w	r2, r2, #24
 8002480:	e588      	b.n	8001f94 <SPI_Init+0x154>
 8002482:	681a      	ldr	r2, [r3, #0]
 8002484:	f042 0220 	orr.w	r2, r2, #32
 8002488:	e584      	b.n	8001f94 <SPI_Init+0x154>
 800248a:	681a      	ldr	r2, [r3, #0]
 800248c:	f042 0228 	orr.w	r2, r2, #40	@ 0x28
 8002490:	e580      	b.n	8001f94 <SPI_Init+0x154>
 8002492:	681a      	ldr	r2, [r3, #0]
 8002494:	f042 0230 	orr.w	r2, r2, #48	@ 0x30
 8002498:	e57c      	b.n	8001f94 <SPI_Init+0x154>
 800249a:	681a      	ldr	r2, [r3, #0]
 800249c:	f042 0238 	orr.w	r2, r2, #56	@ 0x38
 80024a0:	e578      	b.n	8001f94 <SPI_Init+0x154>
 80024a2:	2a33      	cmp	r2, #51	@ 0x33
 80024a4:	d1dd      	bne.n	8002462 <SPI_Init+0x622>
 80024a6:	681a      	ldr	r2, [r3, #0]
 80024a8:	f022 0204 	bic.w	r2, r2, #4
 80024ac:	e57a      	b.n	8001fa4 <SPI_Init+0x164>
 80024ae:	2a49      	cmp	r2, #73	@ 0x49
 80024b0:	d103      	bne.n	80024ba <SPI_Init+0x67a>
 80024b2:	685a      	ldr	r2, [r3, #4]
 80024b4:	f042 0280 	orr.w	r2, r2, #128	@ 0x80
 80024b8:	e57c      	b.n	8001fb4 <SPI_Init+0x174>
 80024ba:	2a48      	cmp	r2, #72	@ 0x48
 80024bc:	d103      	bne.n	80024c6 <SPI_Init+0x686>
 80024be:	685a      	ldr	r2, [r3, #4]
 80024c0:	f042 0240 	orr.w	r2, r2, #64	@ 0x40
 80024c4:	e576      	b.n	8001fb4 <SPI_Init+0x174>
 80024c6:	2a47      	cmp	r2, #71	@ 0x47
 80024c8:	d1cb      	bne.n	8002462 <SPI_Init+0x622>
 80024ca:	685a      	ldr	r2, [r3, #4]
 80024cc:	f042 0220 	orr.w	r2, r2, #32
 80024d0:	e570      	b.n	8001fb4 <SPI_Init+0x174>
 80024d2:	0712      	lsls	r2, r2, #28
 80024d4:	f57f ad78 	bpl.w	8001fc8 <SPI_Init+0x188>
 80024d8:	4a35      	ldr	r2, [pc, #212]	@ (80025b0 <SPI_Init+0x770>)
 80024da:	4293      	cmp	r3, r2
 80024dc:	d115      	bne.n	800250a <SPI_Init+0x6ca>
 80024de:	4a35      	ldr	r2, [pc, #212]	@ (80025b4 <SPI_Init+0x774>)
 80024e0:	4b35      	ldr	r3, [pc, #212]	@ (80025b8 <SPI_Init+0x778>)
 80024e2:	ca07      	ldmia	r2, {r0, r1, r2}
 80024e4:	e883 0007 	stmia.w	r3, {r0, r1, r2}
 80024e8:	f44f 3240 	mov.w	r2, #196608	@ 0x30000
 80024ec:	e9c3 2505 	strd	r2, r5, [r3, #20]
 80024f0:	2010      	movs	r0, #16
 80024f2:	f44f 6280 	mov.w	r2, #1024	@ 0x400
 80024f6:	e9c3 5503 	strd	r5, r5, [r3, #12]
 80024fa:	e9c3 0207 	strd	r0, r2, [r3, #28]
 80024fe:	4a2f      	ldr	r2, [pc, #188]	@ (80025bc <SPI_Init+0x77c>)
 8002500:	64da      	str	r2, [r3, #76]	@ 0x4c
 8002502:	4618      	mov	r0, r3
 8002504:	f7ff f9de 	bl	80018c4 <DMA_Init>
 8002508:	e55e      	b.n	8001fc8 <SPI_Init+0x188>
 800250a:	4a2d      	ldr	r2, [pc, #180]	@ (80025c0 <SPI_Init+0x780>)
 800250c:	4293      	cmp	r3, r2
 800250e:	d110      	bne.n	8002532 <SPI_Init+0x6f2>
 8002510:	4b2c      	ldr	r3, [pc, #176]	@ (80025c4 <SPI_Init+0x784>)
 8002512:	4a2d      	ldr	r2, [pc, #180]	@ (80025c8 <SPI_Init+0x788>)
 8002514:	60dd      	str	r5, [r3, #12]
 8002516:	ca07      	ldmia	r2, {r0, r1, r2}
 8002518:	e883 0007 	stmia.w	r3, {r0, r1, r2}
 800251c:	f44f 3240 	mov.w	r2, #196608	@ 0x30000
 8002520:	2140      	movs	r1, #64	@ 0x40
 8002522:	e9c3 1204 	strd	r1, r2, [r3, #16]
 8002526:	f44f 6280 	mov.w	r2, #1024	@ 0x400
 800252a:	e9c3 5506 	strd	r5, r5, [r3, #24]
 800252e:	621a      	str	r2, [r3, #32]
 8002530:	e7e7      	b.n	8002502 <SPI_Init+0x6c2>
 8002532:	4a26      	ldr	r2, [pc, #152]	@ (80025cc <SPI_Init+0x78c>)
 8002534:	4293      	cmp	r3, r2
 8002536:	d194      	bne.n	8002462 <SPI_Init+0x622>
 8002538:	4b25      	ldr	r3, [pc, #148]	@ (80025d0 <SPI_Init+0x790>)
 800253a:	4a26      	ldr	r2, [pc, #152]	@ (80025d4 <SPI_Init+0x794>)
 800253c:	e7ea      	b.n	8002514 <SPI_Init+0x6d4>
 800253e:	079b      	lsls	r3, r3, #30
 8002540:	d58f      	bpl.n	8002462 <SPI_Init+0x622>
 8002542:	6823      	ldr	r3, [r4, #0]
 8002544:	4a1a      	ldr	r2, [pc, #104]	@ (80025b0 <SPI_Init+0x770>)
 8002546:	4293      	cmp	r3, r2
 8002548:	d116      	bne.n	8002578 <SPI_Init+0x738>
 800254a:	4a23      	ldr	r2, [pc, #140]	@ (80025d8 <SPI_Init+0x798>)
 800254c:	4b23      	ldr	r3, [pc, #140]	@ (80025dc <SPI_Init+0x79c>)
 800254e:	ca07      	ldmia	r2, {r0, r1, r2}
 8002550:	e883 0007 	stmia.w	r3, {r0, r1, r2}
 8002554:	f44f 3240 	mov.w	r2, #196608	@ 0x30000
 8002558:	2040      	movs	r0, #64	@ 0x40
 800255a:	e9c3 0204 	strd	r0, r2, [r3, #16]
 800255e:	2410      	movs	r4, #16
 8002560:	f44f 6280 	mov.w	r2, #1024	@ 0x400
 8002564:	e9c3 4207 	strd	r4, r2, [r3, #28]
 8002568:	4a1d      	ldr	r2, [pc, #116]	@ (80025e0 <SPI_Init+0x7a0>)
 800256a:	60dd      	str	r5, [r3, #12]
 800256c:	619d      	str	r5, [r3, #24]
 800256e:	64da      	str	r2, [r3, #76]	@ 0x4c
 8002570:	4618      	mov	r0, r3
 8002572:	f7ff f9a7 	bl	80018c4 <DMA_Init>
 8002576:	e531      	b.n	8001fdc <SPI_Init+0x19c>
 8002578:	4a11      	ldr	r2, [pc, #68]	@ (80025c0 <SPI_Init+0x780>)
 800257a:	4293      	cmp	r3, r2
 800257c:	d110      	bne.n	80025a0 <SPI_Init+0x760>
 800257e:	4b19      	ldr	r3, [pc, #100]	@ (80025e4 <SPI_Init+0x7a4>)
 8002580:	4a19      	ldr	r2, [pc, #100]	@ (80025e8 <SPI_Init+0x7a8>)
 8002582:	60dd      	str	r5, [r3, #12]
 8002584:	ca07      	ldmia	r2, {r0, r1, r2}
 8002586:	e883 0007 	stmia.w	r3, {r0, r1, r2}
 800258a:	f44f 3240 	mov.w	r2, #196608	@ 0x30000
 800258e:	2140      	movs	r1, #64	@ 0x40
 8002590:	e9c3 1204 	strd	r1, r2, [r3, #16]
 8002594:	f44f 6280 	mov.w	r2, #1024	@ 0x400
 8002598:	e9c3 5506 	strd	r5, r5, [r3, #24]
 800259c:	621a      	str	r2, [r3, #32]
 800259e:	e7e7      	b.n	8002570 <SPI_Init+0x730>
 80025a0:	4a0a      	ldr	r2, [pc, #40]	@ (80025cc <SPI_Init+0x78c>)
 80025a2:	4293      	cmp	r3, r2
 80025a4:	f47f af5d 	bne.w	8002462 <SPI_Init+0x622>
 80025a8:	4b10      	ldr	r3, [pc, #64]	@ (80025ec <SPI_Init+0x7ac>)
 80025aa:	4a11      	ldr	r2, [pc, #68]	@ (80025f0 <SPI_Init+0x7b0>)
 80025ac:	e7e9      	b.n	8002582 <SPI_Init+0x742>
 80025ae:	bf00      	nop
 80025b0:	40013000 	.word	0x40013000
 80025b4:	0800324c 	.word	0x0800324c
 80025b8:	20000208 	.word	0x20000208
 80025bc:	08001d8d 	.word	0x08001d8d
 80025c0:	40003800 	.word	0x40003800
 80025c4:	20000158 	.word	0x20000158
 80025c8:	08003234 	.word	0x08003234
 80025cc:	40003c00 	.word	0x40003c00
 80025d0:	200000a8 	.word	0x200000a8
 80025d4:	0800321c 	.word	0x0800321c
 80025d8:	08003258 	.word	0x08003258
 80025dc:	20000260 	.word	0x20000260
 80025e0:	08001d81 	.word	0x08001d81
 80025e4:	200001b0 	.word	0x200001b0
 80025e8:	08003240 	.word	0x08003240
 80025ec:	20000100 	.word	0x20000100
 80025f0:	08003228 	.word	0x08003228

080025f4 <SPI_NSS_Low>:
 80025f4:	6881      	ldr	r1, [r0, #8]
 80025f6:	7b00      	ldrb	r0, [r0, #12]
 80025f8:	694b      	ldr	r3, [r1, #20]
 80025fa:	2201      	movs	r2, #1
 80025fc:	4082      	lsls	r2, r0
 80025fe:	ea23 0302 	bic.w	r3, r3, r2
 8002602:	614b      	str	r3, [r1, #20]
 8002604:	4770      	bx	lr
	...

08002608 <TIM1_BRK_TIM9_IRQHandler>:
 8002608:	4b1a      	ldr	r3, [pc, #104]	@ (8002674 <TIM1_BRK_TIM9_IRQHandler+0x6c>)
 800260a:	681b      	ldr	r3, [r3, #0]
 800260c:	f8d3 30a8 	ldr.w	r3, [r3, #168]	@ 0xa8
 8002610:	b510      	push	{r4, lr}
 8002612:	b12b      	cbz	r3, 8002620 <TIM1_BRK_TIM9_IRQHandler+0x18>
 8002614:	4798      	blx	r3
 8002616:	4a18      	ldr	r2, [pc, #96]	@ (8002678 <TIM1_BRK_TIM9_IRQHandler+0x70>)
 8002618:	6913      	ldr	r3, [r2, #16]
 800261a:	f023 0380 	bic.w	r3, r3, #128	@ 0x80
 800261e:	6113      	str	r3, [r2, #16]
 8002620:	4c16      	ldr	r4, [pc, #88]	@ (800267c <TIM1_BRK_TIM9_IRQHandler+0x74>)
 8002622:	6823      	ldr	r3, [r4, #0]
 8002624:	f8d3 3090 	ldr.w	r3, [r3, #144]	@ 0x90
 8002628:	b12b      	cbz	r3, 8002636 <TIM1_BRK_TIM9_IRQHandler+0x2e>
 800262a:	4798      	blx	r3
 800262c:	4a14      	ldr	r2, [pc, #80]	@ (8002680 <TIM1_BRK_TIM9_IRQHandler+0x78>)
 800262e:	6913      	ldr	r3, [r2, #16]
 8002630:	f023 0302 	bic.w	r3, r3, #2
 8002634:	6113      	str	r3, [r2, #16]
 8002636:	6823      	ldr	r3, [r4, #0]
 8002638:	f8d3 3094 	ldr.w	r3, [r3, #148]	@ 0x94
 800263c:	b12b      	cbz	r3, 800264a <TIM1_BRK_TIM9_IRQHandler+0x42>
 800263e:	4798      	blx	r3
 8002640:	4a0f      	ldr	r2, [pc, #60]	@ (8002680 <TIM1_BRK_TIM9_IRQHandler+0x78>)
 8002642:	6913      	ldr	r3, [r2, #16]
 8002644:	f023 0304 	bic.w	r3, r3, #4
 8002648:	6113      	str	r3, [r2, #16]
 800264a:	6823      	ldr	r3, [r4, #0]
 800264c:	f8d3 308c 	ldr.w	r3, [r3, #140]	@ 0x8c
 8002650:	b12b      	cbz	r3, 800265e <TIM1_BRK_TIM9_IRQHandler+0x56>
 8002652:	4798      	blx	r3
 8002654:	4a0a      	ldr	r2, [pc, #40]	@ (8002680 <TIM1_BRK_TIM9_IRQHandler+0x78>)
 8002656:	6913      	ldr	r3, [r2, #16]
 8002658:	f023 0301 	bic.w	r3, r3, #1
 800265c:	6113      	str	r3, [r2, #16]
 800265e:	6823      	ldr	r3, [r4, #0]
 8002660:	f8d3 30a4 	ldr.w	r3, [r3, #164]	@ 0xa4
 8002664:	b12b      	cbz	r3, 8002672 <TIM1_BRK_TIM9_IRQHandler+0x6a>
 8002666:	4798      	blx	r3
 8002668:	4a05      	ldr	r2, [pc, #20]	@ (8002680 <TIM1_BRK_TIM9_IRQHandler+0x78>)
 800266a:	6913      	ldr	r3, [r2, #16]
 800266c:	f023 0340 	bic.w	r3, r3, #64	@ 0x40
 8002670:	6113      	str	r3, [r2, #16]
 8002672:	bd10      	pop	{r4, pc}
 8002674:	200002f0 	.word	0x200002f0
 8002678:	40010000 	.word	0x40010000
 800267c:	200002d0 	.word	0x200002d0
 8002680:	40014000 	.word	0x40014000

08002684 <TIM1_UP_TIM10_IRQHandler>:
 8002684:	4b10      	ldr	r3, [pc, #64]	@ (80026c8 <TIM1_UP_TIM10_IRQHandler+0x44>)
 8002686:	681b      	ldr	r3, [r3, #0]
 8002688:	f8d3 308c 	ldr.w	r3, [r3, #140]	@ 0x8c
 800268c:	b510      	push	{r4, lr}
 800268e:	b12b      	cbz	r3, 800269c <TIM1_UP_TIM10_IRQHandler+0x18>
 8002690:	4798      	blx	r3
 8002692:	4a0e      	ldr	r2, [pc, #56]	@ (80026cc <TIM1_UP_TIM10_IRQHandler+0x48>)
 8002694:	6913      	ldr	r3, [r2, #16]
 8002696:	f023 0301 	bic.w	r3, r3, #1
 800269a:	6113      	str	r3, [r2, #16]
 800269c:	4c0c      	ldr	r4, [pc, #48]	@ (80026d0 <TIM1_UP_TIM10_IRQHandler+0x4c>)
 800269e:	6823      	ldr	r3, [r4, #0]
 80026a0:	f8d3 308c 	ldr.w	r3, [r3, #140]	@ 0x8c
 80026a4:	b12b      	cbz	r3, 80026b2 <TIM1_UP_TIM10_IRQHandler+0x2e>
 80026a6:	4798      	blx	r3
 80026a8:	4a0a      	ldr	r2, [pc, #40]	@ (80026d4 <TIM1_UP_TIM10_IRQHandler+0x50>)
 80026aa:	6913      	ldr	r3, [r2, #16]
 80026ac:	f023 0301 	bic.w	r3, r3, #1
 80026b0:	6113      	str	r3, [r2, #16]
 80026b2:	6823      	ldr	r3, [r4, #0]
 80026b4:	f8d3 3090 	ldr.w	r3, [r3, #144]	@ 0x90
 80026b8:	b12b      	cbz	r3, 80026c6 <TIM1_UP_TIM10_IRQHandler+0x42>
 80026ba:	4798      	blx	r3
 80026bc:	4a05      	ldr	r2, [pc, #20]	@ (80026d4 <TIM1_UP_TIM10_IRQHandler+0x50>)
 80026be:	6913      	ldr	r3, [r2, #16]
 80026c0:	f023 0302 	bic.w	r3, r3, #2
 80026c4:	6113      	str	r3, [r2, #16]
 80026c6:	bd10      	pop	{r4, pc}
 80026c8:	200002f0 	.word	0x200002f0
 80026cc:	40010000 	.word	0x40010000
 80026d0:	200002cc 	.word	0x200002cc
 80026d4:	40014400 	.word	0x40014400

080026d8 <TIM1_TRG_COM_TIM11_IRQHandler>:
 80026d8:	b510      	push	{r4, lr}
 80026da:	4c15      	ldr	r4, [pc, #84]	@ (8002730 <TIM1_TRG_COM_TIM11_IRQHandler+0x58>)
 80026dc:	6823      	ldr	r3, [r4, #0]
 80026de:	f8d3 30a4 	ldr.w	r3, [r3, #164]	@ 0xa4
 80026e2:	b12b      	cbz	r3, 80026f0 <TIM1_TRG_COM_TIM11_IRQHandler+0x18>
 80026e4:	4798      	blx	r3
 80026e6:	4a13      	ldr	r2, [pc, #76]	@ (8002734 <TIM1_TRG_COM_TIM11_IRQHandler+0x5c>)
 80026e8:	6913      	ldr	r3, [r2, #16]
 80026ea:	f023 0340 	bic.w	r3, r3, #64	@ 0x40
 80026ee:	6113      	str	r3, [r2, #16]
 80026f0:	6823      	ldr	r3, [r4, #0]
 80026f2:	f8d3 30a0 	ldr.w	r3, [r3, #160]	@ 0xa0
 80026f6:	b12b      	cbz	r3, 8002704 <TIM1_TRG_COM_TIM11_IRQHandler+0x2c>
 80026f8:	4798      	blx	r3
 80026fa:	4a0e      	ldr	r2, [pc, #56]	@ (8002734 <TIM1_TRG_COM_TIM11_IRQHandler+0x5c>)
 80026fc:	6913      	ldr	r3, [r2, #16]
 80026fe:	f023 0320 	bic.w	r3, r3, #32
 8002702:	6113      	str	r3, [r2, #16]
 8002704:	4c0c      	ldr	r4, [pc, #48]	@ (8002738 <TIM1_TRG_COM_TIM11_IRQHandler+0x60>)
 8002706:	6823      	ldr	r3, [r4, #0]
 8002708:	f8d3 308c 	ldr.w	r3, [r3, #140]	@ 0x8c
 800270c:	b12b      	cbz	r3, 800271a <TIM1_TRG_COM_TIM11_IRQHandler+0x42>
 800270e:	4798      	blx	r3
 8002710:	4a0a      	ldr	r2, [pc, #40]	@ (800273c <TIM1_TRG_COM_TIM11_IRQHandler+0x64>)
 8002712:	6913      	ldr	r3, [r2, #16]
 8002714:	f023 0301 	bic.w	r3, r3, #1
 8002718:	6113      	str	r3, [r2, #16]
 800271a:	6823      	ldr	r3, [r4, #0]
 800271c:	f8d3 3090 	ldr.w	r3, [r3, #144]	@ 0x90
 8002720:	b12b      	cbz	r3, 800272e <TIM1_TRG_COM_TIM11_IRQHandler+0x56>
 8002722:	4798      	blx	r3
 8002724:	4a05      	ldr	r2, [pc, #20]	@ (800273c <TIM1_TRG_COM_TIM11_IRQHandler+0x64>)
 8002726:	6913      	ldr	r3, [r2, #16]
 8002728:	f023 0302 	bic.w	r3, r3, #2
 800272c:	6113      	str	r3, [r2, #16]
 800272e:	bd10      	pop	{r4, pc}
 8002730:	200002f0 	.word	0x200002f0
 8002734:	40010000 	.word	0x40010000
 8002738:	200002c8 	.word	0x200002c8
 800273c:	40014800 	.word	0x40014800

08002740 <TIM1_CC_IRQHandler>:
 8002740:	b510      	push	{r4, lr}
 8002742:	4c15      	ldr	r4, [pc, #84]	@ (8002798 <TIM1_CC_IRQHandler+0x58>)
 8002744:	6823      	ldr	r3, [r4, #0]
 8002746:	f8d3 3090 	ldr.w	r3, [r3, #144]	@ 0x90
 800274a:	b12b      	cbz	r3, 8002758 <TIM1_CC_IRQHandler+0x18>
 800274c:	4798      	blx	r3
 800274e:	4a13      	ldr	r2, [pc, #76]	@ (800279c <TIM1_CC_IRQHandler+0x5c>)
 8002750:	6913      	ldr	r3, [r2, #16]
 8002752:	f023 0302 	bic.w	r3, r3, #2
 8002756:	6113      	str	r3, [r2, #16]
 8002758:	6823      	ldr	r3, [r4, #0]
 800275a:	f8d3 3094 	ldr.w	r3, [r3, #148]	@ 0x94
 800275e:	b12b      	cbz	r3, 800276c <TIM1_CC_IRQHandler+0x2c>
 8002760:	4798      	blx	r3
 8002762:	4a0e      	ldr	r2, [pc, #56]	@ (800279c <TIM1_CC_IRQHandler+0x5c>)
 8002764:	6913      	ldr	r3, [r2, #16]
 8002766:	f023 0304 	bic.w	r3, r3, #4
 800276a:	6113      	str	r3, [r2, #16]
 800276c:	6823      	ldr	r3, [r4, #0]
 800276e:	f8d3 3098 	ldr.w	r3, [r3, #152]	@ 0x98
 8002772:	b12b      	cbz	r3, 8002780 <TIM1_CC_IRQHandler+0x40>
 8002774:	4798      	blx	r3
 8002776:	4a09      	ldr	r2, [pc, #36]	@ (800279c <TIM1_CC_IRQHandler+0x5c>)
 8002778:	6913      	ldr	r3, [r2, #16]
 800277a:	f023 0308 	bic.w	r3, r3, #8
 800277e:	6113      	str	r3, [r2, #16]
 8002780:	6823      	ldr	r3, [r4, #0]
 8002782:	f8d3 309c 	ldr.w	r3, [r3, #156]	@ 0x9c
 8002786:	b12b      	cbz	r3, 8002794 <TIM1_CC_IRQHandler+0x54>
 8002788:	4798      	blx	r3
 800278a:	4a04      	ldr	r2, [pc, #16]	@ (800279c <TIM1_CC_IRQHandler+0x5c>)
 800278c:	6913      	ldr	r3, [r2, #16]
 800278e:	f023 0310 	bic.w	r3, r3, #16
 8002792:	6113      	str	r3, [r2, #16]
 8002794:	bd10      	pop	{r4, pc}
 8002796:	bf00      	nop
 8002798:	200002f0 	.word	0x200002f0
 800279c:	40010000 	.word	0x40010000

080027a0 <TIM2_IRQHandler>:
 80027a0:	b510      	push	{r4, lr}
 80027a2:	4c22      	ldr	r4, [pc, #136]	@ (800282c <TIM2_IRQHandler+0x8c>)
 80027a4:	6823      	ldr	r3, [r4, #0]
 80027a6:	f8d3 3090 	ldr.w	r3, [r3, #144]	@ 0x90
 80027aa:	b133      	cbz	r3, 80027ba <TIM2_IRQHandler+0x1a>
 80027ac:	4798      	blx	r3
 80027ae:	f04f 4280 	mov.w	r2, #1073741824	@ 0x40000000
 80027b2:	6913      	ldr	r3, [r2, #16]
 80027b4:	f023 0302 	bic.w	r3, r3, #2
 80027b8:	6113      	str	r3, [r2, #16]
 80027ba:	6823      	ldr	r3, [r4, #0]
 80027bc:	f8d3 3094 	ldr.w	r3, [r3, #148]	@ 0x94
 80027c0:	b133      	cbz	r3, 80027d0 <TIM2_IRQHandler+0x30>
 80027c2:	4798      	blx	r3
 80027c4:	f04f 4280 	mov.w	r2, #1073741824	@ 0x40000000
 80027c8:	6913      	ldr	r3, [r2, #16]
 80027ca:	f023 0304 	bic.w	r3, r3, #4
 80027ce:	6113      	str	r3, [r2, #16]
 80027d0:	6823      	ldr	r3, [r4, #0]
 80027d2:	f8d3 3098 	ldr.w	r3, [r3, #152]	@ 0x98
 80027d6:	b133      	cbz	r3, 80027e6 <TIM2_IRQHandler+0x46>
 80027d8:	4798      	blx	r3
 80027da:	f04f 4280 	mov.w	r2, #1073741824	@ 0x40000000
 80027de:	6913      	ldr	r3, [r2, #16]
 80027e0:	f023 0308 	bic.w	r3, r3, #8
 80027e4:	6113      	str	r3, [r2, #16]
 80027e6:	6823      	ldr	r3, [r4, #0]
 80027e8:	f8d3 309c 	ldr.w	r3, [r3, #156]	@ 0x9c
 80027ec:	b133      	cbz	r3, 80027fc <TIM2_IRQHandler+0x5c>
 80027ee:	4798      	blx	r3
 80027f0:	f04f 4280 	mov.w	r2, #1073741824	@ 0x40000000
 80027f4:	6913      	ldr	r3, [r2, #16]
 80027f6:	f023 0310 	bic.w	r3, r3, #16
 80027fa:	6113      	str	r3, [r2, #16]
 80027fc:	6823      	ldr	r3, [r4, #0]
 80027fe:	f8d3 308c 	ldr.w	r3, [r3, #140]	@ 0x8c
 8002802:	b133      	cbz	r3, 8002812 <TIM2_IRQHandler+0x72>
 8002804:	4798      	blx	r3
 8002806:	f04f 4280 	mov.w	r2, #1073741824	@ 0x40000000
 800280a:	6913      	ldr	r3, [r2, #16]
 800280c:	f023 0301 	bic.w	r3, r3, #1
 8002810:	6113      	str	r3, [r2, #16]
 8002812:	6823      	ldr	r3, [r4, #0]
 8002814:	f8d3 30a4 	ldr.w	r3, [r3, #164]	@ 0xa4
 8002818:	b133      	cbz	r3, 8002828 <TIM2_IRQHandler+0x88>
 800281a:	4798      	blx	r3
 800281c:	f04f 4280 	mov.w	r2, #1073741824	@ 0x40000000
 8002820:	6913      	ldr	r3, [r2, #16]
 8002822:	f023 0340 	bic.w	r3, r3, #64	@ 0x40
 8002826:	6113      	str	r3, [r2, #16]
 8002828:	bd10      	pop	{r4, pc}
 800282a:	bf00      	nop
 800282c:	200002ec 	.word	0x200002ec

08002830 <TIM3_IRQHandler>:
 8002830:	b510      	push	{r4, lr}
 8002832:	4c1f      	ldr	r4, [pc, #124]	@ (80028b0 <TIM3_IRQHandler+0x80>)
 8002834:	6823      	ldr	r3, [r4, #0]
 8002836:	f8d3 3090 	ldr.w	r3, [r3, #144]	@ 0x90
 800283a:	b12b      	cbz	r3, 8002848 <TIM3_IRQHandler+0x18>
 800283c:	4798      	blx	r3
 800283e:	4a1d      	ldr	r2, [pc, #116]	@ (80028b4 <TIM3_IRQHandler+0x84>)
 8002840:	6913      	ldr	r3, [r2, #16]
 8002842:	f023 0302 	bic.w	r3, r3, #2
 8002846:	6113      	str	r3, [r2, #16]
 8002848:	6823      	ldr	r3, [r4, #0]
 800284a:	f8d3 3094 	ldr.w	r3, [r3, #148]	@ 0x94
 800284e:	b12b      	cbz	r3, 800285c <TIM3_IRQHandler+0x2c>
 8002850:	4798      	blx	r3
 8002852:	4a18      	ldr	r2, [pc, #96]	@ (80028b4 <TIM3_IRQHandler+0x84>)
 8002854:	6913      	ldr	r3, [r2, #16]
 8002856:	f023 0304 	bic.w	r3, r3, #4
 800285a:	6113      	str	r3, [r2, #16]
 800285c:	6823      	ldr	r3, [r4, #0]
 800285e:	f8d3 3098 	ldr.w	r3, [r3, #152]	@ 0x98
 8002862:	b12b      	cbz	r3, 8002870 <TIM3_IRQHandler+0x40>
 8002864:	4798      	blx	r3
 8002866:	4a13      	ldr	r2, [pc, #76]	@ (80028b4 <TIM3_IRQHandler+0x84>)
 8002868:	6913      	ldr	r3, [r2, #16]
 800286a:	f023 0308 	bic.w	r3, r3, #8
 800286e:	6113      	str	r3, [r2, #16]
 8002870:	6823      	ldr	r3, [r4, #0]
 8002872:	f8d3 309c 	ldr.w	r3, [r3, #156]	@ 0x9c
 8002876:	b12b      	cbz	r3, 8002884 <TIM3_IRQHandler+0x54>
 8002878:	4798      	blx	r3
 800287a:	4a0e      	ldr	r2, [pc, #56]	@ (80028b4 <TIM3_IRQHandler+0x84>)
 800287c:	6913      	ldr	r3, [r2, #16]
 800287e:	f023 0310 	bic.w	r3, r3, #16
 8002882:	6113      	str	r3, [r2, #16]
 8002884:	6823      	ldr	r3, [r4, #0]
 8002886:	f8d3 308c 	ldr.w	r3, [r3, #140]	@ 0x8c
 800288a:	b12b      	cbz	r3, 8002898 <TIM3_IRQHandler+0x68>
 800288c:	4798      	blx	r3
 800288e:	4a09      	ldr	r2, [pc, #36]	@ (80028b4 <TIM3_IRQHandler+0x84>)
 8002890:	6913      	ldr	r3, [r2, #16]
 8002892:	f023 0301 	bic.w	r3, r3, #1
 8002896:	6113      	str	r3, [r2, #16]
 8002898:	6823      	ldr	r3, [r4, #0]
 800289a:	f8d3 30a4 	ldr.w	r3, [r3, #164]	@ 0xa4
 800289e:	b12b      	cbz	r3, 80028ac <TIM3_IRQHandler+0x7c>
 80028a0:	4798      	blx	r3
 80028a2:	4a04      	ldr	r2, [pc, #16]	@ (80028b4 <TIM3_IRQHandler+0x84>)
 80028a4:	6913      	ldr	r3, [r2, #16]
 80028a6:	f023 0340 	bic.w	r3, r3, #64	@ 0x40
 80028aa:	6113      	str	r3, [r2, #16]
 80028ac:	bd10      	pop	{r4, pc}
 80028ae:	bf00      	nop
 80028b0:	200002e8 	.word	0x200002e8
 80028b4:	40000400 	.word	0x40000400

080028b8 <TIM4_IRQHandler>:
 80028b8:	b510      	push	{r4, lr}
 80028ba:	4c1f      	ldr	r4, [pc, #124]	@ (8002938 <TIM4_IRQHandler+0x80>)
 80028bc:	6823      	ldr	r3, [r4, #0]
 80028be:	f8d3 3090 	ldr.w	r3, [r3, #144]	@ 0x90
 80028c2:	b12b      	cbz	r3, 80028d0 <TIM4_IRQHandler+0x18>
 80028c4:	4798      	blx	r3
 80028c6:	4a1d      	ldr	r2, [pc, #116]	@ (800293c <TIM4_IRQHandler+0x84>)
 80028c8:	6913      	ldr	r3, [r2, #16]
 80028ca:	f023 0302 	bic.w	r3, r3, #2
 80028ce:	6113      	str	r3, [r2, #16]
 80028d0:	6823      	ldr	r3, [r4, #0]
 80028d2:	f8d3 3094 	ldr.w	r3, [r3, #148]	@ 0x94
 80028d6:	b12b      	cbz	r3, 80028e4 <TIM4_IRQHandler+0x2c>
 80028d8:	4798      	blx	r3
 80028da:	4a18      	ldr	r2, [pc, #96]	@ (800293c <TIM4_IRQHandler+0x84>)
 80028dc:	6913      	ldr	r3, [r2, #16]
 80028de:	f023 0304 	bic.w	r3, r3, #4
 80028e2:	6113      	str	r3, [r2, #16]
 80028e4:	6823      	ldr	r3, [r4, #0]
 80028e6:	f8d3 3098 	ldr.w	r3, [r3, #152]	@ 0x98
 80028ea:	b12b      	cbz	r3, 80028f8 <TIM4_IRQHandler+0x40>
 80028ec:	4798      	blx	r3
 80028ee:	4a13      	ldr	r2, [pc, #76]	@ (800293c <TIM4_IRQHandler+0x84>)
 80028f0:	6913      	ldr	r3, [r2, #16]
 80028f2:	f023 0308 	bic.w	r3, r3, #8
 80028f6:	6113      	str	r3, [r2, #16]
 80028f8:	6823      	ldr	r3, [r4, #0]
 80028fa:	f8d3 309c 	ldr.w	r3, [r3, #156]	@ 0x9c
 80028fe:	b12b      	cbz	r3, 800290c <TIM4_IRQHandler+0x54>
 8002900:	4798      	blx	r3
 8002902:	4a0e      	ldr	r2, [pc, #56]	@ (800293c <TIM4_IRQHandler+0x84>)
 8002904:	6913      	ldr	r3, [r2, #16]
 8002906:	f023 0310 	bic.w	r3, r3, #16
 800290a:	6113      	str	r3, [r2, #16]
 800290c:	6823      	ldr	r3, [r4, #0]
 800290e:	f8d3 308c 	ldr.w	r3, [r3, #140]	@ 0x8c
 8002912:	b12b      	cbz	r3, 8002920 <TIM4_IRQHandler+0x68>
 8002914:	4798      	blx	r3
 8002916:	4a09      	ldr	r2, [pc, #36]	@ (800293c <TIM4_IRQHandler+0x84>)
 8002918:	6913      	ldr	r3, [r2, #16]
 800291a:	f023 0301 	bic.w	r3, r3, #1
 800291e:	6113      	str	r3, [r2, #16]
 8002920:	6823      	ldr	r3, [r4, #0]
 8002922:	f8d3 30a4 	ldr.w	r3, [r3, #164]	@ 0xa4
 8002926:	b12b      	cbz	r3, 8002934 <TIM4_IRQHandler+0x7c>
 8002928:	4798      	blx	r3
 800292a:	4a04      	ldr	r2, [pc, #16]	@ (800293c <TIM4_IRQHandler+0x84>)
 800292c:	6913      	ldr	r3, [r2, #16]
 800292e:	f023 0340 	bic.w	r3, r3, #64	@ 0x40
 8002932:	6113      	str	r3, [r2, #16]
 8002934:	bd10      	pop	{r4, pc}
 8002936:	bf00      	nop
 8002938:	200002e4 	.word	0x200002e4
 800293c:	40000800 	.word	0x40000800

08002940 <TIM5_IRQHandler>:
 8002940:	b510      	push	{r4, lr}
 8002942:	4c1f      	ldr	r4, [pc, #124]	@ (80029c0 <TIM5_IRQHandler+0x80>)
 8002944:	6823      	ldr	r3, [r4, #0]
 8002946:	f8d3 3090 	ldr.w	r3, [r3, #144]	@ 0x90
 800294a:	b12b      	cbz	r3, 8002958 <TIM5_IRQHandler+0x18>
 800294c:	4798      	blx	r3
 800294e:	4a1d      	ldr	r2, [pc, #116]	@ (80029c4 <TIM5_IRQHandler+0x84>)
 8002950:	6913      	ldr	r3, [r2, #16]
 8002952:	f023 0302 	bic.w	r3, r3, #2
 8002956:	6113      	str	r3, [r2, #16]
 8002958:	6823      	ldr	r3, [r4, #0]
 800295a:	f8d3 3094 	ldr.w	r3, [r3, #148]	@ 0x94
 800295e:	b12b      	cbz	r3, 800296c <TIM5_IRQHandler+0x2c>
 8002960:	4798      	blx	r3
 8002962:	4a18      	ldr	r2, [pc, #96]	@ (80029c4 <TIM5_IRQHandler+0x84>)
 8002964:	6913      	ldr	r3, [r2, #16]
 8002966:	f023 0304 	bic.w	r3, r3, #4
 800296a:	6113      	str	r3, [r2, #16]
 800296c:	6823      	ldr	r3, [r4, #0]
 800296e:	f8d3 3098 	ldr.w	r3, [r3, #152]	@ 0x98
 8002972:	b12b      	cbz	r3, 8002980 <TIM5_IRQHandler+0x40>
 8002974:	4798      	blx	r3
 8002976:	4a13      	ldr	r2, [pc, #76]	@ (80029c4 <TIM5_IRQHandler+0x84>)
 8002978:	6913      	ldr	r3, [r2, #16]
 800297a:	f023 0308 	bic.w	r3, r3, #8
 800297e:	6113      	str	r3, [r2, #16]
 8002980:	6823      	ldr	r3, [r4, #0]
 8002982:	f8d3 309c 	ldr.w	r3, [r3, #156]	@ 0x9c
 8002986:	b12b      	cbz	r3, 8002994 <TIM5_IRQHandler+0x54>
 8002988:	4798      	blx	r3
 800298a:	4a0e      	ldr	r2, [pc, #56]	@ (80029c4 <TIM5_IRQHandler+0x84>)
 800298c:	6913      	ldr	r3, [r2, #16]
 800298e:	f023 0310 	bic.w	r3, r3, #16
 8002992:	6113      	str	r3, [r2, #16]
 8002994:	6823      	ldr	r3, [r4, #0]
 8002996:	f8d3 308c 	ldr.w	r3, [r3, #140]	@ 0x8c
 800299a:	b12b      	cbz	r3, 80029a8 <TIM5_IRQHandler+0x68>
 800299c:	4798      	blx	r3
 800299e:	4a09      	ldr	r2, [pc, #36]	@ (80029c4 <TIM5_IRQHandler+0x84>)
 80029a0:	6913      	ldr	r3, [r2, #16]
 80029a2:	f023 0301 	bic.w	r3, r3, #1
 80029a6:	6113      	str	r3, [r2, #16]
 80029a8:	6823      	ldr	r3, [r4, #0]
 80029aa:	f8d3 30a4 	ldr.w	r3, [r3, #164]	@ 0xa4
 80029ae:	b12b      	cbz	r3, 80029bc <TIM5_IRQHandler+0x7c>
 80029b0:	4798      	blx	r3
 80029b2:	4a04      	ldr	r2, [pc, #16]	@ (80029c4 <TIM5_IRQHandler+0x84>)
 80029b4:	6913      	ldr	r3, [r2, #16]
 80029b6:	f023 0340 	bic.w	r3, r3, #64	@ 0x40
 80029ba:	6113      	str	r3, [r2, #16]
 80029bc:	bd10      	pop	{r4, pc}
 80029be:	bf00      	nop
 80029c0:	200002e0 	.word	0x200002e0
 80029c4:	40000c00 	.word	0x40000c00

080029c8 <TIM6_DAC_IRQHandler>:
 80029c8:	b508      	push	{r3, lr}
 80029ca:	4b06      	ldr	r3, [pc, #24]	@ (80029e4 <TIM6_DAC_IRQHandler+0x1c>)
 80029cc:	681b      	ldr	r3, [r3, #0]
 80029ce:	f8d3 308c 	ldr.w	r3, [r3, #140]	@ 0x8c
 80029d2:	b12b      	cbz	r3, 80029e0 <TIM6_DAC_IRQHandler+0x18>
 80029d4:	4798      	blx	r3
 80029d6:	4a04      	ldr	r2, [pc, #16]	@ (80029e8 <TIM6_DAC_IRQHandler+0x20>)
 80029d8:	6913      	ldr	r3, [r2, #16]
 80029da:	f023 0301 	bic.w	r3, r3, #1
 80029de:	6113      	str	r3, [r2, #16]
 80029e0:	bd08      	pop	{r3, pc}
 80029e2:	bf00      	nop
 80029e4:	200002dc 	.word	0x200002dc
 80029e8:	40001000 	.word	0x40001000

080029ec <TIM7_IRQHandler>:
 80029ec:	b508      	push	{r3, lr}
 80029ee:	4b06      	ldr	r3, [pc, #24]	@ (8002a08 <TIM7_IRQHandler+0x1c>)
 80029f0:	681b      	ldr	r3, [r3, #0]
 80029f2:	f8d3 308c 	ldr.w	r3, [r3, #140]	@ 0x8c
 80029f6:	b12b      	cbz	r3, 8002a04 <TIM7_IRQHandler+0x18>
 80029f8:	4798      	blx	r3
 80029fa:	4a04      	ldr	r2, [pc, #16]	@ (8002a0c <TIM7_IRQHandler+0x20>)
 80029fc:	6913      	ldr	r3, [r2, #16]
 80029fe:	f023 0301 	bic.w	r3, r3, #1
 8002a02:	6113      	str	r3, [r2, #16]
 8002a04:	bd08      	pop	{r3, pc}
 8002a06:	bf00      	nop
 8002a08:	200002d8 	.word	0x200002d8
 8002a0c:	40001400 	.word	0x40001400

08002a10 <TIM8_BRK_TIM12_IRQHandler>:
 8002a10:	4b1a      	ldr	r3, [pc, #104]	@ (8002a7c <TIM8_BRK_TIM12_IRQHandler+0x6c>)
 8002a12:	681b      	ldr	r3, [r3, #0]
 8002a14:	f8d3 30a8 	ldr.w	r3, [r3, #168]	@ 0xa8
 8002a18:	b510      	push	{r4, lr}
 8002a1a:	b12b      	cbz	r3, 8002a28 <TIM8_BRK_TIM12_IRQHandler+0x18>
 8002a1c:	4798      	blx	r3
 8002a1e:	4a18      	ldr	r2, [pc, #96]	@ (8002a80 <TIM8_BRK_TIM12_IRQHandler+0x70>)
 8002a20:	6913      	ldr	r3, [r2, #16]
 8002a22:	f023 0380 	bic.w	r3, r3, #128	@ 0x80
 8002a26:	6113      	str	r3, [r2, #16]
 8002a28:	4c16      	ldr	r4, [pc, #88]	@ (8002a84 <TIM8_BRK_TIM12_IRQHandler+0x74>)
 8002a2a:	6823      	ldr	r3, [r4, #0]
 8002a2c:	f8d3 3090 	ldr.w	r3, [r3, #144]	@ 0x90
 8002a30:	b12b      	cbz	r3, 8002a3e <TIM8_BRK_TIM12_IRQHandler+0x2e>
 8002a32:	4798      	blx	r3
 8002a34:	4a14      	ldr	r2, [pc, #80]	@ (8002a88 <TIM8_BRK_TIM12_IRQHandler+0x78>)
 8002a36:	6913      	ldr	r3, [r2, #16]
 8002a38:	f023 0302 	bic.w	r3, r3, #2
 8002a3c:	6113      	str	r3, [r2, #16]
 8002a3e:	6823      	ldr	r3, [r4, #0]
 8002a40:	f8d3 3094 	ldr.w	r3, [r3, #148]	@ 0x94
 8002a44:	b12b      	cbz	r3, 8002a52 <TIM8_BRK_TIM12_IRQHandler+0x42>
 8002a46:	4798      	blx	r3
 8002a48:	4a0f      	ldr	r2, [pc, #60]	@ (8002a88 <TIM8_BRK_TIM12_IRQHandler+0x78>)
 8002a4a:	6913      	ldr	r3, [r2, #16]
 8002a4c:	f023 0304 	bic.w	r3, r3, #4
 8002a50:	6113      	str	r3, [r2, #16]
 8002a52:	6823      	ldr	r3, [r4, #0]
 8002a54:	f8d3 308c 	ldr.w	r3, [r3, #140]	@ 0x8c
 8002a58:	b12b      	cbz	r3, 8002a66 <TIM8_BRK_TIM12_IRQHandler+0x56>
 8002a5a:	4798      	blx	r3
 8002a5c:	4a0a      	ldr	r2, [pc, #40]	@ (8002a88 <TIM8_BRK_TIM12_IRQHandler+0x78>)
 8002a5e:	6913      	ldr	r3, [r2, #16]
 8002a60:	f023 0301 	bic.w	r3, r3, #1
 8002a64:	6113      	str	r3, [r2, #16]
 8002a66:	6823      	ldr	r3, [r4, #0]
 8002a68:	f8d3 30a4 	ldr.w	r3, [r3, #164]	@ 0xa4
 8002a6c:	b12b      	cbz	r3, 8002a7a <TIM8_BRK_TIM12_IRQHandler+0x6a>
 8002a6e:	4798      	blx	r3
 8002a70:	4a05      	ldr	r2, [pc, #20]	@ (8002a88 <TIM8_BRK_TIM12_IRQHandler+0x78>)
 8002a72:	6913      	ldr	r3, [r2, #16]
 8002a74:	f023 0340 	bic.w	r3, r3, #64	@ 0x40
 8002a78:	6113      	str	r3, [r2, #16]
 8002a7a:	bd10      	pop	{r4, pc}
 8002a7c:	200002d4 	.word	0x200002d4
 8002a80:	40010000 	.word	0x40010000
 8002a84:	200002c4 	.word	0x200002c4
 8002a88:	40014000 	.word	0x40014000

08002a8c <TIM8_UP_TIM13_IRQHandler>:
 8002a8c:	4b10      	ldr	r3, [pc, #64]	@ (8002ad0 <TIM8_UP_TIM13_IRQHandler+0x44>)
 8002a8e:	681b      	ldr	r3, [r3, #0]
 8002a90:	f8d3 308c 	ldr.w	r3, [r3, #140]	@ 0x8c
 8002a94:	b510      	push	{r4, lr}
 8002a96:	b12b      	cbz	r3, 8002aa4 <TIM8_UP_TIM13_IRQHandler+0x18>
 8002a98:	4798      	blx	r3
 8002a9a:	4a0e      	ldr	r2, [pc, #56]	@ (8002ad4 <TIM8_UP_TIM13_IRQHandler+0x48>)
 8002a9c:	6913      	ldr	r3, [r2, #16]
 8002a9e:	f023 0301 	bic.w	r3, r3, #1
 8002aa2:	6113      	str	r3, [r2, #16]
 8002aa4:	4c0c      	ldr	r4, [pc, #48]	@ (8002ad8 <TIM8_UP_TIM13_IRQHandler+0x4c>)
 8002aa6:	6823      	ldr	r3, [r4, #0]
 8002aa8:	f8d3 308c 	ldr.w	r3, [r3, #140]	@ 0x8c
 8002aac:	b12b      	cbz	r3, 8002aba <TIM8_UP_TIM13_IRQHandler+0x2e>
 8002aae:	4798      	blx	r3
 8002ab0:	4a0a      	ldr	r2, [pc, #40]	@ (8002adc <TIM8_UP_TIM13_IRQHandler+0x50>)
 8002ab2:	6913      	ldr	r3, [r2, #16]
 8002ab4:	f023 0301 	bic.w	r3, r3, #1
 8002ab8:	6113      	str	r3, [r2, #16]
 8002aba:	6823      	ldr	r3, [r4, #0]
 8002abc:	f8d3 3090 	ldr.w	r3, [r3, #144]	@ 0x90
 8002ac0:	b12b      	cbz	r3, 8002ace <TIM8_UP_TIM13_IRQHandler+0x42>
 8002ac2:	4798      	blx	r3
 8002ac4:	4a05      	ldr	r2, [pc, #20]	@ (8002adc <TIM8_UP_TIM13_IRQHandler+0x50>)
 8002ac6:	6913      	ldr	r3, [r2, #16]
 8002ac8:	f023 0302 	bic.w	r3, r3, #2
 8002acc:	6113      	str	r3, [r2, #16]
 8002ace:	bd10      	pop	{r4, pc}
 8002ad0:	200002f0 	.word	0x200002f0
 8002ad4:	40010000 	.word	0x40010000
 8002ad8:	200002c0 	.word	0x200002c0
 8002adc:	40001c00 	.word	0x40001c00

08002ae0 <TIM8_TRG_COM_TIM14_IRQHandler>:
 8002ae0:	b510      	push	{r4, lr}
 8002ae2:	4c15      	ldr	r4, [pc, #84]	@ (8002b38 <TIM8_TRG_COM_TIM14_IRQHandler+0x58>)
 8002ae4:	6823      	ldr	r3, [r4, #0]
 8002ae6:	f8d3 30a4 	ldr.w	r3, [r3, #164]	@ 0xa4
 8002aea:	b12b      	cbz	r3, 8002af8 <TIM8_TRG_COM_TIM14_IRQHandler+0x18>
 8002aec:	4798      	blx	r3
 8002aee:	4a13      	ldr	r2, [pc, #76]	@ (8002b3c <TIM8_TRG_COM_TIM14_IRQHandler+0x5c>)
 8002af0:	6913      	ldr	r3, [r2, #16]
 8002af2:	f023 0340 	bic.w	r3, r3, #64	@ 0x40
 8002af6:	6113      	str	r3, [r2, #16]
 8002af8:	6823      	ldr	r3, [r4, #0]
 8002afa:	f8d3 30a0 	ldr.w	r3, [r3, #160]	@ 0xa0
 8002afe:	b12b      	cbz	r3, 8002b0c <TIM8_TRG_COM_TIM14_IRQHandler+0x2c>
 8002b00:	4798      	blx	r3
 8002b02:	4a0e      	ldr	r2, [pc, #56]	@ (8002b3c <TIM8_TRG_COM_TIM14_IRQHandler+0x5c>)
 8002b04:	6913      	ldr	r3, [r2, #16]
 8002b06:	f023 0320 	bic.w	r3, r3, #32
 8002b0a:	6113      	str	r3, [r2, #16]
 8002b0c:	4c0c      	ldr	r4, [pc, #48]	@ (8002b40 <TIM8_TRG_COM_TIM14_IRQHandler+0x60>)
 8002b0e:	6823      	ldr	r3, [r4, #0]
 8002b10:	f8d3 308c 	ldr.w	r3, [r3, #140]	@ 0x8c
 8002b14:	b12b      	cbz	r3, 8002b22 <TIM8_TRG_COM_TIM14_IRQHandler+0x42>
 8002b16:	4798      	blx	r3
 8002b18:	4a0a      	ldr	r2, [pc, #40]	@ (8002b44 <TIM8_TRG_COM_TIM14_IRQHandler+0x64>)
 8002b1a:	6913      	ldr	r3, [r2, #16]
 8002b1c:	f023 0301 	bic.w	r3, r3, #1
 8002b20:	6113      	str	r3, [r2, #16]
 8002b22:	6823      	ldr	r3, [r4, #0]
 8002b24:	f8d3 3090 	ldr.w	r3, [r3, #144]	@ 0x90
 8002b28:	b12b      	cbz	r3, 8002b36 <TIM8_TRG_COM_TIM14_IRQHandler+0x56>
 8002b2a:	4798      	blx	r3
 8002b2c:	4a05      	ldr	r2, [pc, #20]	@ (8002b44 <TIM8_TRG_COM_TIM14_IRQHandler+0x64>)
 8002b2e:	6913      	ldr	r3, [r2, #16]
 8002b30:	f023 0302 	bic.w	r3, r3, #2
 8002b34:	6113      	str	r3, [r2, #16]
 8002b36:	bd10      	pop	{r4, pc}
 8002b38:	200002d4 	.word	0x200002d4
 8002b3c:	40010400 	.word	0x40010400
 8002b40:	200002bc 	.word	0x200002bc
 8002b44:	40002000 	.word	0x40002000

08002b48 <TIM8_CC_IRQHandler>:
 8002b48:	b510      	push	{r4, lr}
 8002b4a:	4c15      	ldr	r4, [pc, #84]	@ (8002ba0 <TIM8_CC_IRQHandler+0x58>)
 8002b4c:	6823      	ldr	r3, [r4, #0]
 8002b4e:	f8d3 3090 	ldr.w	r3, [r3, #144]	@ 0x90
 8002b52:	b12b      	cbz	r3, 8002b60 <TIM8_CC_IRQHandler+0x18>
 8002b54:	4798      	blx	r3
 8002b56:	4a13      	ldr	r2, [pc, #76]	@ (8002ba4 <TIM8_CC_IRQHandler+0x5c>)
 8002b58:	6913      	ldr	r3, [r2, #16]
 8002b5a:	f023 0302 	bic.w	r3, r3, #2
 8002b5e:	6113      	str	r3, [r2, #16]
 8002b60:	6823      	ldr	r3, [r4, #0]
 8002b62:	f8d3 3094 	ldr.w	r3, [r3, #148]	@ 0x94
 8002b66:	b12b      	cbz	r3, 8002b74 <TIM8_CC_IRQHandler+0x2c>
 8002b68:	4798      	blx	r3
 8002b6a:	4a0e      	ldr	r2, [pc, #56]	@ (8002ba4 <TIM8_CC_IRQHandler+0x5c>)
 8002b6c:	6913      	ldr	r3, [r2, #16]
 8002b6e:	f023 0304 	bic.w	r3, r3, #4
 8002b72:	6113      	str	r3, [r2, #16]
 8002b74:	6823      	ldr	r3, [r4, #0]
 8002b76:	f8d3 3098 	ldr.w	r3, [r3, #152]	@ 0x98
 8002b7a:	b12b      	cbz	r3, 8002b88 <TIM8_CC_IRQHandler+0x40>
 8002b7c:	4798      	blx	r3
 8002b7e:	4a09      	ldr	r2, [pc, #36]	@ (8002ba4 <TIM8_CC_IRQHandler+0x5c>)
 8002b80:	6913      	ldr	r3, [r2, #16]
 8002b82:	f023 0308 	bic.w	r3, r3, #8
 8002b86:	6113      	str	r3, [r2, #16]
 8002b88:	6823      	ldr	r3, [r4, #0]
 8002b8a:	f8d3 309c 	ldr.w	r3, [r3, #156]	@ 0x9c
 8002b8e:	b12b      	cbz	r3, 8002b9c <TIM8_CC_IRQHandler+0x54>
 8002b90:	4798      	blx	r3
 8002b92:	4a04      	ldr	r2, [pc, #16]	@ (8002ba4 <TIM8_CC_IRQHandler+0x5c>)
 8002b94:	6913      	ldr	r3, [r2, #16]
 8002b96:	f023 0310 	bic.w	r3, r3, #16
 8002b9a:	6113      	str	r3, [r2, #16]
 8002b9c:	bd10      	pop	{r4, pc}
 8002b9e:	bf00      	nop
 8002ba0:	200002d4 	.word	0x200002d4
 8002ba4:	40010400 	.word	0x40010400

08002ba8 <UART4_IRQHandler>:
 8002ba8:	b538      	push	{r3, r4, r5, lr}
 8002baa:	4d33      	ldr	r5, [pc, #204]	@ (8002c78 <UART4_IRQHandler+0xd0>)
 8002bac:	4c33      	ldr	r4, [pc, #204]	@ (8002c7c <UART4_IRQHandler+0xd4>)
 8002bae:	682b      	ldr	r3, [r5, #0]
 8002bb0:	b29b      	uxth	r3, r3
 8002bb2:	8023      	strh	r3, [r4, #0]
 8002bb4:	8823      	ldrh	r3, [r4, #0]
 8002bb6:	059a      	lsls	r2, r3, #22
 8002bb8:	d509      	bpl.n	8002bce <UART4_IRQHandler+0x26>
 8002bba:	4b31      	ldr	r3, [pc, #196]	@ (8002c80 <UART4_IRQHandler+0xd8>)
 8002bbc:	681b      	ldr	r3, [r3, #0]
 8002bbe:	f8d3 30d8 	ldr.w	r3, [r3, #216]	@ 0xd8
 8002bc2:	b123      	cbz	r3, 8002bce <UART4_IRQHandler+0x26>
 8002bc4:	4798      	blx	r3
 8002bc6:	682b      	ldr	r3, [r5, #0]
 8002bc8:	f423 7300 	bic.w	r3, r3, #512	@ 0x200
 8002bcc:	602b      	str	r3, [r5, #0]
 8002bce:	8823      	ldrh	r3, [r4, #0]
 8002bd0:	05db      	lsls	r3, r3, #23
 8002bd2:	d50a      	bpl.n	8002bea <UART4_IRQHandler+0x42>
 8002bd4:	4b2a      	ldr	r3, [pc, #168]	@ (8002c80 <UART4_IRQHandler+0xd8>)
 8002bd6:	681b      	ldr	r3, [r3, #0]
 8002bd8:	f8d3 30e0 	ldr.w	r3, [r3, #224]	@ 0xe0
 8002bdc:	b12b      	cbz	r3, 8002bea <UART4_IRQHandler+0x42>
 8002bde:	4798      	blx	r3
 8002be0:	4a25      	ldr	r2, [pc, #148]	@ (8002c78 <UART4_IRQHandler+0xd0>)
 8002be2:	6813      	ldr	r3, [r2, #0]
 8002be4:	f423 7380 	bic.w	r3, r3, #256	@ 0x100
 8002be8:	6013      	str	r3, [r2, #0]
 8002bea:	8823      	ldrh	r3, [r4, #0]
 8002bec:	061d      	lsls	r5, r3, #24
 8002bee:	d50a      	bpl.n	8002c06 <UART4_IRQHandler+0x5e>
 8002bf0:	4b23      	ldr	r3, [pc, #140]	@ (8002c80 <UART4_IRQHandler+0xd8>)
 8002bf2:	681b      	ldr	r3, [r3, #0]
 8002bf4:	f8d3 30c8 	ldr.w	r3, [r3, #200]	@ 0xc8
 8002bf8:	b12b      	cbz	r3, 8002c06 <UART4_IRQHandler+0x5e>
 8002bfa:	4798      	blx	r3
 8002bfc:	4a1e      	ldr	r2, [pc, #120]	@ (8002c78 <UART4_IRQHandler+0xd0>)
 8002bfe:	6813      	ldr	r3, [r2, #0]
 8002c00:	f023 0380 	bic.w	r3, r3, #128	@ 0x80
 8002c04:	6013      	str	r3, [r2, #0]
 8002c06:	8823      	ldrh	r3, [r4, #0]
 8002c08:	0658      	lsls	r0, r3, #25
 8002c0a:	d50a      	bpl.n	8002c22 <UART4_IRQHandler+0x7a>
 8002c0c:	4b1c      	ldr	r3, [pc, #112]	@ (8002c80 <UART4_IRQHandler+0xd8>)
 8002c0e:	681b      	ldr	r3, [r3, #0]
 8002c10:	f8d3 30cc 	ldr.w	r3, [r3, #204]	@ 0xcc
 8002c14:	b12b      	cbz	r3, 8002c22 <UART4_IRQHandler+0x7a>
 8002c16:	4798      	blx	r3
 8002c18:	4a17      	ldr	r2, [pc, #92]	@ (8002c78 <UART4_IRQHandler+0xd0>)
 8002c1a:	6813      	ldr	r3, [r2, #0]
 8002c1c:	f023 0340 	bic.w	r3, r3, #64	@ 0x40
 8002c20:	6013      	str	r3, [r2, #0]
 8002c22:	8823      	ldrh	r3, [r4, #0]
 8002c24:	0699      	lsls	r1, r3, #26
 8002c26:	d50a      	bpl.n	8002c3e <UART4_IRQHandler+0x96>
 8002c28:	4b15      	ldr	r3, [pc, #84]	@ (8002c80 <UART4_IRQHandler+0xd8>)
 8002c2a:	681b      	ldr	r3, [r3, #0]
 8002c2c:	f8d3 30d0 	ldr.w	r3, [r3, #208]	@ 0xd0
 8002c30:	b12b      	cbz	r3, 8002c3e <UART4_IRQHandler+0x96>
 8002c32:	4798      	blx	r3
 8002c34:	4a10      	ldr	r2, [pc, #64]	@ (8002c78 <UART4_IRQHandler+0xd0>)
 8002c36:	6813      	ldr	r3, [r2, #0]
 8002c38:	f023 0320 	bic.w	r3, r3, #32
 8002c3c:	6013      	str	r3, [r2, #0]
 8002c3e:	8823      	ldrh	r3, [r4, #0]
 8002c40:	06da      	lsls	r2, r3, #27
 8002c42:	d50a      	bpl.n	8002c5a <UART4_IRQHandler+0xb2>
 8002c44:	4b0e      	ldr	r3, [pc, #56]	@ (8002c80 <UART4_IRQHandler+0xd8>)
 8002c46:	681b      	ldr	r3, [r3, #0]
 8002c48:	f8d3 30d4 	ldr.w	r3, [r3, #212]	@ 0xd4
 8002c4c:	b12b      	cbz	r3, 8002c5a <UART4_IRQHandler+0xb2>
 8002c4e:	4798      	blx	r3
 8002c50:	4a09      	ldr	r2, [pc, #36]	@ (8002c78 <UART4_IRQHandler+0xd0>)
 8002c52:	6813      	ldr	r3, [r2, #0]
 8002c54:	f023 0310 	bic.w	r3, r3, #16
 8002c58:	6013      	str	r3, [r2, #0]
 8002c5a:	8823      	ldrh	r3, [r4, #0]
 8002c5c:	07db      	lsls	r3, r3, #31
 8002c5e:	d50a      	bpl.n	8002c76 <UART4_IRQHandler+0xce>
 8002c60:	4b07      	ldr	r3, [pc, #28]	@ (8002c80 <UART4_IRQHandler+0xd8>)
 8002c62:	681b      	ldr	r3, [r3, #0]
 8002c64:	f8d3 30c4 	ldr.w	r3, [r3, #196]	@ 0xc4
 8002c68:	b12b      	cbz	r3, 8002c76 <UART4_IRQHandler+0xce>
 8002c6a:	4798      	blx	r3
 8002c6c:	4a02      	ldr	r2, [pc, #8]	@ (8002c78 <UART4_IRQHandler+0xd0>)
 8002c6e:	6813      	ldr	r3, [r2, #0]
 8002c70:	f023 0301 	bic.w	r3, r3, #1
 8002c74:	6013      	str	r3, [r2, #0]
 8002c76:	bd38      	pop	{r3, r4, r5, pc}
 8002c78:	40004c00 	.word	0x40004c00
 8002c7c:	200002f4 	.word	0x200002f4
 8002c80:	200002f8 	.word	0x200002f8

08002c84 <USART1_IRQHandler>:
 8002c84:	b538      	push	{r3, r4, r5, lr}
 8002c86:	4c30      	ldr	r4, [pc, #192]	@ (8002d48 <USART1_IRQHandler+0xc4>)
 8002c88:	4d30      	ldr	r5, [pc, #192]	@ (8002d4c <USART1_IRQHandler+0xc8>)
 8002c8a:	6823      	ldr	r3, [r4, #0]
 8002c8c:	b29b      	uxth	r3, r3
 8002c8e:	802b      	strh	r3, [r5, #0]
 8002c90:	882b      	ldrh	r3, [r5, #0]
 8002c92:	0599      	lsls	r1, r3, #22
 8002c94:	d509      	bpl.n	8002caa <USART1_IRQHandler+0x26>
 8002c96:	4b2e      	ldr	r3, [pc, #184]	@ (8002d50 <USART1_IRQHandler+0xcc>)
 8002c98:	681b      	ldr	r3, [r3, #0]
 8002c9a:	f8d3 30d8 	ldr.w	r3, [r3, #216]	@ 0xd8
 8002c9e:	b123      	cbz	r3, 8002caa <USART1_IRQHandler+0x26>
 8002ca0:	4798      	blx	r3
 8002ca2:	6823      	ldr	r3, [r4, #0]
 8002ca4:	f423 7300 	bic.w	r3, r3, #512	@ 0x200
 8002ca8:	6023      	str	r3, [r4, #0]
 8002caa:	882b      	ldrh	r3, [r5, #0]
 8002cac:	05da      	lsls	r2, r3, #23
 8002cae:	d509      	bpl.n	8002cc4 <USART1_IRQHandler+0x40>
 8002cb0:	4b27      	ldr	r3, [pc, #156]	@ (8002d50 <USART1_IRQHandler+0xcc>)
 8002cb2:	681b      	ldr	r3, [r3, #0]
 8002cb4:	f8d3 30e0 	ldr.w	r3, [r3, #224]	@ 0xe0
 8002cb8:	b123      	cbz	r3, 8002cc4 <USART1_IRQHandler+0x40>
 8002cba:	4798      	blx	r3
 8002cbc:	6823      	ldr	r3, [r4, #0]
 8002cbe:	f423 7380 	bic.w	r3, r3, #256	@ 0x100
 8002cc2:	6023      	str	r3, [r4, #0]
 8002cc4:	882b      	ldrh	r3, [r5, #0]
 8002cc6:	061b      	lsls	r3, r3, #24
 8002cc8:	d509      	bpl.n	8002cde <USART1_IRQHandler+0x5a>
 8002cca:	4b21      	ldr	r3, [pc, #132]	@ (8002d50 <USART1_IRQHandler+0xcc>)
 8002ccc:	681b      	ldr	r3, [r3, #0]
 8002cce:	f8d3 30c8 	ldr.w	r3, [r3, #200]	@ 0xc8
 8002cd2:	b123      	cbz	r3, 8002cde <USART1_IRQHandler+0x5a>
 8002cd4:	4798      	blx	r3
 8002cd6:	6823      	ldr	r3, [r4, #0]
 8002cd8:	f023 0380 	bic.w	r3, r3, #128	@ 0x80
 8002cdc:	6023      	str	r3, [r4, #0]
 8002cde:	882b      	ldrh	r3, [r5, #0]
 8002ce0:	0658      	lsls	r0, r3, #25
 8002ce2:	d509      	bpl.n	8002cf8 <USART1_IRQHandler+0x74>
 8002ce4:	4b1a      	ldr	r3, [pc, #104]	@ (8002d50 <USART1_IRQHandler+0xcc>)
 8002ce6:	681b      	ldr	r3, [r3, #0]
 8002ce8:	f8d3 30cc 	ldr.w	r3, [r3, #204]	@ 0xcc
 8002cec:	b123      	cbz	r3, 8002cf8 <USART1_IRQHandler+0x74>
 8002cee:	4798      	blx	r3
 8002cf0:	6823      	ldr	r3, [r4, #0]
 8002cf2:	f023 0340 	bic.w	r3, r3, #64	@ 0x40
 8002cf6:	6023      	str	r3, [r4, #0]
 8002cf8:	882b      	ldrh	r3, [r5, #0]
 8002cfa:	0699      	lsls	r1, r3, #26
 8002cfc:	d509      	bpl.n	8002d12 <USART1_IRQHandler+0x8e>
 8002cfe:	4b14      	ldr	r3, [pc, #80]	@ (8002d50 <USART1_IRQHandler+0xcc>)
 8002d00:	681b      	ldr	r3, [r3, #0]
 8002d02:	f8d3 30d0 	ldr.w	r3, [r3, #208]	@ 0xd0
 8002d06:	b123      	cbz	r3, 8002d12 <USART1_IRQHandler+0x8e>
 8002d08:	4798      	blx	r3
 8002d0a:	6823      	ldr	r3, [r4, #0]
 8002d0c:	f023 0320 	bic.w	r3, r3, #32
 8002d10:	6023      	str	r3, [r4, #0]
 8002d12:	882b      	ldrh	r3, [r5, #0]
 8002d14:	06da      	lsls	r2, r3, #27
 8002d16:	d509      	bpl.n	8002d2c <USART1_IRQHandler+0xa8>
 8002d18:	4b0d      	ldr	r3, [pc, #52]	@ (8002d50 <USART1_IRQHandler+0xcc>)
 8002d1a:	681b      	ldr	r3, [r3, #0]
 8002d1c:	f8d3 30d4 	ldr.w	r3, [r3, #212]	@ 0xd4
 8002d20:	b123      	cbz	r3, 8002d2c <USART1_IRQHandler+0xa8>
 8002d22:	4798      	blx	r3
 8002d24:	6823      	ldr	r3, [r4, #0]
 8002d26:	f023 0310 	bic.w	r3, r3, #16
 8002d2a:	6023      	str	r3, [r4, #0]
 8002d2c:	882b      	ldrh	r3, [r5, #0]
 8002d2e:	07db      	lsls	r3, r3, #31
 8002d30:	d509      	bpl.n	8002d46 <USART1_IRQHandler+0xc2>
 8002d32:	4b07      	ldr	r3, [pc, #28]	@ (8002d50 <USART1_IRQHandler+0xcc>)
 8002d34:	681b      	ldr	r3, [r3, #0]
 8002d36:	f8d3 30c4 	ldr.w	r3, [r3, #196]	@ 0xc4
 8002d3a:	b123      	cbz	r3, 8002d46 <USART1_IRQHandler+0xc2>
 8002d3c:	4798      	blx	r3
 8002d3e:	6823      	ldr	r3, [r4, #0]
 8002d40:	f023 0301 	bic.w	r3, r3, #1
 8002d44:	6023      	str	r3, [r4, #0]
 8002d46:	bd38      	pop	{r3, r4, r5, pc}
 8002d48:	40011000 	.word	0x40011000
 8002d4c:	200002f4 	.word	0x200002f4
 8002d50:	200002fc 	.word	0x200002fc

08002d54 <CountDemo>:
 8002d54:	b5f7      	push	{r0, r1, r2, r4, r5, r6, r7, lr}
 8002d56:	2100      	movs	r1, #0
 8002d58:	4606      	mov	r6, r0
 8002d5a:	f7fd fe33 	bl	80009c4 <GC9A01_Fill>
 8002d5e:	2500      	movs	r5, #0
 8002d60:	f04f 24e0 	mov.w	r4, #3758153728	@ 0xe000e000
 8002d64:	f64f 73ff 	movw	r3, #65535	@ 0xffff
 8002d68:	2700      	movs	r7, #0
 8002d6a:	e9cd 3700 	strd	r3, r7, [sp]
 8002d6e:	2274      	movs	r2, #116	@ 0x74
 8002d70:	462b      	mov	r3, r5
 8002d72:	2164      	movs	r1, #100	@ 0x64
 8002d74:	4630      	mov	r0, r6
 8002d76:	f7fd fe8f 	bl	8000a98 <GC9A01_PrintNumber>
 8002d7a:	4b07      	ldr	r3, [pc, #28]	@ (8002d98 <CountDemo+0x44>)
 8002d7c:	6163      	str	r3, [r4, #20]
 8002d7e:	61a7      	str	r7, [r4, #24]
 8002d80:	6923      	ldr	r3, [r4, #16]
 8002d82:	f043 0301 	orr.w	r3, r3, #1
 8002d86:	6123      	str	r3, [r4, #16]
 8002d88:	6923      	ldr	r3, [r4, #16]
 8002d8a:	03db      	lsls	r3, r3, #15
 8002d8c:	d5fc      	bpl.n	8002d88 <CountDemo+0x34>
 8002d8e:	3501      	adds	r5, #1
 8002d90:	2d65      	cmp	r5, #101	@ 0x65
 8002d92:	d1e7      	bne.n	8002d64 <CountDemo+0x10>
 8002d94:	b003      	add	sp, #12
 8002d96:	bdf0      	pop	{r4, r5, r6, r7, pc}
 8002d98:	0200b200 	.word	0x0200b200

08002d9c <main>:
 8002d9c:	b510      	push	{r4, lr}
 8002d9e:	f000 f8b5 	bl	8002f0c <SystemInit>
 8002da2:	4b4d      	ldr	r3, [pc, #308]	@ (8002ed8 <main+0x13c>)
 8002da4:	2200      	movs	r2, #0
 8002da6:	605a      	str	r2, [r3, #4]
 8002da8:	681a      	ldr	r2, [r3, #0]
 8002daa:	f442 3280 	orr.w	r2, r2, #65536	@ 0x10000
 8002dae:	601a      	str	r2, [r3, #0]
 8002db0:	681a      	ldr	r2, [r3, #0]
 8002db2:	0391      	lsls	r1, r2, #14
 8002db4:	d5fc      	bpl.n	8002db0 <main+0x14>
 8002db6:	6c1a      	ldr	r2, [r3, #64]	@ 0x40
 8002db8:	4948      	ldr	r1, [pc, #288]	@ (8002edc <main+0x140>)
 8002dba:	f042 5280 	orr.w	r2, r2, #268435456	@ 0x10000000
 8002dbe:	641a      	str	r2, [r3, #64]	@ 0x40
 8002dc0:	680a      	ldr	r2, [r1, #0]
 8002dc2:	f442 4280 	orr.w	r2, r2, #16384	@ 0x4000
 8002dc6:	600a      	str	r2, [r1, #0]
 8002dc8:	f501 31e6 	add.w	r1, r1, #117760	@ 0x1cc00
 8002dcc:	680a      	ldr	r2, [r1, #0]
 8002dce:	f442 62e0 	orr.w	r2, r2, #1792	@ 0x700
 8002dd2:	f042 0205 	orr.w	r2, r2, #5
 8002dd6:	600a      	str	r2, [r1, #0]
 8002dd8:	6859      	ldr	r1, [r3, #4]
 8002dda:	4a41      	ldr	r2, [pc, #260]	@ (8002ee0 <main+0x144>)
 8002ddc:	430a      	orrs	r2, r1
 8002dde:	605a      	str	r2, [r3, #4]
 8002de0:	685a      	ldr	r2, [r3, #4]
 8002de2:	f442 0280 	orr.w	r2, r2, #4194304	@ 0x400000
 8002de6:	605a      	str	r2, [r3, #4]
 8002de8:	689a      	ldr	r2, [r3, #8]
 8002dea:	609a      	str	r2, [r3, #8]
 8002dec:	689a      	ldr	r2, [r3, #8]
 8002dee:	f442 52a0 	orr.w	r2, r2, #5120	@ 0x1400
 8002df2:	609a      	str	r2, [r3, #8]
 8002df4:	689a      	ldr	r2, [r3, #8]
 8002df6:	f442 4200 	orr.w	r2, r2, #32768	@ 0x8000
 8002dfa:	609a      	str	r2, [r3, #8]
 8002dfc:	681a      	ldr	r2, [r3, #0]
 8002dfe:	f042 7280 	orr.w	r2, r2, #16777216	@ 0x1000000
 8002e02:	601a      	str	r2, [r3, #0]
 8002e04:	4b34      	ldr	r3, [pc, #208]	@ (8002ed8 <main+0x13c>)
 8002e06:	681a      	ldr	r2, [r3, #0]
 8002e08:	0192      	lsls	r2, r2, #6
 8002e0a:	d5fc      	bpl.n	8002e06 <main+0x6a>
 8002e0c:	689a      	ldr	r2, [r3, #8]
 8002e0e:	f042 0202 	orr.w	r2, r2, #2
 8002e12:	609a      	str	r2, [r3, #8]
 8002e14:	689a      	ldr	r2, [r3, #8]
 8002e16:	0714      	lsls	r4, r2, #28
 8002e18:	d5fc      	bpl.n	8002e14 <main+0x78>
 8002e1a:	f000 f881 	bl	8002f20 <SystemCoreClockUpdate>
 8002e1e:	4b31      	ldr	r3, [pc, #196]	@ (8002ee4 <main+0x148>)
 8002e20:	22a8      	movs	r2, #168	@ 0xa8
 8002e22:	681b      	ldr	r3, [r3, #0]
 8002e24:	fbb3 f3f2 	udiv	r3, r3, r2
 8002e28:	3b01      	subs	r3, #1
 8002e2a:	f1b3 7f80 	cmp.w	r3, #16777216	@ 0x1000000
 8002e2e:	d20a      	bcs.n	8002e46 <main+0xaa>
 8002e30:	f04f 22e0 	mov.w	r2, #3758153728	@ 0xe000e000
 8002e34:	21f0      	movs	r1, #240	@ 0xf0
 8002e36:	6153      	str	r3, [r2, #20]
 8002e38:	4b2b      	ldr	r3, [pc, #172]	@ (8002ee8 <main+0x14c>)
 8002e3a:	f883 1023 	strb.w	r1, [r3, #35]	@ 0x23
 8002e3e:	2300      	movs	r3, #0
 8002e40:	6193      	str	r3, [r2, #24]
 8002e42:	2307      	movs	r3, #7
 8002e44:	6113      	str	r3, [r2, #16]
 8002e46:	4a24      	ldr	r2, [pc, #144]	@ (8002ed8 <main+0x13c>)
 8002e48:	4c28      	ldr	r4, [pc, #160]	@ (8002eec <main+0x150>)
 8002e4a:	6c53      	ldr	r3, [r2, #68]	@ 0x44
 8002e4c:	f443 4380 	orr.w	r3, r3, #16384	@ 0x4000
 8002e50:	6453      	str	r3, [r2, #68]	@ 0x44
 8002e52:	f04f 23e0 	mov.w	r3, #3758153728	@ 0xe000e000
 8002e56:	2100      	movs	r1, #0
 8002e58:	f06f 427f 	mvn.w	r2, #4278190080	@ 0xff000000
 8002e5c:	6119      	str	r1, [r3, #16]
 8002e5e:	615a      	str	r2, [r3, #20]
 8002e60:	2205      	movs	r2, #5
 8002e62:	6199      	str	r1, [r3, #24]
 8002e64:	611a      	str	r2, [r3, #16]
 8002e66:	f44f 727a 	mov.w	r2, #1000	@ 0x3e8
 8002e6a:	615c      	str	r4, [r3, #20]
 8002e6c:	6199      	str	r1, [r3, #24]
 8002e6e:	6918      	ldr	r0, [r3, #16]
 8002e70:	f040 0001 	orr.w	r0, r0, #1
 8002e74:	6118      	str	r0, [r3, #16]
 8002e76:	6918      	ldr	r0, [r3, #16]
 8002e78:	03c0      	lsls	r0, r0, #15
 8002e7a:	d5fc      	bpl.n	8002e76 <main+0xda>
 8002e7c:	3a01      	subs	r2, #1
 8002e7e:	d1f4      	bne.n	8002e6a <main+0xce>
 8002e80:	4b1b      	ldr	r3, [pc, #108]	@ (8002ef0 <main+0x154>)
 8002e82:	491c      	ldr	r1, [pc, #112]	@ (8002ef4 <main+0x158>)
 8002e84:	6019      	str	r1, [r3, #0]
 8002e86:	f241 110f 	movw	r1, #4367	@ 0x110f
 8002e8a:	8099      	strh	r1, [r3, #4]
 8002e8c:	2110      	movs	r1, #16
 8002e8e:	7199      	strb	r1, [r3, #6]
 8002e90:	210b      	movs	r1, #11
 8002e92:	81d9      	strh	r1, [r3, #14]
 8002e94:	4918      	ldr	r1, [pc, #96]	@ (8002ef8 <main+0x15c>)
 8002e96:	4c19      	ldr	r4, [pc, #100]	@ (8002efc <main+0x160>)
 8002e98:	f44f 2030 	mov.w	r0, #720896	@ 0xb0000
 8002e9c:	e9c3 0104 	strd	r0, r1, [r3, #16]
 8002ea0:	4917      	ldr	r1, [pc, #92]	@ (8002f00 <main+0x164>)
 8002ea2:	e9c3 4106 	strd	r4, r1, [r3, #24]
 8002ea6:	4c17      	ldr	r4, [pc, #92]	@ (8002f04 <main+0x168>)
 8002ea8:	210a      	movs	r1, #10
 8002eaa:	8419      	strh	r1, [r3, #32]
 8002eac:	2102      	movs	r1, #2
 8002eae:	8221      	strh	r1, [r4, #16]
 8002eb0:	8322      	strh	r2, [r4, #24]
 8002eb2:	4915      	ldr	r1, [pc, #84]	@ (8002f08 <main+0x16c>)
 8002eb4:	60e1      	str	r1, [r4, #12]
 8002eb6:	2201      	movs	r2, #1
 8002eb8:	4620      	mov	r0, r4
 8002eba:	6161      	str	r1, [r4, #20]
 8002ebc:	6099      	str	r1, [r3, #8]
 8002ebe:	6023      	str	r3, [r4, #0]
 8002ec0:	731a      	strb	r2, [r3, #12]
 8002ec2:	f7fd f9fd 	bl	80002c0 <GC9A01_Init>
 8002ec6:	f64f 71ff 	movw	r1, #65535	@ 0xffff
 8002eca:	4620      	mov	r0, r4
 8002ecc:	f7fd fd7a 	bl	80009c4 <GC9A01_Fill>
 8002ed0:	4620      	mov	r0, r4
 8002ed2:	f7ff ff3f 	bl	8002d54 <CountDemo>
 8002ed6:	e7fb      	b.n	8002ed0 <main+0x134>
 8002ed8:	40023800 	.word	0x40023800
 8002edc:	40007000 	.word	0x40007000
 8002ee0:	07005408 	.word	0x07005408
 8002ee4:	20000000 	.word	0x20000000
 8002ee8:	e000ed00 	.word	0xe000ed00
 8002eec:	00029040 	.word	0x00029040
 8002ef0:	20000320 	.word	0x20000320
 8002ef4:	40013000 	.word	0x40013000
 8002ef8:	00280017 	.word	0x00280017
 8002efc:	00200032 	.word	0x00200032
 8002f00:	00460016 	.word	0x00460016
 8002f04:	20000300 	.word	0x20000300
 8002f08:	40020000 	.word	0x40020000

08002f0c <SystemInit>:
 8002f0c:	4a03      	ldr	r2, [pc, #12]	@ (8002f1c <SystemInit+0x10>)
 8002f0e:	f8d2 3088 	ldr.w	r3, [r2, #136]	@ 0x88
 8002f12:	f443 0370 	orr.w	r3, r3, #15728640	@ 0xf00000
 8002f16:	f8c2 3088 	str.w	r3, [r2, #136]	@ 0x88
 8002f1a:	4770      	bx	lr
 8002f1c:	e000ed00 	.word	0xe000ed00

08002f20 <SystemCoreClockUpdate>:
 8002f20:	4b15      	ldr	r3, [pc, #84]	@ (8002f78 <SystemCoreClockUpdate+0x58>)
 8002f22:	689a      	ldr	r2, [r3, #8]
 8002f24:	f002 020c 	and.w	r2, r2, #12
 8002f28:	2a04      	cmp	r2, #4
 8002f2a:	d021      	beq.n	8002f70 <SystemCoreClockUpdate+0x50>
 8002f2c:	2a08      	cmp	r2, #8
 8002f2e:	d121      	bne.n	8002f74 <SystemCoreClockUpdate+0x54>
 8002f30:	6859      	ldr	r1, [r3, #4]
 8002f32:	685a      	ldr	r2, [r3, #4]
 8002f34:	685b      	ldr	r3, [r3, #4]
 8002f36:	0249      	lsls	r1, r1, #9
 8002f38:	f3c3 1388 	ubfx	r3, r3, #6, #9
 8002f3c:	bf4c      	ite	mi
 8002f3e:	490f      	ldrmi	r1, [pc, #60]	@ (8002f7c <SystemCoreClockUpdate+0x5c>)
 8002f40:	490f      	ldrpl	r1, [pc, #60]	@ (8002f80 <SystemCoreClockUpdate+0x60>)
 8002f42:	f002 023f 	and.w	r2, r2, #63	@ 0x3f
 8002f46:	fbb1 f2f2 	udiv	r2, r1, r2
 8002f4a:	4353      	muls	r3, r2
 8002f4c:	4a0a      	ldr	r2, [pc, #40]	@ (8002f78 <SystemCoreClockUpdate+0x58>)
 8002f4e:	6852      	ldr	r2, [r2, #4]
 8002f50:	f3c2 4201 	ubfx	r2, r2, #16, #2
 8002f54:	3201      	adds	r2, #1
 8002f56:	0052      	lsls	r2, r2, #1
 8002f58:	fbb3 f3f2 	udiv	r3, r3, r2
 8002f5c:	4a06      	ldr	r2, [pc, #24]	@ (8002f78 <SystemCoreClockUpdate+0x58>)
 8002f5e:	4909      	ldr	r1, [pc, #36]	@ (8002f84 <SystemCoreClockUpdate+0x64>)
 8002f60:	6892      	ldr	r2, [r2, #8]
 8002f62:	f3c2 1203 	ubfx	r2, r2, #4, #4
 8002f66:	5c8a      	ldrb	r2, [r1, r2]
 8002f68:	40d3      	lsrs	r3, r2
 8002f6a:	4a07      	ldr	r2, [pc, #28]	@ (8002f88 <SystemCoreClockUpdate+0x68>)
 8002f6c:	6013      	str	r3, [r2, #0]
 8002f6e:	4770      	bx	lr
 8002f70:	4b02      	ldr	r3, [pc, #8]	@ (8002f7c <SystemCoreClockUpdate+0x5c>)
 8002f72:	e7f3      	b.n	8002f5c <SystemCoreClockUpdate+0x3c>
 8002f74:	4b02      	ldr	r3, [pc, #8]	@ (8002f80 <SystemCoreClockUpdate+0x60>)
 8002f76:	e7f1      	b.n	8002f5c <SystemCoreClockUpdate+0x3c>
 8002f78:	40023800 	.word	0x40023800
 8002f7c:	017d7840 	.word	0x017d7840
 8002f80:	00f42400 	.word	0x00f42400
 8002f84:	08003620 	.word	0x08003620
 8002f88:	20000000 	.word	0x20000000

08002f8c <Reset_Handler>:
 8002f8c:	480d      	ldr	r0, [pc, #52]	@ (8002fc4 <LoopForever+0x2>)
 8002f8e:	4685      	mov	sp, r0
 8002f90:	f7ff ffbc 	bl	8002f0c <SystemInit>
 8002f94:	480c      	ldr	r0, [pc, #48]	@ (8002fc8 <LoopForever+0x6>)
 8002f96:	490d      	ldr	r1, [pc, #52]	@ (8002fcc <LoopForever+0xa>)
 8002f98:	4a0d      	ldr	r2, [pc, #52]	@ (8002fd0 <LoopForever+0xe>)
 8002f9a:	2300      	movs	r3, #0
 8002f9c:	e002      	b.n	8002fa4 <LoopCopyDataInit>

08002f9e <CopyDataInit>:
 8002f9e:	58d4      	ldr	r4, [r2, r3]
 8002fa0:	50c4      	str	r4, [r0, r3]
 8002fa2:	3304      	adds	r3, #4

08002fa4 <LoopCopyDataInit>:
 8002fa4:	18c4      	adds	r4, r0, r3
 8002fa6:	428c      	cmp	r4, r1
 8002fa8:	d3f9      	bcc.n	8002f9e <CopyDataInit>
 8002faa:	4a0a      	ldr	r2, [pc, #40]	@ (8002fd4 <LoopForever+0x12>)
 8002fac:	4c0a      	ldr	r4, [pc, #40]	@ (8002fd8 <LoopForever+0x16>)
 8002fae:	2300      	movs	r3, #0
 8002fb0:	e001      	b.n	8002fb6 <LoopFillZerobss>

08002fb2 <FillZerobss>:
 8002fb2:	6013      	str	r3, [r2, #0]
 8002fb4:	3204      	adds	r2, #4

08002fb6 <LoopFillZerobss>:
 8002fb6:	42a2      	cmp	r2, r4
 8002fb8:	d3fb      	bcc.n	8002fb2 <FillZerobss>
 8002fba:	f000 f811 	bl	8002fe0 <__libc_init_array>
 8002fbe:	f7ff feed 	bl	8002d9c <main>

08002fc2 <LoopForever>:
 8002fc2:	e7fe      	b.n	8002fc2 <LoopForever>
 8002fc4:	20020000 	.word	0x20020000
 8002fc8:	20000000 	.word	0x20000000
 8002fcc:	20000004 	.word	0x20000004
 8002fd0:	08003638 	.word	0x08003638
 8002fd4:	20000004 	.word	0x20000004
 8002fd8:	20000344 	.word	0x20000344

08002fdc <ADC_IRQHandler>:
 8002fdc:	e7fe      	b.n	8002fdc <ADC_IRQHandler>
	...

08002fe0 <__libc_init_array>:
 8002fe0:	b570      	push	{r4, r5, r6, lr}
 8002fe2:	4d0d      	ldr	r5, [pc, #52]	@ (8003018 <__libc_init_array+0x38>)
 8002fe4:	4c0d      	ldr	r4, [pc, #52]	@ (800301c <__libc_init_array+0x3c>)
 8002fe6:	1b64      	subs	r4, r4, r5
 8002fe8:	10a4      	asrs	r4, r4, #2
 8002fea:	2600      	movs	r6, #0
 8002fec:	42a6      	cmp	r6, r4
 8002fee:	d109      	bne.n	8003004 <__libc_init_array+0x24>
 8002ff0:	4d0b      	ldr	r5, [pc, #44]	@ (8003020 <__libc_init_array+0x40>)
 8002ff2:	4c0c      	ldr	r4, [pc, #48]	@ (8003024 <__libc_init_array+0x44>)
 8002ff4:	f000 f818 	bl	8003028 <_init>
 8002ff8:	1b64      	subs	r4, r4, r5
 8002ffa:	10a4      	asrs	r4, r4, #2
 8002ffc:	2600      	movs	r6, #0
 8002ffe:	42a6      	cmp	r6, r4
 8003000:	d105      	bne.n	800300e <__libc_init_array+0x2e>
 8003002:	bd70      	pop	{r4, r5, r6, pc}
 8003004:	f855 3b04 	ldr.w	r3, [r5], #4
 8003008:	4798      	blx	r3
 800300a:	3601      	adds	r6, #1
 800300c:	e7ee      	b.n	8002fec <__libc_init_array+0xc>
 800300e:	f855 3b04 	ldr.w	r3, [r5], #4
 8003012:	4798      	blx	r3
 8003014:	3601      	adds	r6, #1
 8003016:	e7f2      	b.n	8002ffe <__libc_init_array+0x1e>
 8003018:	08003630 	.word	0x08003630
 800301c:	08003630 	.word	0x08003630
 8003020:	08003630 	.word	0x08003630
 8003024:	08003634 	.word	0x08003634

08003028 <_init>:
 8003028:	b5f8      	push	{r3, r4, r5, r6, r7, lr}
 800302a:	bf00      	nop
 800302c:	bcf8      	pop	{r3, r4, r5, r6, r7}
 800302e:	bc08      	pop	{r3}
 8003030:	469e      	mov	lr, r3
 8003032:	4770      	bx	lr

08003034 <_fini>:
 8003034:	b5f8      	push	{r3, r4, r5, r6, r7, lr}
 8003036:	bf00      	nop
 8003038:	bcf8      	pop	{r3, r4, r5, r6, r7}
 800303a:	bc08      	pop	{r3}
 800303c:	469e      	mov	lr, r3
 800303e:	4770      	bx	lr
