
Digital-Humidity-Gauge.elf:     file format elf32-littlearm

Sections:
Idx Name          Size      VMA       LMA       File off  Algn
  0 .isr_vector   00000188  08000000  08000000  00001000  2**0
                  CONTENTS, ALLOC, LOAD, READONLY, DATA
  1 .text         00003aa8  08000188  08000188  00001188  2**2
                  CONTENTS, ALLOC, LOAD, READONLY, CODE
  2 .rodata       000007e4  08003c30  08003c30  00004c30  2**2
                  CONTENTS, ALLOC, LOAD, READONLY, DATA
  3 .ARM.extab    00000000  08004414  08004414  00006004  2**0
                  CONTENTS, READONLY
  4 .ARM          00000000  08004414  08004414  00006004  2**0
                  CONTENTS, READONLY
  5 .preinit_array 00000000  08004414  08004414  00006004  2**0
                  CONTENTS, ALLOC, LOAD, DATA
  6 .init_array   00000004  08004414  08004414  00005414  2**2
                  CONTENTS, ALLOC, LOAD, READONLY, DATA
  7 .fini_array   00000004  08004418  08004418  00005418  2**2
                  CONTENTS, ALLOC, LOAD, READONLY, DATA
  8 .data         00000004  20000000  0800441c  00006000  2**2
                  CONTENTS, ALLOC, LOAD, DATA
  9 .ccmram       00000000  10000000  10000000  00006004  2**0
                  CONTENTS
 10 .bss          00000340  20000004  20000004  00006004  2**2
                  ALLOC
 11 ._user_heap_stack 00000604  20000344  20000344  00006004  2**0
                  ALLOC
 12 .ARM.attributes 00000030  00000000  00000000  00006004  2**0
                  CONTENTS, READONLY
 13 .comment      00000043  00000000  00000000  00006034  2**0
                  CONTENTS, READONLY
 14 .debug_frame  000001d0  00000000  00000000  00006078  2**2
                  CONTENTS, READONLY, DEBUGGING, OCTETS

Disassembly of section .text:

08000188 <__do_global_dtors_aux>:
 8000188:	b510      	push	{r4, lr}
 800018a:	4c05      	ldr	r4, [pc, #20]	@ (80001a0 <__do_global_dtors_aux+0x18>)
 800018c:	7823      	ldrb	r3, [r4, #0]
 800018e:	b933      	cbnz	r3, 800019e <__do_global_dtors_aux+0x16>
 8000190:	4b04      	ldr	r3, [pc, #16]	@ (80001a4 <__do_global_dtors_aux+0x1c>)
 8000192:	b113      	cbz	r3, 800019a <__do_global_dtors_aux+0x12>
 8000194:	4804      	ldr	r0, [pc, #16]	@ (80001a8 <__do_global_dtors_aux+0x20>)
 8000196:	f3af 8000 	nop.w
 800019a:	2301      	movs	r3, #1
 800019c:	7023      	strb	r3, [r4, #0]
 800019e:	bd10      	pop	{r4, pc}
 80001a0:	20000004 	.word	0x20000004
 80001a4:	00000000 	.word	0x00000000
 80001a8:	08003c18 	.word	0x08003c18

080001ac <frame_dummy>:
 80001ac:	b508      	push	{r3, lr}
 80001ae:	4b03      	ldr	r3, [pc, #12]	@ (80001bc <frame_dummy+0x10>)
 80001b0:	b11b      	cbz	r3, 80001ba <frame_dummy+0xe>
 80001b2:	4903      	ldr	r1, [pc, #12]	@ (80001c0 <frame_dummy+0x14>)
 80001b4:	4803      	ldr	r0, [pc, #12]	@ (80001c4 <frame_dummy+0x18>)
 80001b6:	f3af 8000 	nop.w
 80001ba:	bd08      	pop	{r3, pc}
 80001bc:	00000000 	.word	0x00000000
 80001c0:	20000008 	.word	0x20000008
 80001c4:	08003c18 	.word	0x08003c18

080001c8 <CS_L>:
 80001c8:	6841      	ldr	r1, [r0, #4]
 80001ca:	8900      	ldrh	r0, [r0, #8]
 80001cc:	694b      	ldr	r3, [r1, #20]
 80001ce:	2201      	movs	r2, #1
 80001d0:	4082      	lsls	r2, r0
 80001d2:	ea23 0302 	bic.w	r3, r3, r2
 80001d6:	614b      	str	r3, [r1, #20]
 80001d8:	4770      	bx	lr

080001da <CS_H>:
 80001da:	6842      	ldr	r2, [r0, #4]
 80001dc:	8900      	ldrh	r0, [r0, #8]
 80001de:	6951      	ldr	r1, [r2, #20]
 80001e0:	2301      	movs	r3, #1
 80001e2:	4083      	lsls	r3, r0
 80001e4:	430b      	orrs	r3, r1
 80001e6:	6153      	str	r3, [r2, #20]
 80001e8:	4770      	bx	lr

080001ea <DC_D>:
 80001ea:	68c2      	ldr	r2, [r0, #12]
 80001ec:	8a00      	ldrh	r0, [r0, #16]
 80001ee:	6951      	ldr	r1, [r2, #20]
 80001f0:	2301      	movs	r3, #1
 80001f2:	4083      	lsls	r3, r0
 80001f4:	430b      	orrs	r3, r1
 80001f6:	6153      	str	r3, [r2, #20]
 80001f8:	4770      	bx	lr

080001fa <GC9A01_Write_Data>:
 80001fa:	b570      	push	{r4, r5, r6, lr}
 80001fc:	4605      	mov	r5, r0
 80001fe:	460c      	mov	r4, r1
 8000200:	4616      	mov	r6, r2
 8000202:	f7ff fff2 	bl	80001ea <DC_D>
 8000206:	4628      	mov	r0, r5
 8000208:	f7ff ffde 	bl	80001c8 <CS_L>
 800020c:	4426      	add	r6, r4
 800020e:	f814 1b01 	ldrb.w	r1, [r4], #1
 8000212:	6828      	ldr	r0, [r5, #0]
 8000214:	f002 fa26 	bl	8002664 <SPI_TRX_Byte>
 8000218:	42a6      	cmp	r6, r4
 800021a:	d1f8      	bne.n	800020e <GC9A01_Write_Data+0x14>
 800021c:	4628      	mov	r0, r5
 800021e:	e8bd 4070 	ldmia.w	sp!, {r4, r5, r6, lr}
 8000222:	f7ff bfda 	b.w	80001da <CS_H>

08000226 <GC9A01_Drite_Data16_Repeat>:
 8000226:	b5f8      	push	{r3, r4, r5, r6, r7, lr}
 8000228:	4605      	mov	r5, r0
 800022a:	460e      	mov	r6, r1
 800022c:	4614      	mov	r4, r2
 800022e:	f7ff ffdc 	bl	80001ea <DC_D>
 8000232:	4628      	mov	r0, r5
 8000234:	f7ff ffc8 	bl	80001c8 <CS_L>
 8000238:	0a37      	lsrs	r7, r6, #8
 800023a:	3c01      	subs	r4, #1
 800023c:	b2f6      	uxtb	r6, r6
 800023e:	4639      	mov	r1, r7
 8000240:	6828      	ldr	r0, [r5, #0]
 8000242:	f002 fa0f 	bl	8002664 <SPI_TRX_Byte>
 8000246:	6828      	ldr	r0, [r5, #0]
 8000248:	4631      	mov	r1, r6
 800024a:	f002 fa0b 	bl	8002664 <SPI_TRX_Byte>
 800024e:	3c01      	subs	r4, #1
 8000250:	d2f5      	bcs.n	800023e <GC9A01_Drite_Data16_Repeat+0x18>
 8000252:	4628      	mov	r0, r5
 8000254:	e8bd 40f8 	ldmia.w	sp!, {r3, r4, r5, r6, r7, lr}
 8000258:	f7ff bfbf 	b.w	80001da <CS_H>

0800025c <GC9A01_write_byte>:
 800025c:	b538      	push	{r3, r4, r5, lr}
 800025e:	4604      	mov	r4, r0
 8000260:	460d      	mov	r5, r1
 8000262:	f7ff ffc2 	bl	80001ea <DC_D>
 8000266:	4620      	mov	r0, r4
 8000268:	f7ff ffae 	bl	80001c8 <CS_L>
 800026c:	6820      	ldr	r0, [r4, #0]
 800026e:	4629      	mov	r1, r5
 8000270:	f002 f9f8 	bl	8002664 <SPI_TRX_Byte>
 8000274:	4620      	mov	r0, r4
 8000276:	e8bd 4038 	ldmia.w	sp!, {r3, r4, r5, lr}
 800027a:	f7ff bfae 	b.w	80001da <CS_H>
	...

08000280 <Delay_ms.constprop.0.isra.0>:
 8000280:	f04f 23e0 	mov.w	r3, #3758153728	@ 0xe000e000
 8000284:	4a05      	ldr	r2, [pc, #20]	@ (800029c <Delay_ms.constprop.0.isra.0+0x1c>)
 8000286:	615a      	str	r2, [r3, #20]
 8000288:	2200      	movs	r2, #0
 800028a:	619a      	str	r2, [r3, #24]
 800028c:	691a      	ldr	r2, [r3, #16]
 800028e:	f042 0201 	orr.w	r2, r2, #1
 8000292:	611a      	str	r2, [r3, #16]
 8000294:	691a      	ldr	r2, [r3, #16]
 8000296:	03d2      	lsls	r2, r2, #15
 8000298:	d5fc      	bpl.n	8000294 <Delay_ms.constprop.0.isra.0+0x14>
 800029a:	4770      	bx	lr
 800029c:	00029040 	.word	0x00029040

080002a0 <Delay_milli.isra.0>:
 80002a0:	b508      	push	{r3, lr}
 80002a2:	eef7 7a00 	vmov.f32	s15, #112	@ 0x3f800000  1.0
 80002a6:	eeb5 0ac0 	vcmpe.f32	s0, #0.0
 80002aa:	eef1 fa10 	vmrs	APSR_nzcv, fpscr
 80002ae:	dc00      	bgt.n	80002b2 <Delay_milli.isra.0+0x12>
 80002b0:	bd08      	pop	{r3, pc}
 80002b2:	f7ff ffe5 	bl	8000280 <Delay_ms.constprop.0.isra.0>
 80002b6:	ee30 0a67 	vsub.f32	s0, s0, s15
 80002ba:	e7f4      	b.n	80002a6 <Delay_milli.isra.0+0x6>

080002bc <write_command>:
 80002bc:	b570      	push	{r4, r5, r6, lr}
 80002be:	460d      	mov	r5, r1
 80002c0:	68c1      	ldr	r1, [r0, #12]
 80002c2:	8a06      	ldrh	r6, [r0, #16]
 80002c4:	694b      	ldr	r3, [r1, #20]
 80002c6:	2201      	movs	r2, #1
 80002c8:	40b2      	lsls	r2, r6
 80002ca:	ea23 0302 	bic.w	r3, r3, r2
 80002ce:	4604      	mov	r4, r0
 80002d0:	614b      	str	r3, [r1, #20]
 80002d2:	f7ff ff79 	bl	80001c8 <CS_L>
 80002d6:	4620      	mov	r0, r4
 80002d8:	f7ff ff76 	bl	80001c8 <CS_L>
 80002dc:	6820      	ldr	r0, [r4, #0]
 80002de:	4629      	mov	r1, r5
 80002e0:	f002 f9c0 	bl	8002664 <SPI_TRX_Byte>
 80002e4:	4620      	mov	r0, r4
 80002e6:	e8bd 4070 	ldmia.w	sp!, {r4, r5, r6, lr}
 80002ea:	f7ff bf76 	b.w	80001da <CS_H>
	...

080002f0 <GC9A01_Init>:
 80002f0:	b5f0      	push	{r4, r5, r6, r7, lr}
 80002f2:	2500      	movs	r5, #0
 80002f4:	b085      	sub	sp, #20
 80002f6:	2601      	movs	r6, #1
 80002f8:	e9cd 6501 	strd	r6, r5, [sp, #4]
 80002fc:	2703      	movs	r7, #3
 80002fe:	9700      	str	r7, [sp, #0]
 8000300:	4604      	mov	r4, r0
 8000302:	7a01      	ldrb	r1, [r0, #8]
 8000304:	6840      	ldr	r0, [r0, #4]
 8000306:	462b      	mov	r3, r5
 8000308:	4632      	mov	r2, r6
 800030a:	f001 fd05 	bl	8001d18 <GPIO_Pin_Init>
 800030e:	e9cd 6501 	strd	r6, r5, [sp, #4]
 8000312:	9700      	str	r7, [sp, #0]
 8000314:	7e21      	ldrb	r1, [r4, #24]
 8000316:	6960      	ldr	r0, [r4, #20]
 8000318:	462b      	mov	r3, r5
 800031a:	4632      	mov	r2, r6
 800031c:	f001 fcfc 	bl	8001d18 <GPIO_Pin_Init>
 8000320:	e9cd 6501 	strd	r6, r5, [sp, #4]
 8000324:	9700      	str	r7, [sp, #0]
 8000326:	4632      	mov	r2, r6
 8000328:	462b      	mov	r3, r5
 800032a:	7c21      	ldrb	r1, [r4, #16]
 800032c:	68e0      	ldr	r0, [r4, #12]
 800032e:	f001 fcf3 	bl	8001d18 <GPIO_Pin_Init>
 8000332:	4620      	mov	r0, r4
 8000334:	f7ff ff51 	bl	80001da <CS_H>
 8000338:	6820      	ldr	r0, [r4, #0]
 800033a:	f001 fde3 	bl	8001f04 <SPI_Init>
 800033e:	6820      	ldr	r0, [r4, #0]
 8000340:	f002 f98a 	bl	8002658 <SPI_Enable>
 8000344:	ed9f 7afb 	vldr	s14, [pc, #1004]	@ 8000734 <GC9A01_Init+0x444>
 8000348:	4620      	mov	r0, r4
 800034a:	eeb0 0a47 	vmov.f32	s0, s14
 800034e:	f7ff ff44 	bl	80001da <CS_H>
 8000352:	f7ff ffa5 	bl	80002a0 <Delay_milli.isra.0>
 8000356:	6960      	ldr	r0, [r4, #20]
 8000358:	8b21      	ldrh	r1, [r4, #24]
 800035a:	6943      	ldr	r3, [r0, #20]
 800035c:	fa06 f101 	lsl.w	r1, r6, r1
 8000360:	ea23 0301 	bic.w	r3, r3, r1
 8000364:	eeb0 0a47 	vmov.f32	s0, s14
 8000368:	6143      	str	r3, [r0, #20]
 800036a:	f7ff ff99 	bl	80002a0 <Delay_milli.isra.0>
 800036e:	6943      	ldr	r3, [r0, #20]
 8000370:	4319      	orrs	r1, r3
 8000372:	eeb0 0a47 	vmov.f32	s0, s14
 8000376:	6141      	str	r1, [r0, #20]
 8000378:	4620      	mov	r0, r4
 800037a:	21ef      	movs	r1, #239	@ 0xef
 800037c:	f7ff ff90 	bl	80002a0 <Delay_milli.isra.0>
 8000380:	f7ff ff9c 	bl	80002bc <write_command>
 8000384:	4620      	mov	r0, r4
 8000386:	21eb      	movs	r1, #235	@ 0xeb
 8000388:	f7ff ff98 	bl	80002bc <write_command>
 800038c:	4620      	mov	r0, r4
 800038e:	2114      	movs	r1, #20
 8000390:	f7ff ff64 	bl	800025c <GC9A01_write_byte>
 8000394:	4620      	mov	r0, r4
 8000396:	21fe      	movs	r1, #254	@ 0xfe
 8000398:	f7ff ff90 	bl	80002bc <write_command>
 800039c:	4620      	mov	r0, r4
 800039e:	21ef      	movs	r1, #239	@ 0xef
 80003a0:	f7ff ff8c 	bl	80002bc <write_command>
 80003a4:	4620      	mov	r0, r4
 80003a6:	21eb      	movs	r1, #235	@ 0xeb
 80003a8:	f7ff ff88 	bl	80002bc <write_command>
 80003ac:	4620      	mov	r0, r4
 80003ae:	2114      	movs	r1, #20
 80003b0:	f7ff ff54 	bl	800025c <GC9A01_write_byte>
 80003b4:	4620      	mov	r0, r4
 80003b6:	2184      	movs	r1, #132	@ 0x84
 80003b8:	f7ff ff80 	bl	80002bc <write_command>
 80003bc:	4620      	mov	r0, r4
 80003be:	2140      	movs	r1, #64	@ 0x40
 80003c0:	f7ff ff4c 	bl	800025c <GC9A01_write_byte>
 80003c4:	4620      	mov	r0, r4
 80003c6:	2185      	movs	r1, #133	@ 0x85
 80003c8:	f7ff ff78 	bl	80002bc <write_command>
 80003cc:	4620      	mov	r0, r4
 80003ce:	21ff      	movs	r1, #255	@ 0xff
 80003d0:	f7ff ff44 	bl	800025c <GC9A01_write_byte>
 80003d4:	4620      	mov	r0, r4
 80003d6:	2186      	movs	r1, #134	@ 0x86
 80003d8:	f7ff ff70 	bl	80002bc <write_command>
 80003dc:	4620      	mov	r0, r4
 80003de:	21ff      	movs	r1, #255	@ 0xff
 80003e0:	f7ff ff3c 	bl	800025c <GC9A01_write_byte>
 80003e4:	4620      	mov	r0, r4
 80003e6:	2187      	movs	r1, #135	@ 0x87
 80003e8:	f7ff ff68 	bl	80002bc <write_command>
 80003ec:	4620      	mov	r0, r4
 80003ee:	21ff      	movs	r1, #255	@ 0xff
 80003f0:	f7ff ff34 	bl	800025c <GC9A01_write_byte>
 80003f4:	4620      	mov	r0, r4
 80003f6:	2188      	movs	r1, #136	@ 0x88
 80003f8:	f7ff ff60 	bl	80002bc <write_command>
 80003fc:	4620      	mov	r0, r4
 80003fe:	210a      	movs	r1, #10
 8000400:	f7ff ff2c 	bl	800025c <GC9A01_write_byte>
 8000404:	4620      	mov	r0, r4
 8000406:	2189      	movs	r1, #137	@ 0x89
 8000408:	f7ff ff58 	bl	80002bc <write_command>
 800040c:	4620      	mov	r0, r4
 800040e:	2121      	movs	r1, #33	@ 0x21
 8000410:	f7ff ff24 	bl	800025c <GC9A01_write_byte>
 8000414:	4620      	mov	r0, r4
 8000416:	218a      	movs	r1, #138	@ 0x8a
 8000418:	f7ff ff50 	bl	80002bc <write_command>
 800041c:	4629      	mov	r1, r5
 800041e:	4620      	mov	r0, r4
 8000420:	f7ff ff1c 	bl	800025c <GC9A01_write_byte>
 8000424:	4620      	mov	r0, r4
 8000426:	218b      	movs	r1, #139	@ 0x8b
 8000428:	f7ff ff48 	bl	80002bc <write_command>
 800042c:	4620      	mov	r0, r4
 800042e:	2180      	movs	r1, #128	@ 0x80
 8000430:	f7ff ff14 	bl	800025c <GC9A01_write_byte>
 8000434:	4620      	mov	r0, r4
 8000436:	218c      	movs	r1, #140	@ 0x8c
 8000438:	f7ff ff40 	bl	80002bc <write_command>
 800043c:	4631      	mov	r1, r6
 800043e:	4620      	mov	r0, r4
 8000440:	f7ff ff0c 	bl	800025c <GC9A01_write_byte>
 8000444:	4620      	mov	r0, r4
 8000446:	218d      	movs	r1, #141	@ 0x8d
 8000448:	f7ff ff38 	bl	80002bc <write_command>
 800044c:	4631      	mov	r1, r6
 800044e:	4620      	mov	r0, r4
 8000450:	f7ff ff04 	bl	800025c <GC9A01_write_byte>
 8000454:	4620      	mov	r0, r4
 8000456:	218e      	movs	r1, #142	@ 0x8e
 8000458:	f7ff ff30 	bl	80002bc <write_command>
 800045c:	4620      	mov	r0, r4
 800045e:	21ff      	movs	r1, #255	@ 0xff
 8000460:	f7ff fefc 	bl	800025c <GC9A01_write_byte>
 8000464:	4620      	mov	r0, r4
 8000466:	218f      	movs	r1, #143	@ 0x8f
 8000468:	f7ff ff28 	bl	80002bc <write_command>
 800046c:	4620      	mov	r0, r4
 800046e:	21ff      	movs	r1, #255	@ 0xff
 8000470:	f7ff fef4 	bl	800025c <GC9A01_write_byte>
 8000474:	4620      	mov	r0, r4
 8000476:	21b6      	movs	r1, #182	@ 0xb6
 8000478:	f7ff ff20 	bl	80002bc <write_command>
 800047c:	4629      	mov	r1, r5
 800047e:	4620      	mov	r0, r4
 8000480:	f7ff feec 	bl	800025c <GC9A01_write_byte>
 8000484:	4629      	mov	r1, r5
 8000486:	4620      	mov	r0, r4
 8000488:	f7ff fee8 	bl	800025c <GC9A01_write_byte>
 800048c:	4620      	mov	r0, r4
 800048e:	2136      	movs	r1, #54	@ 0x36
 8000490:	f7ff ff14 	bl	80002bc <write_command>
 8000494:	4620      	mov	r0, r4
 8000496:	2118      	movs	r1, #24
 8000498:	f7ff fee0 	bl	800025c <GC9A01_write_byte>
 800049c:	4620      	mov	r0, r4
 800049e:	213a      	movs	r1, #58	@ 0x3a
 80004a0:	f7ff ff0c 	bl	80002bc <write_command>
 80004a4:	4620      	mov	r0, r4
 80004a6:	2105      	movs	r1, #5
 80004a8:	f7ff fed8 	bl	800025c <GC9A01_write_byte>
 80004ac:	4620      	mov	r0, r4
 80004ae:	2190      	movs	r1, #144	@ 0x90
 80004b0:	f7ff ff04 	bl	80002bc <write_command>
 80004b4:	4620      	mov	r0, r4
 80004b6:	2108      	movs	r1, #8
 80004b8:	f7ff fed0 	bl	800025c <GC9A01_write_byte>
 80004bc:	4620      	mov	r0, r4
 80004be:	2108      	movs	r1, #8
 80004c0:	f7ff fecc 	bl	800025c <GC9A01_write_byte>
 80004c4:	4620      	mov	r0, r4
 80004c6:	2108      	movs	r1, #8
 80004c8:	f7ff fec8 	bl	800025c <GC9A01_write_byte>
 80004cc:	4620      	mov	r0, r4
 80004ce:	2108      	movs	r1, #8
 80004d0:	f7ff fec4 	bl	800025c <GC9A01_write_byte>
 80004d4:	4620      	mov	r0, r4
 80004d6:	21bd      	movs	r1, #189	@ 0xbd
 80004d8:	f7ff fef0 	bl	80002bc <write_command>
 80004dc:	4620      	mov	r0, r4
 80004de:	2106      	movs	r1, #6
 80004e0:	f7ff febc 	bl	800025c <GC9A01_write_byte>
 80004e4:	4620      	mov	r0, r4
 80004e6:	21bc      	movs	r1, #188	@ 0xbc
 80004e8:	f7ff fee8 	bl	80002bc <write_command>
 80004ec:	4629      	mov	r1, r5
 80004ee:	4620      	mov	r0, r4
 80004f0:	f7ff feb4 	bl	800025c <GC9A01_write_byte>
 80004f4:	4620      	mov	r0, r4
 80004f6:	21ff      	movs	r1, #255	@ 0xff
 80004f8:	f7ff fee0 	bl	80002bc <write_command>
 80004fc:	4620      	mov	r0, r4
 80004fe:	2160      	movs	r1, #96	@ 0x60
 8000500:	f7ff feac 	bl	800025c <GC9A01_write_byte>
 8000504:	4631      	mov	r1, r6
 8000506:	4620      	mov	r0, r4
 8000508:	f7ff fea8 	bl	800025c <GC9A01_write_byte>
 800050c:	4620      	mov	r0, r4
 800050e:	2104      	movs	r1, #4
 8000510:	f7ff fea4 	bl	800025c <GC9A01_write_byte>
 8000514:	4620      	mov	r0, r4
 8000516:	21c3      	movs	r1, #195	@ 0xc3
 8000518:	f7ff fed0 	bl	80002bc <write_command>
 800051c:	4620      	mov	r0, r4
 800051e:	2113      	movs	r1, #19
 8000520:	f7ff fe9c 	bl	800025c <GC9A01_write_byte>
 8000524:	4620      	mov	r0, r4
 8000526:	21c4      	movs	r1, #196	@ 0xc4
 8000528:	f7ff fec8 	bl	80002bc <write_command>
 800052c:	4620      	mov	r0, r4
 800052e:	2113      	movs	r1, #19
 8000530:	f7ff fe94 	bl	800025c <GC9A01_write_byte>
 8000534:	4620      	mov	r0, r4
 8000536:	21c9      	movs	r1, #201	@ 0xc9
 8000538:	f7ff fec0 	bl	80002bc <write_command>
 800053c:	4620      	mov	r0, r4
 800053e:	2122      	movs	r1, #34	@ 0x22
 8000540:	f7ff fe8c 	bl	800025c <GC9A01_write_byte>
 8000544:	4620      	mov	r0, r4
 8000546:	21be      	movs	r1, #190	@ 0xbe
 8000548:	f7ff feb8 	bl	80002bc <write_command>
 800054c:	4620      	mov	r0, r4
 800054e:	2111      	movs	r1, #17
 8000550:	f7ff fe84 	bl	800025c <GC9A01_write_byte>
 8000554:	4620      	mov	r0, r4
 8000556:	21e1      	movs	r1, #225	@ 0xe1
 8000558:	f7ff feb0 	bl	80002bc <write_command>
 800055c:	4620      	mov	r0, r4
 800055e:	2110      	movs	r1, #16
 8000560:	f7ff fe7c 	bl	800025c <GC9A01_write_byte>
 8000564:	4620      	mov	r0, r4
 8000566:	210e      	movs	r1, #14
 8000568:	f7ff fe78 	bl	800025c <GC9A01_write_byte>
 800056c:	4620      	mov	r0, r4
 800056e:	21df      	movs	r1, #223	@ 0xdf
 8000570:	f7ff fea4 	bl	80002bc <write_command>
 8000574:	4620      	mov	r0, r4
 8000576:	2121      	movs	r1, #33	@ 0x21
 8000578:	f7ff fe70 	bl	800025c <GC9A01_write_byte>
 800057c:	4620      	mov	r0, r4
 800057e:	210c      	movs	r1, #12
 8000580:	f7ff fe6c 	bl	800025c <GC9A01_write_byte>
 8000584:	4620      	mov	r0, r4
 8000586:	2102      	movs	r1, #2
 8000588:	f7ff fe68 	bl	800025c <GC9A01_write_byte>
 800058c:	4620      	mov	r0, r4
 800058e:	21f0      	movs	r1, #240	@ 0xf0
 8000590:	f7ff fe94 	bl	80002bc <write_command>
 8000594:	4620      	mov	r0, r4
 8000596:	2145      	movs	r1, #69	@ 0x45
 8000598:	f7ff fe60 	bl	800025c <GC9A01_write_byte>
 800059c:	4620      	mov	r0, r4
 800059e:	2109      	movs	r1, #9
 80005a0:	f7ff fe5c 	bl	800025c <GC9A01_write_byte>
 80005a4:	4620      	mov	r0, r4
 80005a6:	2108      	movs	r1, #8
 80005a8:	f7ff fe58 	bl	800025c <GC9A01_write_byte>
 80005ac:	4620      	mov	r0, r4
 80005ae:	2108      	movs	r1, #8
 80005b0:	f7ff fe54 	bl	800025c <GC9A01_write_byte>
 80005b4:	4620      	mov	r0, r4
 80005b6:	2126      	movs	r1, #38	@ 0x26
 80005b8:	f7ff fe50 	bl	800025c <GC9A01_write_byte>
 80005bc:	4620      	mov	r0, r4
 80005be:	212a      	movs	r1, #42	@ 0x2a
 80005c0:	f7ff fe4c 	bl	800025c <GC9A01_write_byte>
 80005c4:	4620      	mov	r0, r4
 80005c6:	21f1      	movs	r1, #241	@ 0xf1
 80005c8:	f7ff fe78 	bl	80002bc <write_command>
 80005cc:	4620      	mov	r0, r4
 80005ce:	2143      	movs	r1, #67	@ 0x43
 80005d0:	f7ff fe44 	bl	800025c <GC9A01_write_byte>
 80005d4:	4620      	mov	r0, r4
 80005d6:	2170      	movs	r1, #112	@ 0x70
 80005d8:	f7ff fe40 	bl	800025c <GC9A01_write_byte>
 80005dc:	4620      	mov	r0, r4
 80005de:	2172      	movs	r1, #114	@ 0x72
 80005e0:	f7ff fe3c 	bl	800025c <GC9A01_write_byte>
 80005e4:	4620      	mov	r0, r4
 80005e6:	2136      	movs	r1, #54	@ 0x36
 80005e8:	f7ff fe38 	bl	800025c <GC9A01_write_byte>
 80005ec:	4620      	mov	r0, r4
 80005ee:	2137      	movs	r1, #55	@ 0x37
 80005f0:	f7ff fe34 	bl	800025c <GC9A01_write_byte>
 80005f4:	4620      	mov	r0, r4
 80005f6:	216f      	movs	r1, #111	@ 0x6f
 80005f8:	f7ff fe30 	bl	800025c <GC9A01_write_byte>
 80005fc:	4620      	mov	r0, r4
 80005fe:	21f2      	movs	r1, #242	@ 0xf2
 8000600:	f7ff fe5c 	bl	80002bc <write_command>
 8000604:	4620      	mov	r0, r4
 8000606:	2145      	movs	r1, #69	@ 0x45
 8000608:	f7ff fe28 	bl	800025c <GC9A01_write_byte>
 800060c:	4620      	mov	r0, r4
 800060e:	2109      	movs	r1, #9
 8000610:	f7ff fe24 	bl	800025c <GC9A01_write_byte>
 8000614:	4620      	mov	r0, r4
 8000616:	2108      	movs	r1, #8
 8000618:	f7ff fe20 	bl	800025c <GC9A01_write_byte>
 800061c:	4620      	mov	r0, r4
 800061e:	2108      	movs	r1, #8
 8000620:	f7ff fe1c 	bl	800025c <GC9A01_write_byte>
 8000624:	4620      	mov	r0, r4
 8000626:	2126      	movs	r1, #38	@ 0x26
 8000628:	f7ff fe18 	bl	800025c <GC9A01_write_byte>
 800062c:	4620      	mov	r0, r4
 800062e:	212a      	movs	r1, #42	@ 0x2a
 8000630:	f7ff fe14 	bl	800025c <GC9A01_write_byte>
 8000634:	4620      	mov	r0, r4
 8000636:	21f3      	movs	r1, #243	@ 0xf3
 8000638:	f7ff fe40 	bl	80002bc <write_command>
 800063c:	4620      	mov	r0, r4
 800063e:	2143      	movs	r1, #67	@ 0x43
 8000640:	f7ff fe0c 	bl	800025c <GC9A01_write_byte>
 8000644:	4620      	mov	r0, r4
 8000646:	2170      	movs	r1, #112	@ 0x70
 8000648:	f7ff fe08 	bl	800025c <GC9A01_write_byte>
 800064c:	4620      	mov	r0, r4
 800064e:	2172      	movs	r1, #114	@ 0x72
 8000650:	f7ff fe04 	bl	800025c <GC9A01_write_byte>
 8000654:	4620      	mov	r0, r4
 8000656:	2136      	movs	r1, #54	@ 0x36
 8000658:	f7ff fe00 	bl	800025c <GC9A01_write_byte>
 800065c:	4620      	mov	r0, r4
 800065e:	2137      	movs	r1, #55	@ 0x37
 8000660:	f7ff fdfc 	bl	800025c <GC9A01_write_byte>
 8000664:	4620      	mov	r0, r4
 8000666:	216f      	movs	r1, #111	@ 0x6f
 8000668:	f7ff fdf8 	bl	800025c <GC9A01_write_byte>
 800066c:	4620      	mov	r0, r4
 800066e:	21ed      	movs	r1, #237	@ 0xed
 8000670:	f7ff fe24 	bl	80002bc <write_command>
 8000674:	4620      	mov	r0, r4
 8000676:	211b      	movs	r1, #27
 8000678:	f7ff fdf0 	bl	800025c <GC9A01_write_byte>
 800067c:	4620      	mov	r0, r4
 800067e:	210b      	movs	r1, #11
 8000680:	f7ff fdec 	bl	800025c <GC9A01_write_byte>
 8000684:	4620      	mov	r0, r4
 8000686:	21ae      	movs	r1, #174	@ 0xae
 8000688:	f7ff fe18 	bl	80002bc <write_command>
 800068c:	4620      	mov	r0, r4
 800068e:	2177      	movs	r1, #119	@ 0x77
 8000690:	f7ff fde4 	bl	800025c <GC9A01_write_byte>
 8000694:	4620      	mov	r0, r4
 8000696:	21cd      	movs	r1, #205	@ 0xcd
 8000698:	f7ff fe10 	bl	80002bc <write_command>
 800069c:	4620      	mov	r0, r4
 800069e:	2163      	movs	r1, #99	@ 0x63
 80006a0:	f7ff fddc 	bl	800025c <GC9A01_write_byte>
 80006a4:	4620      	mov	r0, r4
 80006a6:	2170      	movs	r1, #112	@ 0x70
 80006a8:	f7ff fe08 	bl	80002bc <write_command>
 80006ac:	4620      	mov	r0, r4
 80006ae:	2107      	movs	r1, #7
 80006b0:	f7ff fdd4 	bl	800025c <GC9A01_write_byte>
 80006b4:	4620      	mov	r0, r4
 80006b6:	2107      	movs	r1, #7
 80006b8:	f7ff fdd0 	bl	800025c <GC9A01_write_byte>
 80006bc:	4620      	mov	r0, r4
 80006be:	2104      	movs	r1, #4
 80006c0:	f7ff fdcc 	bl	800025c <GC9A01_write_byte>
 80006c4:	4620      	mov	r0, r4
 80006c6:	210e      	movs	r1, #14
 80006c8:	f7ff fdc8 	bl	800025c <GC9A01_write_byte>
 80006cc:	4620      	mov	r0, r4
 80006ce:	210f      	movs	r1, #15
 80006d0:	f7ff fdc4 	bl	800025c <GC9A01_write_byte>
 80006d4:	4620      	mov	r0, r4
 80006d6:	2109      	movs	r1, #9
 80006d8:	f7ff fdc0 	bl	800025c <GC9A01_write_byte>
 80006dc:	4620      	mov	r0, r4
 80006de:	2107      	movs	r1, #7
 80006e0:	f7ff fdbc 	bl	800025c <GC9A01_write_byte>
 80006e4:	4620      	mov	r0, r4
 80006e6:	2108      	movs	r1, #8
 80006e8:	f7ff fdb8 	bl	800025c <GC9A01_write_byte>
 80006ec:	4639      	mov	r1, r7
 80006ee:	4620      	mov	r0, r4
 80006f0:	f7ff fdb4 	bl	800025c <GC9A01_write_byte>
 80006f4:	4620      	mov	r0, r4
 80006f6:	21e8      	movs	r1, #232	@ 0xe8
 80006f8:	f7ff fde0 	bl	80002bc <write_command>
 80006fc:	4620      	mov	r0, r4
 80006fe:	2134      	movs	r1, #52	@ 0x34
 8000700:	f7ff fdac 	bl	800025c <GC9A01_write_byte>
 8000704:	4620      	mov	r0, r4
 8000706:	2162      	movs	r1, #98	@ 0x62
 8000708:	f7ff fdd8 	bl	80002bc <write_command>
 800070c:	4620      	mov	r0, r4
 800070e:	2118      	movs	r1, #24
 8000710:	f7ff fda4 	bl	800025c <GC9A01_write_byte>
 8000714:	4620      	mov	r0, r4
 8000716:	210d      	movs	r1, #13
 8000718:	f7ff fda0 	bl	800025c <GC9A01_write_byte>
 800071c:	4620      	mov	r0, r4
 800071e:	2171      	movs	r1, #113	@ 0x71
 8000720:	f7ff fd9c 	bl	800025c <GC9A01_write_byte>
 8000724:	4620      	mov	r0, r4
 8000726:	21ed      	movs	r1, #237	@ 0xed
 8000728:	f7ff fd98 	bl	800025c <GC9A01_write_byte>
 800072c:	4620      	mov	r0, r4
 800072e:	2170      	movs	r1, #112	@ 0x70
 8000730:	e004      	b.n	800073c <GC9A01_Init+0x44c>
 8000732:	bf00      	nop
 8000734:	43160000 	.word	0x43160000
 8000738:	42f00000 	.word	0x42f00000
 800073c:	f7ff fd8e 	bl	800025c <GC9A01_write_byte>
 8000740:	4620      	mov	r0, r4
 8000742:	2170      	movs	r1, #112	@ 0x70
 8000744:	f7ff fd8a 	bl	800025c <GC9A01_write_byte>
 8000748:	4620      	mov	r0, r4
 800074a:	2118      	movs	r1, #24
 800074c:	f7ff fd86 	bl	800025c <GC9A01_write_byte>
 8000750:	4620      	mov	r0, r4
 8000752:	210f      	movs	r1, #15
 8000754:	f7ff fd82 	bl	800025c <GC9A01_write_byte>
 8000758:	4620      	mov	r0, r4
 800075a:	2171      	movs	r1, #113	@ 0x71
 800075c:	f7ff fd7e 	bl	800025c <GC9A01_write_byte>
 8000760:	4620      	mov	r0, r4
 8000762:	21ef      	movs	r1, #239	@ 0xef
 8000764:	f7ff fd7a 	bl	800025c <GC9A01_write_byte>
 8000768:	4620      	mov	r0, r4
 800076a:	2170      	movs	r1, #112	@ 0x70
 800076c:	f7ff fd76 	bl	800025c <GC9A01_write_byte>
 8000770:	4620      	mov	r0, r4
 8000772:	2170      	movs	r1, #112	@ 0x70
 8000774:	f7ff fd72 	bl	800025c <GC9A01_write_byte>
 8000778:	4620      	mov	r0, r4
 800077a:	2163      	movs	r1, #99	@ 0x63
 800077c:	f7ff fd9e 	bl	80002bc <write_command>
 8000780:	4620      	mov	r0, r4
 8000782:	2118      	movs	r1, #24
 8000784:	f7ff fd6a 	bl	800025c <GC9A01_write_byte>
 8000788:	4620      	mov	r0, r4
 800078a:	2111      	movs	r1, #17
 800078c:	f7ff fd66 	bl	800025c <GC9A01_write_byte>
 8000790:	4620      	mov	r0, r4
 8000792:	2171      	movs	r1, #113	@ 0x71
 8000794:	f7ff fd62 	bl	800025c <GC9A01_write_byte>
 8000798:	4620      	mov	r0, r4
 800079a:	21f1      	movs	r1, #241	@ 0xf1
 800079c:	f7ff fd5e 	bl	800025c <GC9A01_write_byte>
 80007a0:	4620      	mov	r0, r4
 80007a2:	2170      	movs	r1, #112	@ 0x70
 80007a4:	f7ff fd5a 	bl	800025c <GC9A01_write_byte>
 80007a8:	4620      	mov	r0, r4
 80007aa:	2170      	movs	r1, #112	@ 0x70
 80007ac:	f7ff fd56 	bl	800025c <GC9A01_write_byte>
 80007b0:	4620      	mov	r0, r4
 80007b2:	2118      	movs	r1, #24
 80007b4:	f7ff fd52 	bl	800025c <GC9A01_write_byte>
 80007b8:	4620      	mov	r0, r4
 80007ba:	2113      	movs	r1, #19
 80007bc:	f7ff fd4e 	bl	800025c <GC9A01_write_byte>
 80007c0:	4620      	mov	r0, r4
 80007c2:	2171      	movs	r1, #113	@ 0x71
 80007c4:	f7ff fd4a 	bl	800025c <GC9A01_write_byte>
 80007c8:	4620      	mov	r0, r4
 80007ca:	21f3      	movs	r1, #243	@ 0xf3
 80007cc:	f7ff fd46 	bl	800025c <GC9A01_write_byte>
 80007d0:	4620      	mov	r0, r4
 80007d2:	2170      	movs	r1, #112	@ 0x70
 80007d4:	f7ff fd42 	bl	800025c <GC9A01_write_byte>
 80007d8:	4620      	mov	r0, r4
 80007da:	2170      	movs	r1, #112	@ 0x70
 80007dc:	f7ff fd3e 	bl	800025c <GC9A01_write_byte>
 80007e0:	4620      	mov	r0, r4
 80007e2:	2164      	movs	r1, #100	@ 0x64
 80007e4:	f7ff fd6a 	bl	80002bc <write_command>
 80007e8:	4620      	mov	r0, r4
 80007ea:	2128      	movs	r1, #40	@ 0x28
 80007ec:	f7ff fd36 	bl	800025c <GC9A01_write_byte>
 80007f0:	4620      	mov	r0, r4
 80007f2:	2129      	movs	r1, #41	@ 0x29
 80007f4:	f7ff fd32 	bl	800025c <GC9A01_write_byte>
 80007f8:	4620      	mov	r0, r4
 80007fa:	21f1      	movs	r1, #241	@ 0xf1
 80007fc:	f7ff fd2e 	bl	800025c <GC9A01_write_byte>
 8000800:	4631      	mov	r1, r6
 8000802:	4620      	mov	r0, r4
 8000804:	f7ff fd2a 	bl	800025c <GC9A01_write_byte>
 8000808:	4620      	mov	r0, r4
 800080a:	21f1      	movs	r1, #241	@ 0xf1
 800080c:	f7ff fd26 	bl	800025c <GC9A01_write_byte>
 8000810:	4629      	mov	r1, r5
 8000812:	4620      	mov	r0, r4
 8000814:	f7ff fd22 	bl	800025c <GC9A01_write_byte>
 8000818:	4620      	mov	r0, r4
 800081a:	2107      	movs	r1, #7
 800081c:	f7ff fd1e 	bl	800025c <GC9A01_write_byte>
 8000820:	4620      	mov	r0, r4
 8000822:	2166      	movs	r1, #102	@ 0x66
 8000824:	f7ff fd4a 	bl	80002bc <write_command>
 8000828:	4620      	mov	r0, r4
 800082a:	213c      	movs	r1, #60	@ 0x3c
 800082c:	f7ff fd16 	bl	800025c <GC9A01_write_byte>
 8000830:	4629      	mov	r1, r5
 8000832:	4620      	mov	r0, r4
 8000834:	f7ff fd12 	bl	800025c <GC9A01_write_byte>
 8000838:	4620      	mov	r0, r4
 800083a:	21cd      	movs	r1, #205	@ 0xcd
 800083c:	f7ff fd0e 	bl	800025c <GC9A01_write_byte>
 8000840:	4620      	mov	r0, r4
 8000842:	2167      	movs	r1, #103	@ 0x67
 8000844:	f7ff fd0a 	bl	800025c <GC9A01_write_byte>
 8000848:	4620      	mov	r0, r4
 800084a:	2145      	movs	r1, #69	@ 0x45
 800084c:	f7ff fd06 	bl	800025c <GC9A01_write_byte>
 8000850:	4620      	mov	r0, r4
 8000852:	2145      	movs	r1, #69	@ 0x45
 8000854:	f7ff fd02 	bl	800025c <GC9A01_write_byte>
 8000858:	4620      	mov	r0, r4
 800085a:	2110      	movs	r1, #16
 800085c:	f7ff fcfe 	bl	800025c <GC9A01_write_byte>
 8000860:	4629      	mov	r1, r5
 8000862:	4620      	mov	r0, r4
 8000864:	f7ff fcfa 	bl	800025c <GC9A01_write_byte>
 8000868:	4629      	mov	r1, r5
 800086a:	4620      	mov	r0, r4
 800086c:	f7ff fcf6 	bl	800025c <GC9A01_write_byte>
 8000870:	4629      	mov	r1, r5
 8000872:	4620      	mov	r0, r4
 8000874:	f7ff fcf2 	bl	800025c <GC9A01_write_byte>
 8000878:	4620      	mov	r0, r4
 800087a:	2167      	movs	r1, #103	@ 0x67
 800087c:	f7ff fd1e 	bl	80002bc <write_command>
 8000880:	4629      	mov	r1, r5
 8000882:	4620      	mov	r0, r4
 8000884:	f7ff fcea 	bl	800025c <GC9A01_write_byte>
 8000888:	4620      	mov	r0, r4
 800088a:	213c      	movs	r1, #60	@ 0x3c
 800088c:	f7ff fce6 	bl	800025c <GC9A01_write_byte>
 8000890:	4629      	mov	r1, r5
 8000892:	4620      	mov	r0, r4
 8000894:	f7ff fce2 	bl	800025c <GC9A01_write_byte>
 8000898:	4629      	mov	r1, r5
 800089a:	4620      	mov	r0, r4
 800089c:	f7ff fcde 	bl	800025c <GC9A01_write_byte>
 80008a0:	4629      	mov	r1, r5
 80008a2:	4620      	mov	r0, r4
 80008a4:	f7ff fcda 	bl	800025c <GC9A01_write_byte>
 80008a8:	4631      	mov	r1, r6
 80008aa:	4620      	mov	r0, r4
 80008ac:	f7ff fcd6 	bl	800025c <GC9A01_write_byte>
 80008b0:	4620      	mov	r0, r4
 80008b2:	2154      	movs	r1, #84	@ 0x54
 80008b4:	f7ff fcd2 	bl	800025c <GC9A01_write_byte>
 80008b8:	4620      	mov	r0, r4
 80008ba:	2110      	movs	r1, #16
 80008bc:	f7ff fcce 	bl	800025c <GC9A01_write_byte>
 80008c0:	4620      	mov	r0, r4
 80008c2:	2132      	movs	r1, #50	@ 0x32
 80008c4:	f7ff fcca 	bl	800025c <GC9A01_write_byte>
 80008c8:	4620      	mov	r0, r4
 80008ca:	2198      	movs	r1, #152	@ 0x98
 80008cc:	f7ff fcc6 	bl	800025c <GC9A01_write_byte>
 80008d0:	4620      	mov	r0, r4
 80008d2:	2174      	movs	r1, #116	@ 0x74
 80008d4:	f7ff fcf2 	bl	80002bc <write_command>
 80008d8:	4620      	mov	r0, r4
 80008da:	2110      	movs	r1, #16
 80008dc:	f7ff fcbe 	bl	800025c <GC9A01_write_byte>
 80008e0:	4620      	mov	r0, r4
 80008e2:	2185      	movs	r1, #133	@ 0x85
 80008e4:	f7ff fcba 	bl	800025c <GC9A01_write_byte>
 80008e8:	4620      	mov	r0, r4
 80008ea:	2180      	movs	r1, #128	@ 0x80
 80008ec:	f7ff fcb6 	bl	800025c <GC9A01_write_byte>
 80008f0:	4629      	mov	r1, r5
 80008f2:	4620      	mov	r0, r4
 80008f4:	f7ff fcb2 	bl	800025c <GC9A01_write_byte>
 80008f8:	4629      	mov	r1, r5
 80008fa:	4620      	mov	r0, r4
 80008fc:	f7ff fcae 	bl	800025c <GC9A01_write_byte>
 8000900:	4620      	mov	r0, r4
 8000902:	214e      	movs	r1, #78	@ 0x4e
 8000904:	f7ff fcaa 	bl	800025c <GC9A01_write_byte>
 8000908:	4629      	mov	r1, r5
 800090a:	4620      	mov	r0, r4
 800090c:	f7ff fca6 	bl	800025c <GC9A01_write_byte>
 8000910:	4620      	mov	r0, r4
 8000912:	2198      	movs	r1, #152	@ 0x98
 8000914:	f7ff fcd2 	bl	80002bc <write_command>
 8000918:	4620      	mov	r0, r4
 800091a:	213e      	movs	r1, #62	@ 0x3e
 800091c:	f7ff fc9e 	bl	800025c <GC9A01_write_byte>
 8000920:	4620      	mov	r0, r4
 8000922:	2107      	movs	r1, #7
 8000924:	f7ff fc9a 	bl	800025c <GC9A01_write_byte>
 8000928:	4620      	mov	r0, r4
 800092a:	2135      	movs	r1, #53	@ 0x35
 800092c:	f7ff fcc6 	bl	80002bc <write_command>
 8000930:	4620      	mov	r0, r4
 8000932:	2121      	movs	r1, #33	@ 0x21
 8000934:	f7ff fcc2 	bl	80002bc <write_command>
 8000938:	4620      	mov	r0, r4
 800093a:	2111      	movs	r1, #17
 800093c:	f7ff fcbe 	bl	80002bc <write_command>
 8000940:	ed1f 0a83 	vldr	s0, [pc, #-524]	@ 8000738 <GC9A01_Init+0x448>
 8000944:	2129      	movs	r1, #41	@ 0x29
 8000946:	4620      	mov	r0, r4
 8000948:	f7ff fcaa 	bl	80002a0 <Delay_milli.isra.0>
 800094c:	f7ff fcb6 	bl	80002bc <write_command>
 8000950:	eeb3 0a04 	vmov.f32	s0, #52	@ 0x41a00000  20.0
 8000954:	b005      	add	sp, #20
 8000956:	e8bd 40f0 	ldmia.w	sp!, {r4, r5, r6, r7, lr}
 800095a:	f7ff bca1 	b.w	80002a0 <Delay_milli.isra.0>
 800095e:	bf00      	nop

08000960 <GC9A01_SetAddressWindow>:
 8000960:	e92d 41f3 	stmdb	sp!, {r0, r1, r4, r5, r6, r7, r8, lr}
 8000964:	460f      	mov	r7, r1
 8000966:	212a      	movs	r1, #42	@ 0x2a
 8000968:	4604      	mov	r4, r0
 800096a:	461e      	mov	r6, r3
 800096c:	f8bd 8020 	ldrh.w	r8, [sp, #32]
 8000970:	4615      	mov	r5, r2
 8000972:	f7ff fca3 	bl	80002bc <write_command>
 8000976:	2204      	movs	r2, #4
 8000978:	eb0d 0102 	add.w	r1, sp, r2
 800097c:	4620      	mov	r0, r4
 800097e:	ba7f      	rev16	r7, r7
 8000980:	ba76      	rev16	r6, r6
 8000982:	f8ad 7004 	strh.w	r7, [sp, #4]
 8000986:	f8ad 6006 	strh.w	r6, [sp, #6]
 800098a:	f7ff fc36 	bl	80001fa <GC9A01_Write_Data>
 800098e:	4620      	mov	r0, r4
 8000990:	212b      	movs	r1, #43	@ 0x2b
 8000992:	f7ff fc93 	bl	80002bc <write_command>
 8000996:	2204      	movs	r2, #4
 8000998:	eb0d 0102 	add.w	r1, sp, r2
 800099c:	4620      	mov	r0, r4
 800099e:	ba6d      	rev16	r5, r5
 80009a0:	fa98 f898 	rev16.w	r8, r8
 80009a4:	f8ad 5004 	strh.w	r5, [sp, #4]
 80009a8:	f8ad 8006 	strh.w	r8, [sp, #6]
 80009ac:	f7ff fc25 	bl	80001fa <GC9A01_Write_Data>
 80009b0:	212c      	movs	r1, #44	@ 0x2c
 80009b2:	4620      	mov	r0, r4
 80009b4:	b002      	add	sp, #8
 80009b6:	e8bd 41f0 	ldmia.w	sp!, {r4, r5, r6, r7, r8, lr}
 80009ba:	f7ff bc7f 	b.w	80002bc <write_command>

080009be <GC9A01_PushColor>:
 80009be:	b507      	push	{r0, r1, r2, lr}
 80009c0:	ba49      	rev16	r1, r1
 80009c2:	f8ad 1004 	strh.w	r1, [sp, #4]
 80009c6:	2202      	movs	r2, #2
 80009c8:	a901      	add	r1, sp, #4
 80009ca:	f7ff fc16 	bl	80001fa <GC9A01_Write_Data>
 80009ce:	b003      	add	sp, #12
 80009d0:	f85d fb04 	ldr.w	pc, [sp], #4

080009d4 <GC9A01_DrawPixel>:
 80009d4:	29ef      	cmp	r1, #239	@ 0xef
 80009d6:	b5f7      	push	{r0, r1, r2, r4, r5, r6, r7, lr}
 80009d8:	4606      	mov	r6, r0
 80009da:	461f      	mov	r7, r3
 80009dc:	d80c      	bhi.n	80009f8 <GC9A01_DrawPixel+0x24>
 80009de:	2aef      	cmp	r2, #239	@ 0xef
 80009e0:	d80a      	bhi.n	80009f8 <GC9A01_DrawPixel+0x24>
 80009e2:	460b      	mov	r3, r1
 80009e4:	9200      	str	r2, [sp, #0]
 80009e6:	f7ff ffbb 	bl	8000960 <GC9A01_SetAddressWindow>
 80009ea:	4639      	mov	r1, r7
 80009ec:	4630      	mov	r0, r6
 80009ee:	b003      	add	sp, #12
 80009f0:	e8bd 40f0 	ldmia.w	sp!, {r4, r5, r6, r7, lr}
 80009f4:	f7ff bfe3 	b.w	80009be <GC9A01_PushColor>
 80009f8:	b003      	add	sp, #12
 80009fa:	bdf0      	pop	{r4, r5, r6, r7, pc}

080009fc <GC9A01_DrawPixelSafe>:
 80009fc:	b289      	uxth	r1, r1
 80009fe:	29ef      	cmp	r1, #239	@ 0xef
 8000a00:	d804      	bhi.n	8000a0c <GC9A01_DrawPixelSafe+0x10>
 8000a02:	b292      	uxth	r2, r2
 8000a04:	2aef      	cmp	r2, #239	@ 0xef
 8000a06:	d801      	bhi.n	8000a0c <GC9A01_DrawPixelSafe+0x10>
 8000a08:	f7ff bfe4 	b.w	80009d4 <GC9A01_DrawPixel>
 8000a0c:	4770      	bx	lr

08000a0e <GC9A01_Fill>:
 8000a0e:	b537      	push	{r0, r1, r2, r4, r5, lr}
 8000a10:	23ef      	movs	r3, #239	@ 0xef
 8000a12:	2200      	movs	r2, #0
 8000a14:	460d      	mov	r5, r1
 8000a16:	9300      	str	r3, [sp, #0]
 8000a18:	4611      	mov	r1, r2
 8000a1a:	4604      	mov	r4, r0
 8000a1c:	f7ff ffa0 	bl	8000960 <GC9A01_SetAddressWindow>
 8000a20:	f44f 4261 	mov.w	r2, #57600	@ 0xe100
 8000a24:	4629      	mov	r1, r5
 8000a26:	4620      	mov	r0, r4
 8000a28:	b003      	add	sp, #12
 8000a2a:	e8bd 4030 	ldmia.w	sp!, {r4, r5, lr}
 8000a2e:	f7ff bbfa 	b.w	8000226 <GC9A01_Drite_Data16_Repeat>
	...

08000a34 <GC9A01_DrawArcStroke>:
 8000a34:	e92d 4ff8 	stmdb	sp!, {r3, r4, r5, r6, r7, r8, r9, sl, fp, lr}
 8000a38:	ed2d 8b08 	vpush	{d8-d11}
 8000a3c:	1e1d      	subs	r5, r3, #0
 8000a3e:	f9bd 6050 	ldrsh.w	r6, [sp, #80]	@ 0x50
 8000a42:	f8bd a054 	ldrh.w	sl, [sp, #84]	@ 0x54
 8000a46:	4607      	mov	r7, r0
 8000a48:	4688      	mov	r8, r1
 8000a4a:	4691      	mov	r9, r2
 8000a4c:	dd6b      	ble.n	8000b26 <GC9A01_DrawArcStroke+0xf2>
 8000a4e:	2e00      	cmp	r6, #0
 8000a50:	dd69      	ble.n	8000b26 <GC9A01_DrawArcStroke+0xf2>
 8000a52:	f8bd 3048 	ldrh.w	r3, [sp, #72]	@ 0x48
 8000a56:	f8bd 404c 	ldrh.w	r4, [sp, #76]	@ 0x4c
 8000a5a:	ed9f aa35 	vldr	s20, [pc, #212]	@ 8000b30 <GC9A01_DrawArcStroke+0xfc>
 8000a5e:	eddf aa35 	vldr	s21, [pc, #212]	@ 8000b34 <GC9A01_DrawArcStroke+0x100>
 8000a62:	ed9f ba35 	vldr	s22, [pc, #212]	@ 8000b38 <GC9A01_DrawArcStroke+0x104>
 8000a66:	ee08 3a10 	vmov	s16, r3
 8000a6a:	0063      	lsls	r3, r4, #1
 8000a6c:	ee07 3a90 	vmov	s15, r3
 8000a70:	eef8 7ae7 	vcvt.f32.s32	s15, s15
 8000a74:	eef6 8a00 	vmov.f32	s17, #96	@ 0x3f000000  0.5
 8000a78:	ee77 7aa8 	vadd.f32	s15, s15, s17
 8000a7c:	42ae      	cmp	r6, r5
 8000a7e:	eefd 7ae7 	vcvt.s32.f32	s15, s15
 8000a82:	eeb8 8a48 	vcvt.f32.u32	s16, s16
 8000a86:	ee17 4a90 	vmov	r4, s15
 8000a8a:	bfa8      	it	ge
 8000a8c:	462e      	movge	r6, r5
 8000a8e:	eeb4 8aca 	vcmpe.f32	s16, s20
 8000a92:	eef1 fa10 	vmrs	APSR_nzcv, fpscr
 8000a96:	bfa8      	it	ge
 8000a98:	ee38 8a4a 	vsubge.f32	s16, s16, s20
 8000a9c:	eeb0 7a00 	vmov.f32	s14, #0	@ 0x40000000  2.0
 8000aa0:	eef0 7a68 	vmov.f32	s15, s17
 8000aa4:	eee8 7a07 	vfma.f32	s15, s16, s14
 8000aa8:	eefd 7ae7 	vcvt.s32.f32	s15, s15
 8000aac:	ee17 3a90 	vmov	r3, s15
 8000ab0:	42a3      	cmp	r3, r4
 8000ab2:	d038      	beq.n	8000b26 <GC9A01_DrawArcStroke+0xf2>
 8000ab4:	ee68 7a2a 	vmul.f32	s15, s16, s21
 8000ab8:	f04f 0b00 	mov.w	fp, #0
 8000abc:	eec7 9a8b 	vdiv.f32	s19, s15, s22
 8000ac0:	eeb0 0a69 	vmov.f32	s0, s19
 8000ac4:	f002 fb80 	bl	80031c8 <sinf>
 8000ac8:	eeb0 9a40 	vmov.f32	s18, s0
 8000acc:	eeb0 0a69 	vmov.f32	s0, s19
 8000ad0:	f002 fb2e 	bl	8003130 <cosf>
 8000ad4:	eef0 9a40 	vmov.f32	s19, s0
 8000ad8:	eba5 030b 	sub.w	r3, r5, fp
 8000adc:	ee06 3a90 	vmov	s13, r3
 8000ae0:	eef8 6ae6 	vcvt.f32.s32	s13, s13
 8000ae4:	eef0 7a68 	vmov.f32	s15, s17
 8000ae8:	eeb0 7a68 	vmov.f32	s14, s17
 8000aec:	eee9 7aa6 	vfma.f32	s15, s19, s13
 8000af0:	4653      	mov	r3, sl
 8000af2:	4638      	mov	r0, r7
 8000af4:	eea9 7a26 	vfma.f32	s14, s18, s13
 8000af8:	f10b 0b01 	add.w	fp, fp, #1
 8000afc:	eefd 7ae7 	vcvt.s32.f32	s15, s15
 8000b00:	eebd 7ac7 	vcvt.s32.f32	s14, s14
 8000b04:	ee17 1a90 	vmov	r1, s15
 8000b08:	ee17 2a10 	vmov	r2, s14
 8000b0c:	4441      	add	r1, r8
 8000b0e:	444a      	add	r2, r9
 8000b10:	b212      	sxth	r2, r2
 8000b12:	b209      	sxth	r1, r1
 8000b14:	f7ff ff72 	bl	80009fc <GC9A01_DrawPixelSafe>
 8000b18:	fa0f f38b 	sxth.w	r3, fp
 8000b1c:	429e      	cmp	r6, r3
 8000b1e:	dcdb      	bgt.n	8000ad8 <GC9A01_DrawArcStroke+0xa4>
 8000b20:	ee38 8a28 	vadd.f32	s16, s16, s17
 8000b24:	e7b3      	b.n	8000a8e <GC9A01_DrawArcStroke+0x5a>
 8000b26:	ecbd 8b08 	vpop	{d8-d11}
 8000b2a:	e8bd 8ff8 	ldmia.w	sp!, {r3, r4, r5, r6, r7, r8, r9, sl, fp, pc}
 8000b2e:	bf00      	nop
 8000b30:	43b40000 	.word	0x43b40000
 8000b34:	40490fdb 	.word	0x40490fdb
 8000b38:	43340000 	.word	0x43340000

08000b3c <__NVIC_EnableIRQ.part.0>:
 8000b3c:	4a04      	ldr	r2, [pc, #16]	@ (8000b50 <__NVIC_EnableIRQ.part.0+0x14>)
 8000b3e:	0941      	lsrs	r1, r0, #5
 8000b40:	2301      	movs	r3, #1
 8000b42:	f000 001f 	and.w	r0, r0, #31
 8000b46:	4083      	lsls	r3, r0
 8000b48:	f842 3021 	str.w	r3, [r2, r1, lsl #2]
 8000b4c:	4770      	bx	lr
 8000b4e:	bf00      	nop
 8000b50:	e000e100 	.word	0xe000e100

08000b54 <DMA1_Stream0_IRQHandler>:
 8000b54:	b570      	push	{r4, r5, r6, lr}
 8000b56:	4d37      	ldr	r5, [pc, #220]	@ (8000c34 <DMA1_Stream0_IRQHandler+0xe0>)
 8000b58:	4c37      	ldr	r4, [pc, #220]	@ (8000c38 <DMA1_Stream0_IRQHandler+0xe4>)
 8000b5a:	682b      	ldr	r3, [r5, #0]
 8000b5c:	6023      	str	r3, [r4, #0]
 8000b5e:	6823      	ldr	r3, [r4, #0]
 8000b60:	07db      	lsls	r3, r3, #31
 8000b62:	d50b      	bpl.n	8000b7c <DMA1_Stream0_IRQHandler+0x28>
 8000b64:	4b35      	ldr	r3, [pc, #212]	@ (8000c3c <DMA1_Stream0_IRQHandler+0xe8>)
 8000b66:	681b      	ldr	r3, [r3, #0]
 8000b68:	69da      	ldr	r2, [r3, #28]
 8000b6a:	0616      	lsls	r6, r2, #24
 8000b6c:	d506      	bpl.n	8000b7c <DMA1_Stream0_IRQHandler+0x28>
 8000b6e:	6bdb      	ldr	r3, [r3, #60]	@ 0x3c
 8000b70:	b123      	cbz	r3, 8000b7c <DMA1_Stream0_IRQHandler+0x28>
 8000b72:	4798      	blx	r3
 8000b74:	68ab      	ldr	r3, [r5, #8]
 8000b76:	f043 0301 	orr.w	r3, r3, #1
 8000b7a:	60ab      	str	r3, [r5, #8]
 8000b7c:	6823      	ldr	r3, [r4, #0]
 8000b7e:	075d      	lsls	r5, r3, #29
 8000b80:	d50c      	bpl.n	8000b9c <DMA1_Stream0_IRQHandler+0x48>
 8000b82:	4b2e      	ldr	r3, [pc, #184]	@ (8000c3c <DMA1_Stream0_IRQHandler+0xe8>)
 8000b84:	681b      	ldr	r3, [r3, #0]
 8000b86:	69da      	ldr	r2, [r3, #28]
 8000b88:	0790      	lsls	r0, r2, #30
 8000b8a:	d507      	bpl.n	8000b9c <DMA1_Stream0_IRQHandler+0x48>
 8000b8c:	6c1b      	ldr	r3, [r3, #64]	@ 0x40
 8000b8e:	b12b      	cbz	r3, 8000b9c <DMA1_Stream0_IRQHandler+0x48>
 8000b90:	4798      	blx	r3
 8000b92:	4a28      	ldr	r2, [pc, #160]	@ (8000c34 <DMA1_Stream0_IRQHandler+0xe0>)
 8000b94:	6893      	ldr	r3, [r2, #8]
 8000b96:	f043 0304 	orr.w	r3, r3, #4
 8000b9a:	6093      	str	r3, [r2, #8]
 8000b9c:	6823      	ldr	r3, [r4, #0]
 8000b9e:	0719      	lsls	r1, r3, #28
 8000ba0:	d50c      	bpl.n	8000bbc <DMA1_Stream0_IRQHandler+0x68>
 8000ba2:	4b26      	ldr	r3, [pc, #152]	@ (8000c3c <DMA1_Stream0_IRQHandler+0xe8>)
 8000ba4:	681b      	ldr	r3, [r3, #0]
 8000ba6:	69da      	ldr	r2, [r3, #28]
 8000ba8:	0752      	lsls	r2, r2, #29
 8000baa:	d507      	bpl.n	8000bbc <DMA1_Stream0_IRQHandler+0x68>
 8000bac:	6c5b      	ldr	r3, [r3, #68]	@ 0x44
 8000bae:	b12b      	cbz	r3, 8000bbc <DMA1_Stream0_IRQHandler+0x68>
 8000bb0:	4798      	blx	r3
 8000bb2:	4a20      	ldr	r2, [pc, #128]	@ (8000c34 <DMA1_Stream0_IRQHandler+0xe0>)
 8000bb4:	6893      	ldr	r3, [r2, #8]
 8000bb6:	f043 0308 	orr.w	r3, r3, #8
 8000bba:	6093      	str	r3, [r2, #8]
 8000bbc:	6823      	ldr	r3, [r4, #0]
 8000bbe:	06db      	lsls	r3, r3, #27
 8000bc0:	d518      	bpl.n	8000bf4 <DMA1_Stream0_IRQHandler+0xa0>
 8000bc2:	4d1e      	ldr	r5, [pc, #120]	@ (8000c3c <DMA1_Stream0_IRQHandler+0xe8>)
 8000bc4:	682b      	ldr	r3, [r5, #0]
 8000bc6:	69da      	ldr	r2, [r3, #28]
 8000bc8:	0716      	lsls	r6, r2, #28
 8000bca:	d513      	bpl.n	8000bf4 <DMA1_Stream0_IRQHandler+0xa0>
 8000bcc:	6c9b      	ldr	r3, [r3, #72]	@ 0x48
 8000bce:	b18b      	cbz	r3, 8000bf4 <DMA1_Stream0_IRQHandler+0xa0>
 8000bd0:	4798      	blx	r3
 8000bd2:	4a18      	ldr	r2, [pc, #96]	@ (8000c34 <DMA1_Stream0_IRQHandler+0xe0>)
 8000bd4:	6893      	ldr	r3, [r2, #8]
 8000bd6:	f043 0310 	orr.w	r3, r3, #16
 8000bda:	6093      	str	r3, [r2, #8]
 8000bdc:	682b      	ldr	r3, [r5, #0]
 8000bde:	6b9a      	ldr	r2, [r3, #56]	@ 0x38
 8000be0:	f5b2 2f80 	cmp.w	r2, #262144	@ 0x40000
 8000be4:	d106      	bne.n	8000bf4 <DMA1_Stream0_IRQHandler+0xa0>
 8000be6:	685a      	ldr	r2, [r3, #4]
 8000be8:	6812      	ldr	r2, [r2, #0]
 8000bea:	0355      	lsls	r5, r2, #13
 8000bec:	bf4c      	ite	mi
 8000bee:	6d1b      	ldrmi	r3, [r3, #80]	@ 0x50
 8000bf0:	6d5b      	ldrpl	r3, [r3, #84]	@ 0x54
 8000bf2:	4798      	blx	r3
 8000bf4:	6823      	ldr	r3, [r4, #0]
 8000bf6:	0698      	lsls	r0, r3, #26
 8000bf8:	d51b      	bpl.n	8000c32 <DMA1_Stream0_IRQHandler+0xde>
 8000bfa:	4c10      	ldr	r4, [pc, #64]	@ (8000c3c <DMA1_Stream0_IRQHandler+0xe8>)
 8000bfc:	6823      	ldr	r3, [r4, #0]
 8000bfe:	69da      	ldr	r2, [r3, #28]
 8000c00:	06d1      	lsls	r1, r2, #27
 8000c02:	d516      	bpl.n	8000c32 <DMA1_Stream0_IRQHandler+0xde>
 8000c04:	6cda      	ldr	r2, [r3, #76]	@ 0x4c
 8000c06:	b1a2      	cbz	r2, 8000c32 <DMA1_Stream0_IRQHandler+0xde>
 8000c08:	6c9b      	ldr	r3, [r3, #72]	@ 0x48
 8000c0a:	4798      	blx	r3
 8000c0c:	4a09      	ldr	r2, [pc, #36]	@ (8000c34 <DMA1_Stream0_IRQHandler+0xe0>)
 8000c0e:	6893      	ldr	r3, [r2, #8]
 8000c10:	f043 0320 	orr.w	r3, r3, #32
 8000c14:	6093      	str	r3, [r2, #8]
 8000c16:	6823      	ldr	r3, [r4, #0]
 8000c18:	6b9a      	ldr	r2, [r3, #56]	@ 0x38
 8000c1a:	f5b2 2f80 	cmp.w	r2, #262144	@ 0x40000
 8000c1e:	d108      	bne.n	8000c32 <DMA1_Stream0_IRQHandler+0xde>
 8000c20:	685a      	ldr	r2, [r3, #4]
 8000c22:	6812      	ldr	r2, [r2, #0]
 8000c24:	0352      	lsls	r2, r2, #13
 8000c26:	e8bd 4070 	ldmia.w	sp!, {r4, r5, r6, lr}
 8000c2a:	bf4c      	ite	mi
 8000c2c:	6d1b      	ldrmi	r3, [r3, #80]	@ 0x50
 8000c2e:	6d5b      	ldrpl	r3, [r3, #84]	@ 0x54
 8000c30:	4718      	bx	r3
 8000c32:	bd70      	pop	{r4, r5, r6, pc}
 8000c34:	40026000 	.word	0x40026000
 8000c38:	20000024 	.word	0x20000024
 8000c3c:	20000064 	.word	0x20000064

08000c40 <DMA1_Stream1_IRQHandler>:
 8000c40:	b570      	push	{r4, r5, r6, lr}
 8000c42:	4d37      	ldr	r5, [pc, #220]	@ (8000d20 <DMA1_Stream1_IRQHandler+0xe0>)
 8000c44:	4c37      	ldr	r4, [pc, #220]	@ (8000d24 <DMA1_Stream1_IRQHandler+0xe4>)
 8000c46:	682b      	ldr	r3, [r5, #0]
 8000c48:	6023      	str	r3, [r4, #0]
 8000c4a:	6823      	ldr	r3, [r4, #0]
 8000c4c:	065b      	lsls	r3, r3, #25
 8000c4e:	d50b      	bpl.n	8000c68 <DMA1_Stream1_IRQHandler+0x28>
 8000c50:	4b35      	ldr	r3, [pc, #212]	@ (8000d28 <DMA1_Stream1_IRQHandler+0xe8>)
 8000c52:	681b      	ldr	r3, [r3, #0]
 8000c54:	69da      	ldr	r2, [r3, #28]
 8000c56:	0616      	lsls	r6, r2, #24
 8000c58:	d506      	bpl.n	8000c68 <DMA1_Stream1_IRQHandler+0x28>
 8000c5a:	6bdb      	ldr	r3, [r3, #60]	@ 0x3c
 8000c5c:	b123      	cbz	r3, 8000c68 <DMA1_Stream1_IRQHandler+0x28>
 8000c5e:	4798      	blx	r3
 8000c60:	68ab      	ldr	r3, [r5, #8]
 8000c62:	f043 0340 	orr.w	r3, r3, #64	@ 0x40
 8000c66:	60ab      	str	r3, [r5, #8]
 8000c68:	6823      	ldr	r3, [r4, #0]
 8000c6a:	05dd      	lsls	r5, r3, #23
 8000c6c:	d50c      	bpl.n	8000c88 <DMA1_Stream1_IRQHandler+0x48>
 8000c6e:	4b2e      	ldr	r3, [pc, #184]	@ (8000d28 <DMA1_Stream1_IRQHandler+0xe8>)
 8000c70:	681b      	ldr	r3, [r3, #0]
 8000c72:	69da      	ldr	r2, [r3, #28]
 8000c74:	0790      	lsls	r0, r2, #30
 8000c76:	d507      	bpl.n	8000c88 <DMA1_Stream1_IRQHandler+0x48>
 8000c78:	6c1b      	ldr	r3, [r3, #64]	@ 0x40
 8000c7a:	b12b      	cbz	r3, 8000c88 <DMA1_Stream1_IRQHandler+0x48>
 8000c7c:	4798      	blx	r3
 8000c7e:	4a28      	ldr	r2, [pc, #160]	@ (8000d20 <DMA1_Stream1_IRQHandler+0xe0>)
 8000c80:	6893      	ldr	r3, [r2, #8]
 8000c82:	f443 7380 	orr.w	r3, r3, #256	@ 0x100
 8000c86:	6093      	str	r3, [r2, #8]
 8000c88:	6823      	ldr	r3, [r4, #0]
 8000c8a:	0599      	lsls	r1, r3, #22
 8000c8c:	d50c      	bpl.n	8000ca8 <DMA1_Stream1_IRQHandler+0x68>
 8000c8e:	4b26      	ldr	r3, [pc, #152]	@ (8000d28 <DMA1_Stream1_IRQHandler+0xe8>)
 8000c90:	681b      	ldr	r3, [r3, #0]
 8000c92:	69da      	ldr	r2, [r3, #28]
 8000c94:	0752      	lsls	r2, r2, #29
 8000c96:	d507      	bpl.n	8000ca8 <DMA1_Stream1_IRQHandler+0x68>
 8000c98:	6c5b      	ldr	r3, [r3, #68]	@ 0x44
 8000c9a:	b12b      	cbz	r3, 8000ca8 <DMA1_Stream1_IRQHandler+0x68>
 8000c9c:	4798      	blx	r3
 8000c9e:	4a20      	ldr	r2, [pc, #128]	@ (8000d20 <DMA1_Stream1_IRQHandler+0xe0>)
 8000ca0:	6893      	ldr	r3, [r2, #8]
 8000ca2:	f443 7300 	orr.w	r3, r3, #512	@ 0x200
 8000ca6:	6093      	str	r3, [r2, #8]
 8000ca8:	6823      	ldr	r3, [r4, #0]
 8000caa:	055b      	lsls	r3, r3, #21
 8000cac:	d518      	bpl.n	8000ce0 <DMA1_Stream1_IRQHandler+0xa0>
 8000cae:	4d1e      	ldr	r5, [pc, #120]	@ (8000d28 <DMA1_Stream1_IRQHandler+0xe8>)
 8000cb0:	682b      	ldr	r3, [r5, #0]
 8000cb2:	69da      	ldr	r2, [r3, #28]
 8000cb4:	0716      	lsls	r6, r2, #28
 8000cb6:	d513      	bpl.n	8000ce0 <DMA1_Stream1_IRQHandler+0xa0>
 8000cb8:	6c9b      	ldr	r3, [r3, #72]	@ 0x48
 8000cba:	b18b      	cbz	r3, 8000ce0 <DMA1_Stream1_IRQHandler+0xa0>
 8000cbc:	4798      	blx	r3
 8000cbe:	4a18      	ldr	r2, [pc, #96]	@ (8000d20 <DMA1_Stream1_IRQHandler+0xe0>)
 8000cc0:	6893      	ldr	r3, [r2, #8]
 8000cc2:	f443 6380 	orr.w	r3, r3, #1024	@ 0x400
 8000cc6:	6093      	str	r3, [r2, #8]
 8000cc8:	682b      	ldr	r3, [r5, #0]
 8000cca:	6b9a      	ldr	r2, [r3, #56]	@ 0x38
 8000ccc:	f5b2 2f80 	cmp.w	r2, #262144	@ 0x40000
 8000cd0:	d106      	bne.n	8000ce0 <DMA1_Stream1_IRQHandler+0xa0>
 8000cd2:	685a      	ldr	r2, [r3, #4]
 8000cd4:	6812      	ldr	r2, [r2, #0]
 8000cd6:	0355      	lsls	r5, r2, #13
 8000cd8:	bf4c      	ite	mi
 8000cda:	6d1b      	ldrmi	r3, [r3, #80]	@ 0x50
 8000cdc:	6d5b      	ldrpl	r3, [r3, #84]	@ 0x54
 8000cde:	4798      	blx	r3
 8000ce0:	6823      	ldr	r3, [r4, #0]
 8000ce2:	0518      	lsls	r0, r3, #20
 8000ce4:	d51b      	bpl.n	8000d1e <DMA1_Stream1_IRQHandler+0xde>
 8000ce6:	4c10      	ldr	r4, [pc, #64]	@ (8000d28 <DMA1_Stream1_IRQHandler+0xe8>)
 8000ce8:	6823      	ldr	r3, [r4, #0]
 8000cea:	69da      	ldr	r2, [r3, #28]
 8000cec:	06d1      	lsls	r1, r2, #27
 8000cee:	d516      	bpl.n	8000d1e <DMA1_Stream1_IRQHandler+0xde>
 8000cf0:	6cda      	ldr	r2, [r3, #76]	@ 0x4c
 8000cf2:	b1a2      	cbz	r2, 8000d1e <DMA1_Stream1_IRQHandler+0xde>
 8000cf4:	6c9b      	ldr	r3, [r3, #72]	@ 0x48
 8000cf6:	4798      	blx	r3
 8000cf8:	4a09      	ldr	r2, [pc, #36]	@ (8000d20 <DMA1_Stream1_IRQHandler+0xe0>)
 8000cfa:	6893      	ldr	r3, [r2, #8]
 8000cfc:	f443 6300 	orr.w	r3, r3, #2048	@ 0x800
 8000d00:	6093      	str	r3, [r2, #8]
 8000d02:	6823      	ldr	r3, [r4, #0]
 8000d04:	6b9a      	ldr	r2, [r3, #56]	@ 0x38
 8000d06:	f5b2 2f80 	cmp.w	r2, #262144	@ 0x40000
 8000d0a:	d108      	bne.n	8000d1e <DMA1_Stream1_IRQHandler+0xde>
 8000d0c:	685a      	ldr	r2, [r3, #4]
 8000d0e:	6812      	ldr	r2, [r2, #0]
 8000d10:	0352      	lsls	r2, r2, #13
 8000d12:	e8bd 4070 	ldmia.w	sp!, {r4, r5, r6, lr}
 8000d16:	bf4c      	ite	mi
 8000d18:	6d1b      	ldrmi	r3, [r3, #80]	@ 0x50
 8000d1a:	6d5b      	ldrpl	r3, [r3, #84]	@ 0x54
 8000d1c:	4718      	bx	r3
 8000d1e:	bd70      	pop	{r4, r5, r6, pc}
 8000d20:	40026000 	.word	0x40026000
 8000d24:	20000024 	.word	0x20000024
 8000d28:	20000060 	.word	0x20000060

08000d2c <DMA1_Stream2_IRQHandler>:
 8000d2c:	b570      	push	{r4, r5, r6, lr}
 8000d2e:	4d37      	ldr	r5, [pc, #220]	@ (8000e0c <DMA1_Stream2_IRQHandler+0xe0>)
 8000d30:	4c37      	ldr	r4, [pc, #220]	@ (8000e10 <DMA1_Stream2_IRQHandler+0xe4>)
 8000d32:	682b      	ldr	r3, [r5, #0]
 8000d34:	6023      	str	r3, [r4, #0]
 8000d36:	6823      	ldr	r3, [r4, #0]
 8000d38:	03db      	lsls	r3, r3, #15
 8000d3a:	d50b      	bpl.n	8000d54 <DMA1_Stream2_IRQHandler+0x28>
 8000d3c:	4b35      	ldr	r3, [pc, #212]	@ (8000e14 <DMA1_Stream2_IRQHandler+0xe8>)
 8000d3e:	681b      	ldr	r3, [r3, #0]
 8000d40:	69da      	ldr	r2, [r3, #28]
 8000d42:	0616      	lsls	r6, r2, #24
 8000d44:	d506      	bpl.n	8000d54 <DMA1_Stream2_IRQHandler+0x28>
 8000d46:	6bdb      	ldr	r3, [r3, #60]	@ 0x3c
 8000d48:	b123      	cbz	r3, 8000d54 <DMA1_Stream2_IRQHandler+0x28>
 8000d4a:	4798      	blx	r3
 8000d4c:	68ab      	ldr	r3, [r5, #8]
 8000d4e:	f443 3380 	orr.w	r3, r3, #65536	@ 0x10000
 8000d52:	60ab      	str	r3, [r5, #8]
 8000d54:	6823      	ldr	r3, [r4, #0]
 8000d56:	035d      	lsls	r5, r3, #13
 8000d58:	d50c      	bpl.n	8000d74 <DMA1_Stream2_IRQHandler+0x48>
 8000d5a:	4b2e      	ldr	r3, [pc, #184]	@ (8000e14 <DMA1_Stream2_IRQHandler+0xe8>)
 8000d5c:	681b      	ldr	r3, [r3, #0]
 8000d5e:	69da      	ldr	r2, [r3, #28]
 8000d60:	0790      	lsls	r0, r2, #30
 8000d62:	d507      	bpl.n	8000d74 <DMA1_Stream2_IRQHandler+0x48>
 8000d64:	6c1b      	ldr	r3, [r3, #64]	@ 0x40
 8000d66:	b12b      	cbz	r3, 8000d74 <DMA1_Stream2_IRQHandler+0x48>
 8000d68:	4798      	blx	r3
 8000d6a:	4a28      	ldr	r2, [pc, #160]	@ (8000e0c <DMA1_Stream2_IRQHandler+0xe0>)
 8000d6c:	6893      	ldr	r3, [r2, #8]
 8000d6e:	f443 2380 	orr.w	r3, r3, #262144	@ 0x40000
 8000d72:	6093      	str	r3, [r2, #8]
 8000d74:	6823      	ldr	r3, [r4, #0]
 8000d76:	0319      	lsls	r1, r3, #12
 8000d78:	d50c      	bpl.n	8000d94 <DMA1_Stream2_IRQHandler+0x68>
 8000d7a:	4b26      	ldr	r3, [pc, #152]	@ (8000e14 <DMA1_Stream2_IRQHandler+0xe8>)
 8000d7c:	681b      	ldr	r3, [r3, #0]
 8000d7e:	69da      	ldr	r2, [r3, #28]
 8000d80:	0752      	lsls	r2, r2, #29
 8000d82:	d507      	bpl.n	8000d94 <DMA1_Stream2_IRQHandler+0x68>
 8000d84:	6c5b      	ldr	r3, [r3, #68]	@ 0x44
 8000d86:	b12b      	cbz	r3, 8000d94 <DMA1_Stream2_IRQHandler+0x68>
 8000d88:	4798      	blx	r3
 8000d8a:	4a20      	ldr	r2, [pc, #128]	@ (8000e0c <DMA1_Stream2_IRQHandler+0xe0>)
 8000d8c:	6893      	ldr	r3, [r2, #8]
 8000d8e:	f443 2300 	orr.w	r3, r3, #524288	@ 0x80000
 8000d92:	6093      	str	r3, [r2, #8]
 8000d94:	6823      	ldr	r3, [r4, #0]
 8000d96:	02db      	lsls	r3, r3, #11
 8000d98:	d518      	bpl.n	8000dcc <DMA1_Stream2_IRQHandler+0xa0>
 8000d9a:	4d1e      	ldr	r5, [pc, #120]	@ (8000e14 <DMA1_Stream2_IRQHandler+0xe8>)
 8000d9c:	682b      	ldr	r3, [r5, #0]
 8000d9e:	69da      	ldr	r2, [r3, #28]
 8000da0:	0716      	lsls	r6, r2, #28
 8000da2:	d513      	bpl.n	8000dcc <DMA1_Stream2_IRQHandler+0xa0>
 8000da4:	6c9b      	ldr	r3, [r3, #72]	@ 0x48
 8000da6:	b18b      	cbz	r3, 8000dcc <DMA1_Stream2_IRQHandler+0xa0>
 8000da8:	4798      	blx	r3
 8000daa:	4a18      	ldr	r2, [pc, #96]	@ (8000e0c <DMA1_Stream2_IRQHandler+0xe0>)
 8000dac:	6893      	ldr	r3, [r2, #8]
 8000dae:	f443 1380 	orr.w	r3, r3, #1048576	@ 0x100000
 8000db2:	6093      	str	r3, [r2, #8]
 8000db4:	682b      	ldr	r3, [r5, #0]
 8000db6:	6b9a      	ldr	r2, [r3, #56]	@ 0x38
 8000db8:	f5b2 2f80 	cmp.w	r2, #262144	@ 0x40000
 8000dbc:	d106      	bne.n	8000dcc <DMA1_Stream2_IRQHandler+0xa0>
 8000dbe:	685a      	ldr	r2, [r3, #4]
 8000dc0:	6812      	ldr	r2, [r2, #0]
 8000dc2:	0355      	lsls	r5, r2, #13
 8000dc4:	bf4c      	ite	mi
 8000dc6:	6d1b      	ldrmi	r3, [r3, #80]	@ 0x50
 8000dc8:	6d5b      	ldrpl	r3, [r3, #84]	@ 0x54
 8000dca:	4798      	blx	r3
 8000dcc:	6823      	ldr	r3, [r4, #0]
 8000dce:	0298      	lsls	r0, r3, #10
 8000dd0:	d51b      	bpl.n	8000e0a <DMA1_Stream2_IRQHandler+0xde>
 8000dd2:	4c10      	ldr	r4, [pc, #64]	@ (8000e14 <DMA1_Stream2_IRQHandler+0xe8>)
 8000dd4:	6823      	ldr	r3, [r4, #0]
 8000dd6:	69da      	ldr	r2, [r3, #28]
 8000dd8:	0711      	lsls	r1, r2, #28
 8000dda:	d516      	bpl.n	8000e0a <DMA1_Stream2_IRQHandler+0xde>
 8000ddc:	6cda      	ldr	r2, [r3, #76]	@ 0x4c
 8000dde:	b1a2      	cbz	r2, 8000e0a <DMA1_Stream2_IRQHandler+0xde>
 8000de0:	6c9b      	ldr	r3, [r3, #72]	@ 0x48
 8000de2:	4798      	blx	r3
 8000de4:	4a09      	ldr	r2, [pc, #36]	@ (8000e0c <DMA1_Stream2_IRQHandler+0xe0>)
 8000de6:	6893      	ldr	r3, [r2, #8]
 8000de8:	f443 1300 	orr.w	r3, r3, #2097152	@ 0x200000
 8000dec:	6093      	str	r3, [r2, #8]
 8000dee:	6823      	ldr	r3, [r4, #0]
 8000df0:	6b9a      	ldr	r2, [r3, #56]	@ 0x38
 8000df2:	f5b2 2f80 	cmp.w	r2, #262144	@ 0x40000
 8000df6:	d108      	bne.n	8000e0a <DMA1_Stream2_IRQHandler+0xde>
 8000df8:	685a      	ldr	r2, [r3, #4]
 8000dfa:	6812      	ldr	r2, [r2, #0]
 8000dfc:	0352      	lsls	r2, r2, #13
 8000dfe:	e8bd 4070 	ldmia.w	sp!, {r4, r5, r6, lr}
 8000e02:	bf4c      	ite	mi
 8000e04:	6d1b      	ldrmi	r3, [r3, #80]	@ 0x50
 8000e06:	6d5b      	ldrpl	r3, [r3, #84]	@ 0x54
 8000e08:	4718      	bx	r3
 8000e0a:	bd70      	pop	{r4, r5, r6, pc}
 8000e0c:	40026000 	.word	0x40026000
 8000e10:	20000024 	.word	0x20000024
 8000e14:	2000005c 	.word	0x2000005c

08000e18 <DMA1_Stream3_IRQHandler>:
 8000e18:	b570      	push	{r4, r5, r6, lr}
 8000e1a:	4d37      	ldr	r5, [pc, #220]	@ (8000ef8 <DMA1_Stream3_IRQHandler+0xe0>)
 8000e1c:	4c37      	ldr	r4, [pc, #220]	@ (8000efc <DMA1_Stream3_IRQHandler+0xe4>)
 8000e1e:	682b      	ldr	r3, [r5, #0]
 8000e20:	6023      	str	r3, [r4, #0]
 8000e22:	6823      	ldr	r3, [r4, #0]
 8000e24:	025b      	lsls	r3, r3, #9
 8000e26:	d50b      	bpl.n	8000e40 <DMA1_Stream3_IRQHandler+0x28>
 8000e28:	4b35      	ldr	r3, [pc, #212]	@ (8000f00 <DMA1_Stream3_IRQHandler+0xe8>)
 8000e2a:	681b      	ldr	r3, [r3, #0]
 8000e2c:	69da      	ldr	r2, [r3, #28]
 8000e2e:	0616      	lsls	r6, r2, #24
 8000e30:	d506      	bpl.n	8000e40 <DMA1_Stream3_IRQHandler+0x28>
 8000e32:	6bdb      	ldr	r3, [r3, #60]	@ 0x3c
 8000e34:	b123      	cbz	r3, 8000e40 <DMA1_Stream3_IRQHandler+0x28>
 8000e36:	4798      	blx	r3
 8000e38:	68ab      	ldr	r3, [r5, #8]
 8000e3a:	f443 0380 	orr.w	r3, r3, #4194304	@ 0x400000
 8000e3e:	60ab      	str	r3, [r5, #8]
 8000e40:	6823      	ldr	r3, [r4, #0]
 8000e42:	01dd      	lsls	r5, r3, #7
 8000e44:	d50c      	bpl.n	8000e60 <DMA1_Stream3_IRQHandler+0x48>
 8000e46:	4b2e      	ldr	r3, [pc, #184]	@ (8000f00 <DMA1_Stream3_IRQHandler+0xe8>)
 8000e48:	681b      	ldr	r3, [r3, #0]
 8000e4a:	69da      	ldr	r2, [r3, #28]
 8000e4c:	0790      	lsls	r0, r2, #30
 8000e4e:	d507      	bpl.n	8000e60 <DMA1_Stream3_IRQHandler+0x48>
 8000e50:	6c1b      	ldr	r3, [r3, #64]	@ 0x40
 8000e52:	b12b      	cbz	r3, 8000e60 <DMA1_Stream3_IRQHandler+0x48>
 8000e54:	4798      	blx	r3
 8000e56:	4a28      	ldr	r2, [pc, #160]	@ (8000ef8 <DMA1_Stream3_IRQHandler+0xe0>)
 8000e58:	6893      	ldr	r3, [r2, #8]
 8000e5a:	f043 7380 	orr.w	r3, r3, #16777216	@ 0x1000000
 8000e5e:	6093      	str	r3, [r2, #8]
 8000e60:	6823      	ldr	r3, [r4, #0]
 8000e62:	0199      	lsls	r1, r3, #6
 8000e64:	d50c      	bpl.n	8000e80 <DMA1_Stream3_IRQHandler+0x68>
 8000e66:	4b26      	ldr	r3, [pc, #152]	@ (8000f00 <DMA1_Stream3_IRQHandler+0xe8>)
 8000e68:	681b      	ldr	r3, [r3, #0]
 8000e6a:	69da      	ldr	r2, [r3, #28]
 8000e6c:	0752      	lsls	r2, r2, #29
 8000e6e:	d507      	bpl.n	8000e80 <DMA1_Stream3_IRQHandler+0x68>
 8000e70:	6c5b      	ldr	r3, [r3, #68]	@ 0x44
 8000e72:	b12b      	cbz	r3, 8000e80 <DMA1_Stream3_IRQHandler+0x68>
 8000e74:	4798      	blx	r3
 8000e76:	4a20      	ldr	r2, [pc, #128]	@ (8000ef8 <DMA1_Stream3_IRQHandler+0xe0>)
 8000e78:	6893      	ldr	r3, [r2, #8]
 8000e7a:	f043 7300 	orr.w	r3, r3, #33554432	@ 0x2000000
 8000e7e:	6093      	str	r3, [r2, #8]
 8000e80:	6823      	ldr	r3, [r4, #0]
 8000e82:	015b      	lsls	r3, r3, #5
 8000e84:	d518      	bpl.n	8000eb8 <DMA1_Stream3_IRQHandler+0xa0>
 8000e86:	4d1e      	ldr	r5, [pc, #120]	@ (8000f00 <DMA1_Stream3_IRQHandler+0xe8>)
 8000e88:	682b      	ldr	r3, [r5, #0]
 8000e8a:	69da      	ldr	r2, [r3, #28]
 8000e8c:	0716      	lsls	r6, r2, #28
 8000e8e:	d513      	bpl.n	8000eb8 <DMA1_Stream3_IRQHandler+0xa0>
 8000e90:	6c9b      	ldr	r3, [r3, #72]	@ 0x48
 8000e92:	b18b      	cbz	r3, 8000eb8 <DMA1_Stream3_IRQHandler+0xa0>
 8000e94:	4798      	blx	r3
 8000e96:	4a18      	ldr	r2, [pc, #96]	@ (8000ef8 <DMA1_Stream3_IRQHandler+0xe0>)
 8000e98:	6893      	ldr	r3, [r2, #8]
 8000e9a:	f043 6380 	orr.w	r3, r3, #67108864	@ 0x4000000
 8000e9e:	6093      	str	r3, [r2, #8]
 8000ea0:	682b      	ldr	r3, [r5, #0]
 8000ea2:	6b9a      	ldr	r2, [r3, #56]	@ 0x38
 8000ea4:	f5b2 2f80 	cmp.w	r2, #262144	@ 0x40000
 8000ea8:	d106      	bne.n	8000eb8 <DMA1_Stream3_IRQHandler+0xa0>
 8000eaa:	685a      	ldr	r2, [r3, #4]
 8000eac:	6812      	ldr	r2, [r2, #0]
 8000eae:	0355      	lsls	r5, r2, #13
 8000eb0:	bf4c      	ite	mi
 8000eb2:	6d1b      	ldrmi	r3, [r3, #80]	@ 0x50
 8000eb4:	6d5b      	ldrpl	r3, [r3, #84]	@ 0x54
 8000eb6:	4798      	blx	r3
 8000eb8:	6823      	ldr	r3, [r4, #0]
 8000eba:	0118      	lsls	r0, r3, #4
 8000ebc:	d51b      	bpl.n	8000ef6 <DMA1_Stream3_IRQHandler+0xde>
 8000ebe:	4c10      	ldr	r4, [pc, #64]	@ (8000f00 <DMA1_Stream3_IRQHandler+0xe8>)
 8000ec0:	6823      	ldr	r3, [r4, #0]
 8000ec2:	69da      	ldr	r2, [r3, #28]
 8000ec4:	06d1      	lsls	r1, r2, #27
 8000ec6:	d516      	bpl.n	8000ef6 <DMA1_Stream3_IRQHandler+0xde>
 8000ec8:	6cda      	ldr	r2, [r3, #76]	@ 0x4c
 8000eca:	b1a2      	cbz	r2, 8000ef6 <DMA1_Stream3_IRQHandler+0xde>
 8000ecc:	6c9b      	ldr	r3, [r3, #72]	@ 0x48
 8000ece:	4798      	blx	r3
 8000ed0:	4a09      	ldr	r2, [pc, #36]	@ (8000ef8 <DMA1_Stream3_IRQHandler+0xe0>)
 8000ed2:	6893      	ldr	r3, [r2, #8]
 8000ed4:	f043 6300 	orr.w	r3, r3, #134217728	@ 0x8000000
 8000ed8:	6093      	str	r3, [r2, #8]
 8000eda:	6823      	ldr	r3, [r4, #0]
 8000edc:	6b9a      	ldr	r2, [r3, #56]	@ 0x38
 8000ede:	f5b2 2f80 	cmp.w	r2, #262144	@ 0x40000
 8000ee2:	d108      	bne.n	8000ef6 <DMA1_Stream3_IRQHandler+0xde>
 8000ee4:	685a      	ldr	r2, [r3, #4]
 8000ee6:	6812      	ldr	r2, [r2, #0]
 8000ee8:	0352      	lsls	r2, r2, #13
 8000eea:	e8bd 4070 	ldmia.w	sp!, {r4, r5, r6, lr}
 8000eee:	bf4c      	ite	mi
 8000ef0:	6d1b      	ldrmi	r3, [r3, #80]	@ 0x50
 8000ef2:	6d5b      	ldrpl	r3, [r3, #84]	@ 0x54
 8000ef4:	4718      	bx	r3
 8000ef6:	bd70      	pop	{r4, r5, r6, pc}
 8000ef8:	40026000 	.word	0x40026000
 8000efc:	20000024 	.word	0x20000024
 8000f00:	20000058 	.word	0x20000058

08000f04 <DMA1_Stream4_IRQHandler>:
 8000f04:	b570      	push	{r4, r5, r6, lr}
 8000f06:	4d30      	ldr	r5, [pc, #192]	@ (8000fc8 <DMA1_Stream4_IRQHandler+0xc4>)
 8000f08:	4c30      	ldr	r4, [pc, #192]	@ (8000fcc <DMA1_Stream4_IRQHandler+0xc8>)
 8000f0a:	686b      	ldr	r3, [r5, #4]
 8000f0c:	6023      	str	r3, [r4, #0]
 8000f0e:	6823      	ldr	r3, [r4, #0]
 8000f10:	07da      	lsls	r2, r3, #31
 8000f12:	d508      	bpl.n	8000f26 <DMA1_Stream4_IRQHandler+0x22>
 8000f14:	4b2e      	ldr	r3, [pc, #184]	@ (8000fd0 <DMA1_Stream4_IRQHandler+0xcc>)
 8000f16:	681b      	ldr	r3, [r3, #0]
 8000f18:	6bdb      	ldr	r3, [r3, #60]	@ 0x3c
 8000f1a:	b123      	cbz	r3, 8000f26 <DMA1_Stream4_IRQHandler+0x22>
 8000f1c:	4798      	blx	r3
 8000f1e:	68ab      	ldr	r3, [r5, #8]
 8000f20:	f043 0340 	orr.w	r3, r3, #64	@ 0x40
 8000f24:	60ab      	str	r3, [r5, #8]
 8000f26:	6823      	ldr	r3, [r4, #0]
 8000f28:	075b      	lsls	r3, r3, #29
 8000f2a:	d509      	bpl.n	8000f40 <DMA1_Stream4_IRQHandler+0x3c>
 8000f2c:	4b28      	ldr	r3, [pc, #160]	@ (8000fd0 <DMA1_Stream4_IRQHandler+0xcc>)
 8000f2e:	681b      	ldr	r3, [r3, #0]
 8000f30:	6c1b      	ldr	r3, [r3, #64]	@ 0x40
 8000f32:	b12b      	cbz	r3, 8000f40 <DMA1_Stream4_IRQHandler+0x3c>
 8000f34:	4798      	blx	r3
 8000f36:	4a24      	ldr	r2, [pc, #144]	@ (8000fc8 <DMA1_Stream4_IRQHandler+0xc4>)
 8000f38:	68d3      	ldr	r3, [r2, #12]
 8000f3a:	f043 0304 	orr.w	r3, r3, #4
 8000f3e:	60d3      	str	r3, [r2, #12]
 8000f40:	6823      	ldr	r3, [r4, #0]
 8000f42:	071e      	lsls	r6, r3, #28
 8000f44:	d509      	bpl.n	8000f5a <DMA1_Stream4_IRQHandler+0x56>
 8000f46:	4b22      	ldr	r3, [pc, #136]	@ (8000fd0 <DMA1_Stream4_IRQHandler+0xcc>)
 8000f48:	681b      	ldr	r3, [r3, #0]
 8000f4a:	6c5b      	ldr	r3, [r3, #68]	@ 0x44
 8000f4c:	b12b      	cbz	r3, 8000f5a <DMA1_Stream4_IRQHandler+0x56>
 8000f4e:	4798      	blx	r3
 8000f50:	4a1d      	ldr	r2, [pc, #116]	@ (8000fc8 <DMA1_Stream4_IRQHandler+0xc4>)
 8000f52:	68d3      	ldr	r3, [r2, #12]
 8000f54:	f043 0308 	orr.w	r3, r3, #8
 8000f58:	60d3      	str	r3, [r2, #12]
 8000f5a:	6823      	ldr	r3, [r4, #0]
 8000f5c:	06dd      	lsls	r5, r3, #27
 8000f5e:	d515      	bpl.n	8000f8c <DMA1_Stream4_IRQHandler+0x88>
 8000f60:	4d1b      	ldr	r5, [pc, #108]	@ (8000fd0 <DMA1_Stream4_IRQHandler+0xcc>)
 8000f62:	682b      	ldr	r3, [r5, #0]
 8000f64:	6c9b      	ldr	r3, [r3, #72]	@ 0x48
 8000f66:	b18b      	cbz	r3, 8000f8c <DMA1_Stream4_IRQHandler+0x88>
 8000f68:	4798      	blx	r3
 8000f6a:	4a17      	ldr	r2, [pc, #92]	@ (8000fc8 <DMA1_Stream4_IRQHandler+0xc4>)
 8000f6c:	68d3      	ldr	r3, [r2, #12]
 8000f6e:	f043 0310 	orr.w	r3, r3, #16
 8000f72:	60d3      	str	r3, [r2, #12]
 8000f74:	682b      	ldr	r3, [r5, #0]
 8000f76:	6b9a      	ldr	r2, [r3, #56]	@ 0x38
 8000f78:	f5b2 2f80 	cmp.w	r2, #262144	@ 0x40000
 8000f7c:	d106      	bne.n	8000f8c <DMA1_Stream4_IRQHandler+0x88>
 8000f7e:	685a      	ldr	r2, [r3, #4]
 8000f80:	6812      	ldr	r2, [r2, #0]
 8000f82:	0350      	lsls	r0, r2, #13
 8000f84:	bf4c      	ite	mi
 8000f86:	6d1b      	ldrmi	r3, [r3, #80]	@ 0x50
 8000f88:	6d5b      	ldrpl	r3, [r3, #84]	@ 0x54
 8000f8a:	4798      	blx	r3
 8000f8c:	6823      	ldr	r3, [r4, #0]
 8000f8e:	0699      	lsls	r1, r3, #26
 8000f90:	d518      	bpl.n	8000fc4 <DMA1_Stream4_IRQHandler+0xc0>
 8000f92:	4c0f      	ldr	r4, [pc, #60]	@ (8000fd0 <DMA1_Stream4_IRQHandler+0xcc>)
 8000f94:	6823      	ldr	r3, [r4, #0]
 8000f96:	6cda      	ldr	r2, [r3, #76]	@ 0x4c
 8000f98:	b1a2      	cbz	r2, 8000fc4 <DMA1_Stream4_IRQHandler+0xc0>
 8000f9a:	6c9b      	ldr	r3, [r3, #72]	@ 0x48
 8000f9c:	4798      	blx	r3
 8000f9e:	4a0a      	ldr	r2, [pc, #40]	@ (8000fc8 <DMA1_Stream4_IRQHandler+0xc4>)
 8000fa0:	68d3      	ldr	r3, [r2, #12]
 8000fa2:	f043 0320 	orr.w	r3, r3, #32
 8000fa6:	60d3      	str	r3, [r2, #12]
 8000fa8:	6823      	ldr	r3, [r4, #0]
 8000faa:	6b9a      	ldr	r2, [r3, #56]	@ 0x38
 8000fac:	f5b2 2f80 	cmp.w	r2, #262144	@ 0x40000
 8000fb0:	d108      	bne.n	8000fc4 <DMA1_Stream4_IRQHandler+0xc0>
 8000fb2:	685a      	ldr	r2, [r3, #4]
 8000fb4:	6812      	ldr	r2, [r2, #0]
 8000fb6:	0352      	lsls	r2, r2, #13
 8000fb8:	e8bd 4070 	ldmia.w	sp!, {r4, r5, r6, lr}
 8000fbc:	bf4c      	ite	mi
 8000fbe:	6d1b      	ldrmi	r3, [r3, #80]	@ 0x50
 8000fc0:	6d5b      	ldrpl	r3, [r3, #84]	@ 0x54
 8000fc2:	4718      	bx	r3
 8000fc4:	bd70      	pop	{r4, r5, r6, pc}
 8000fc6:	bf00      	nop
 8000fc8:	40026000 	.word	0x40026000
 8000fcc:	20000020 	.word	0x20000020
 8000fd0:	20000054 	.word	0x20000054

08000fd4 <DMA1_Stream5_IRQHandler>:
 8000fd4:	b570      	push	{r4, r5, r6, lr}
 8000fd6:	4d30      	ldr	r5, [pc, #192]	@ (8001098 <DMA1_Stream5_IRQHandler+0xc4>)
 8000fd8:	4c30      	ldr	r4, [pc, #192]	@ (800109c <DMA1_Stream5_IRQHandler+0xc8>)
 8000fda:	686b      	ldr	r3, [r5, #4]
 8000fdc:	6023      	str	r3, [r4, #0]
 8000fde:	6823      	ldr	r3, [r4, #0]
 8000fe0:	065a      	lsls	r2, r3, #25
 8000fe2:	d508      	bpl.n	8000ff6 <DMA1_Stream5_IRQHandler+0x22>
 8000fe4:	4b2e      	ldr	r3, [pc, #184]	@ (80010a0 <DMA1_Stream5_IRQHandler+0xcc>)
 8000fe6:	681b      	ldr	r3, [r3, #0]
 8000fe8:	6bdb      	ldr	r3, [r3, #60]	@ 0x3c
 8000fea:	b123      	cbz	r3, 8000ff6 <DMA1_Stream5_IRQHandler+0x22>
 8000fec:	4798      	blx	r3
 8000fee:	68eb      	ldr	r3, [r5, #12]
 8000ff0:	f043 0340 	orr.w	r3, r3, #64	@ 0x40
 8000ff4:	60eb      	str	r3, [r5, #12]
 8000ff6:	6823      	ldr	r3, [r4, #0]
 8000ff8:	05db      	lsls	r3, r3, #23
 8000ffa:	d509      	bpl.n	8001010 <DMA1_Stream5_IRQHandler+0x3c>
 8000ffc:	4b28      	ldr	r3, [pc, #160]	@ (80010a0 <DMA1_Stream5_IRQHandler+0xcc>)
 8000ffe:	681b      	ldr	r3, [r3, #0]
 8001000:	6c1b      	ldr	r3, [r3, #64]	@ 0x40
 8001002:	b12b      	cbz	r3, 8001010 <DMA1_Stream5_IRQHandler+0x3c>
 8001004:	4798      	blx	r3
 8001006:	4a24      	ldr	r2, [pc, #144]	@ (8001098 <DMA1_Stream5_IRQHandler+0xc4>)
 8001008:	68d3      	ldr	r3, [r2, #12]
 800100a:	f443 7380 	orr.w	r3, r3, #256	@ 0x100
 800100e:	60d3      	str	r3, [r2, #12]
 8001010:	6823      	ldr	r3, [r4, #0]
 8001012:	059e      	lsls	r6, r3, #22
 8001014:	d509      	bpl.n	800102a <DMA1_Stream5_IRQHandler+0x56>
 8001016:	4b22      	ldr	r3, [pc, #136]	@ (80010a0 <DMA1_Stream5_IRQHandler+0xcc>)
 8001018:	681b      	ldr	r3, [r3, #0]
 800101a:	6c5b      	ldr	r3, [r3, #68]	@ 0x44
 800101c:	b12b      	cbz	r3, 800102a <DMA1_Stream5_IRQHandler+0x56>
 800101e:	4798      	blx	r3
 8001020:	4a1d      	ldr	r2, [pc, #116]	@ (8001098 <DMA1_Stream5_IRQHandler+0xc4>)
 8001022:	68d3      	ldr	r3, [r2, #12]
 8001024:	f443 7300 	orr.w	r3, r3, #512	@ 0x200
 8001028:	60d3      	str	r3, [r2, #12]
 800102a:	6823      	ldr	r3, [r4, #0]
 800102c:	055d      	lsls	r5, r3, #21
 800102e:	d515      	bpl.n	800105c <DMA1_Stream5_IRQHandler+0x88>
 8001030:	4d1b      	ldr	r5, [pc, #108]	@ (80010a0 <DMA1_Stream5_IRQHandler+0xcc>)
 8001032:	682b      	ldr	r3, [r5, #0]
 8001034:	6c9b      	ldr	r3, [r3, #72]	@ 0x48
 8001036:	b18b      	cbz	r3, 800105c <DMA1_Stream5_IRQHandler+0x88>
 8001038:	4798      	blx	r3
 800103a:	4a17      	ldr	r2, [pc, #92]	@ (8001098 <DMA1_Stream5_IRQHandler+0xc4>)
 800103c:	68d3      	ldr	r3, [r2, #12]
 800103e:	f443 6380 	orr.w	r3, r3, #1024	@ 0x400
 8001042:	60d3      	str	r3, [r2, #12]
 8001044:	682b      	ldr	r3, [r5, #0]
 8001046:	6b9a      	ldr	r2, [r3, #56]	@ 0x38
 8001048:	f5b2 2f80 	cmp.w	r2, #262144	@ 0x40000
 800104c:	d106      	bne.n	800105c <DMA1_Stream5_IRQHandler+0x88>
 800104e:	685a      	ldr	r2, [r3, #4]
 8001050:	6812      	ldr	r2, [r2, #0]
 8001052:	0350      	lsls	r0, r2, #13
 8001054:	bf4c      	ite	mi
 8001056:	6d1b      	ldrmi	r3, [r3, #80]	@ 0x50
 8001058:	6d5b      	ldrpl	r3, [r3, #84]	@ 0x54
 800105a:	4798      	blx	r3
 800105c:	6823      	ldr	r3, [r4, #0]
 800105e:	0519      	lsls	r1, r3, #20
 8001060:	d518      	bpl.n	8001094 <DMA1_Stream5_IRQHandler+0xc0>
 8001062:	4c0f      	ldr	r4, [pc, #60]	@ (80010a0 <DMA1_Stream5_IRQHandler+0xcc>)
 8001064:	6823      	ldr	r3, [r4, #0]
 8001066:	6cda      	ldr	r2, [r3, #76]	@ 0x4c
 8001068:	b1a2      	cbz	r2, 8001094 <DMA1_Stream5_IRQHandler+0xc0>
 800106a:	6c9b      	ldr	r3, [r3, #72]	@ 0x48
 800106c:	4798      	blx	r3
 800106e:	4a0a      	ldr	r2, [pc, #40]	@ (8001098 <DMA1_Stream5_IRQHandler+0xc4>)
 8001070:	68d3      	ldr	r3, [r2, #12]
 8001072:	f443 6300 	orr.w	r3, r3, #2048	@ 0x800
 8001076:	60d3      	str	r3, [r2, #12]
 8001078:	6823      	ldr	r3, [r4, #0]
 800107a:	6b9a      	ldr	r2, [r3, #56]	@ 0x38
 800107c:	f5b2 2f80 	cmp.w	r2, #262144	@ 0x40000
 8001080:	d108      	bne.n	8001094 <DMA1_Stream5_IRQHandler+0xc0>
 8001082:	685a      	ldr	r2, [r3, #4]
 8001084:	6812      	ldr	r2, [r2, #0]
 8001086:	0352      	lsls	r2, r2, #13
 8001088:	e8bd 4070 	ldmia.w	sp!, {r4, r5, r6, lr}
 800108c:	bf4c      	ite	mi
 800108e:	6d1b      	ldrmi	r3, [r3, #80]	@ 0x50
 8001090:	6d5b      	ldrpl	r3, [r3, #84]	@ 0x54
 8001092:	4718      	bx	r3
 8001094:	bd70      	pop	{r4, r5, r6, pc}
 8001096:	bf00      	nop
 8001098:	40026000 	.word	0x40026000
 800109c:	20000020 	.word	0x20000020
 80010a0:	20000050 	.word	0x20000050

080010a4 <DMA1_Stream6_IRQHandler>:
 80010a4:	b570      	push	{r4, r5, r6, lr}
 80010a6:	4d30      	ldr	r5, [pc, #192]	@ (8001168 <DMA1_Stream6_IRQHandler+0xc4>)
 80010a8:	4c30      	ldr	r4, [pc, #192]	@ (800116c <DMA1_Stream6_IRQHandler+0xc8>)
 80010aa:	686b      	ldr	r3, [r5, #4]
 80010ac:	6023      	str	r3, [r4, #0]
 80010ae:	6823      	ldr	r3, [r4, #0]
 80010b0:	03da      	lsls	r2, r3, #15
 80010b2:	d508      	bpl.n	80010c6 <DMA1_Stream6_IRQHandler+0x22>
 80010b4:	4b2e      	ldr	r3, [pc, #184]	@ (8001170 <DMA1_Stream6_IRQHandler+0xcc>)
 80010b6:	681b      	ldr	r3, [r3, #0]
 80010b8:	6bdb      	ldr	r3, [r3, #60]	@ 0x3c
 80010ba:	b123      	cbz	r3, 80010c6 <DMA1_Stream6_IRQHandler+0x22>
 80010bc:	4798      	blx	r3
 80010be:	68eb      	ldr	r3, [r5, #12]
 80010c0:	f443 3380 	orr.w	r3, r3, #65536	@ 0x10000
 80010c4:	60eb      	str	r3, [r5, #12]
 80010c6:	6823      	ldr	r3, [r4, #0]
 80010c8:	035b      	lsls	r3, r3, #13
 80010ca:	d509      	bpl.n	80010e0 <DMA1_Stream6_IRQHandler+0x3c>
 80010cc:	4b28      	ldr	r3, [pc, #160]	@ (8001170 <DMA1_Stream6_IRQHandler+0xcc>)
 80010ce:	681b      	ldr	r3, [r3, #0]
 80010d0:	6c1b      	ldr	r3, [r3, #64]	@ 0x40
 80010d2:	b12b      	cbz	r3, 80010e0 <DMA1_Stream6_IRQHandler+0x3c>
 80010d4:	4798      	blx	r3
 80010d6:	4a24      	ldr	r2, [pc, #144]	@ (8001168 <DMA1_Stream6_IRQHandler+0xc4>)
 80010d8:	68d3      	ldr	r3, [r2, #12]
 80010da:	f443 2380 	orr.w	r3, r3, #262144	@ 0x40000
 80010de:	60d3      	str	r3, [r2, #12]
 80010e0:	6823      	ldr	r3, [r4, #0]
 80010e2:	031e      	lsls	r6, r3, #12
 80010e4:	d509      	bpl.n	80010fa <DMA1_Stream6_IRQHandler+0x56>
 80010e6:	4b22      	ldr	r3, [pc, #136]	@ (8001170 <DMA1_Stream6_IRQHandler+0xcc>)
 80010e8:	681b      	ldr	r3, [r3, #0]
 80010ea:	6c5b      	ldr	r3, [r3, #68]	@ 0x44
 80010ec:	b12b      	cbz	r3, 80010fa <DMA1_Stream6_IRQHandler+0x56>
 80010ee:	4798      	blx	r3
 80010f0:	4a1d      	ldr	r2, [pc, #116]	@ (8001168 <DMA1_Stream6_IRQHandler+0xc4>)
 80010f2:	68d3      	ldr	r3, [r2, #12]
 80010f4:	f443 2300 	orr.w	r3, r3, #524288	@ 0x80000
 80010f8:	60d3      	str	r3, [r2, #12]
 80010fa:	6823      	ldr	r3, [r4, #0]
 80010fc:	02dd      	lsls	r5, r3, #11
 80010fe:	d515      	bpl.n	800112c <DMA1_Stream6_IRQHandler+0x88>
 8001100:	4d1b      	ldr	r5, [pc, #108]	@ (8001170 <DMA1_Stream6_IRQHandler+0xcc>)
 8001102:	682b      	ldr	r3, [r5, #0]
 8001104:	6c9b      	ldr	r3, [r3, #72]	@ 0x48
 8001106:	b18b      	cbz	r3, 800112c <DMA1_Stream6_IRQHandler+0x88>
 8001108:	4798      	blx	r3
 800110a:	4a17      	ldr	r2, [pc, #92]	@ (8001168 <DMA1_Stream6_IRQHandler+0xc4>)
 800110c:	68d3      	ldr	r3, [r2, #12]
 800110e:	f443 1380 	orr.w	r3, r3, #1048576	@ 0x100000
 8001112:	60d3      	str	r3, [r2, #12]
 8001114:	682b      	ldr	r3, [r5, #0]
 8001116:	6b9a      	ldr	r2, [r3, #56]	@ 0x38
 8001118:	f5b2 2f80 	cmp.w	r2, #262144	@ 0x40000
 800111c:	d106      	bne.n	800112c <DMA1_Stream6_IRQHandler+0x88>
 800111e:	685a      	ldr	r2, [r3, #4]
 8001120:	6812      	ldr	r2, [r2, #0]
 8001122:	0350      	lsls	r0, r2, #13
 8001124:	bf4c      	ite	mi
 8001126:	6d1b      	ldrmi	r3, [r3, #80]	@ 0x50
 8001128:	6d5b      	ldrpl	r3, [r3, #84]	@ 0x54
 800112a:	4798      	blx	r3
 800112c:	6823      	ldr	r3, [r4, #0]
 800112e:	0299      	lsls	r1, r3, #10
 8001130:	d518      	bpl.n	8001164 <DMA1_Stream6_IRQHandler+0xc0>
 8001132:	4c0f      	ldr	r4, [pc, #60]	@ (8001170 <DMA1_Stream6_IRQHandler+0xcc>)
 8001134:	6823      	ldr	r3, [r4, #0]
 8001136:	6cda      	ldr	r2, [r3, #76]	@ 0x4c
 8001138:	b1a2      	cbz	r2, 8001164 <DMA1_Stream6_IRQHandler+0xc0>
 800113a:	6c9b      	ldr	r3, [r3, #72]	@ 0x48
 800113c:	4798      	blx	r3
 800113e:	4a0a      	ldr	r2, [pc, #40]	@ (8001168 <DMA1_Stream6_IRQHandler+0xc4>)
 8001140:	68d3      	ldr	r3, [r2, #12]
 8001142:	f443 1300 	orr.w	r3, r3, #2097152	@ 0x200000
 8001146:	60d3      	str	r3, [r2, #12]
 8001148:	6823      	ldr	r3, [r4, #0]
 800114a:	6b9a      	ldr	r2, [r3, #56]	@ 0x38
 800114c:	f5b2 2f80 	cmp.w	r2, #262144	@ 0x40000
 8001150:	d108      	bne.n	8001164 <DMA1_Stream6_IRQHandler+0xc0>
 8001152:	685a      	ldr	r2, [r3, #4]
 8001154:	6812      	ldr	r2, [r2, #0]
 8001156:	0352      	lsls	r2, r2, #13
 8001158:	e8bd 4070 	ldmia.w	sp!, {r4, r5, r6, lr}
 800115c:	bf4c      	ite	mi
 800115e:	6d1b      	ldrmi	r3, [r3, #80]	@ 0x50
 8001160:	6d5b      	ldrpl	r3, [r3, #84]	@ 0x54
 8001162:	4718      	bx	r3
 8001164:	bd70      	pop	{r4, r5, r6, pc}
 8001166:	bf00      	nop
 8001168:	40026000 	.word	0x40026000
 800116c:	20000020 	.word	0x20000020
 8001170:	2000004c 	.word	0x2000004c

08001174 <DMA1_Stream7_IRQHandler>:
 8001174:	b570      	push	{r4, r5, r6, lr}
 8001176:	4d30      	ldr	r5, [pc, #192]	@ (8001238 <DMA1_Stream7_IRQHandler+0xc4>)
 8001178:	4c30      	ldr	r4, [pc, #192]	@ (800123c <DMA1_Stream7_IRQHandler+0xc8>)
 800117a:	686b      	ldr	r3, [r5, #4]
 800117c:	6023      	str	r3, [r4, #0]
 800117e:	6823      	ldr	r3, [r4, #0]
 8001180:	025a      	lsls	r2, r3, #9
 8001182:	d508      	bpl.n	8001196 <DMA1_Stream7_IRQHandler+0x22>
 8001184:	4b2e      	ldr	r3, [pc, #184]	@ (8001240 <DMA1_Stream7_IRQHandler+0xcc>)
 8001186:	681b      	ldr	r3, [r3, #0]
 8001188:	6bdb      	ldr	r3, [r3, #60]	@ 0x3c
 800118a:	b123      	cbz	r3, 8001196 <DMA1_Stream7_IRQHandler+0x22>
 800118c:	4798      	blx	r3
 800118e:	68eb      	ldr	r3, [r5, #12]
 8001190:	f443 0380 	orr.w	r3, r3, #4194304	@ 0x400000
 8001194:	60eb      	str	r3, [r5, #12]
 8001196:	6823      	ldr	r3, [r4, #0]
 8001198:	01db      	lsls	r3, r3, #7
 800119a:	d509      	bpl.n	80011b0 <DMA1_Stream7_IRQHandler+0x3c>
 800119c:	4b28      	ldr	r3, [pc, #160]	@ (8001240 <DMA1_Stream7_IRQHandler+0xcc>)
 800119e:	681b      	ldr	r3, [r3, #0]
 80011a0:	6c1b      	ldr	r3, [r3, #64]	@ 0x40
 80011a2:	b12b      	cbz	r3, 80011b0 <DMA1_Stream7_IRQHandler+0x3c>
 80011a4:	4798      	blx	r3
 80011a6:	4a24      	ldr	r2, [pc, #144]	@ (8001238 <DMA1_Stream7_IRQHandler+0xc4>)
 80011a8:	68d3      	ldr	r3, [r2, #12]
 80011aa:	f043 7380 	orr.w	r3, r3, #16777216	@ 0x1000000
 80011ae:	60d3      	str	r3, [r2, #12]
 80011b0:	6823      	ldr	r3, [r4, #0]
 80011b2:	019e      	lsls	r6, r3, #6
 80011b4:	d509      	bpl.n	80011ca <DMA1_Stream7_IRQHandler+0x56>
 80011b6:	4b22      	ldr	r3, [pc, #136]	@ (8001240 <DMA1_Stream7_IRQHandler+0xcc>)
 80011b8:	681b      	ldr	r3, [r3, #0]
 80011ba:	6c5b      	ldr	r3, [r3, #68]	@ 0x44
 80011bc:	b12b      	cbz	r3, 80011ca <DMA1_Stream7_IRQHandler+0x56>
 80011be:	4798      	blx	r3
 80011c0:	4a1d      	ldr	r2, [pc, #116]	@ (8001238 <DMA1_Stream7_IRQHandler+0xc4>)
 80011c2:	68d3      	ldr	r3, [r2, #12]
 80011c4:	f043 7300 	orr.w	r3, r3, #33554432	@ 0x2000000
 80011c8:	60d3      	str	r3, [r2, #12]
 80011ca:	6823      	ldr	r3, [r4, #0]
 80011cc:	015d      	lsls	r5, r3, #5
 80011ce:	d515      	bpl.n	80011fc <DMA1_Stream7_IRQHandler+0x88>
 80011d0:	4d1b      	ldr	r5, [pc, #108]	@ (8001240 <DMA1_Stream7_IRQHandler+0xcc>)
 80011d2:	682b      	ldr	r3, [r5, #0]
 80011d4:	6c9b      	ldr	r3, [r3, #72]	@ 0x48
 80011d6:	b18b      	cbz	r3, 80011fc <DMA1_Stream7_IRQHandler+0x88>
 80011d8:	4798      	blx	r3
 80011da:	4a17      	ldr	r2, [pc, #92]	@ (8001238 <DMA1_Stream7_IRQHandler+0xc4>)
 80011dc:	68d3      	ldr	r3, [r2, #12]
 80011de:	f043 6380 	orr.w	r3, r3, #67108864	@ 0x4000000
 80011e2:	60d3      	str	r3, [r2, #12]
 80011e4:	682b      	ldr	r3, [r5, #0]
 80011e6:	6b9a      	ldr	r2, [r3, #56]	@ 0x38
 80011e8:	f5b2 2f80 	cmp.w	r2, #262144	@ 0x40000
 80011ec:	d106      	bne.n	80011fc <DMA1_Stream7_IRQHandler+0x88>
 80011ee:	685a      	ldr	r2, [r3, #4]
 80011f0:	6812      	ldr	r2, [r2, #0]
 80011f2:	0350      	lsls	r0, r2, #13
 80011f4:	bf4c      	ite	mi
 80011f6:	6d1b      	ldrmi	r3, [r3, #80]	@ 0x50
 80011f8:	6d5b      	ldrpl	r3, [r3, #84]	@ 0x54
 80011fa:	4798      	blx	r3
 80011fc:	6823      	ldr	r3, [r4, #0]
 80011fe:	0119      	lsls	r1, r3, #4
 8001200:	d518      	bpl.n	8001234 <DMA1_Stream7_IRQHandler+0xc0>
 8001202:	4c0f      	ldr	r4, [pc, #60]	@ (8001240 <DMA1_Stream7_IRQHandler+0xcc>)
 8001204:	6823      	ldr	r3, [r4, #0]
 8001206:	6cda      	ldr	r2, [r3, #76]	@ 0x4c
 8001208:	b1a2      	cbz	r2, 8001234 <DMA1_Stream7_IRQHandler+0xc0>
 800120a:	6c9b      	ldr	r3, [r3, #72]	@ 0x48
 800120c:	4798      	blx	r3
 800120e:	4a0a      	ldr	r2, [pc, #40]	@ (8001238 <DMA1_Stream7_IRQHandler+0xc4>)
 8001210:	68d3      	ldr	r3, [r2, #12]
 8001212:	f043 6300 	orr.w	r3, r3, #134217728	@ 0x8000000
 8001216:	60d3      	str	r3, [r2, #12]
 8001218:	6823      	ldr	r3, [r4, #0]
 800121a:	6b9a      	ldr	r2, [r3, #56]	@ 0x38
 800121c:	f5b2 2f80 	cmp.w	r2, #262144	@ 0x40000
 8001220:	d108      	bne.n	8001234 <DMA1_Stream7_IRQHandler+0xc0>
 8001222:	685a      	ldr	r2, [r3, #4]
 8001224:	6812      	ldr	r2, [r2, #0]
 8001226:	0352      	lsls	r2, r2, #13
 8001228:	e8bd 4070 	ldmia.w	sp!, {r4, r5, r6, lr}
 800122c:	bf4c      	ite	mi
 800122e:	6d1b      	ldrmi	r3, [r3, #80]	@ 0x50
 8001230:	6d5b      	ldrpl	r3, [r3, #84]	@ 0x54
 8001232:	4718      	bx	r3
 8001234:	bd70      	pop	{r4, r5, r6, pc}
 8001236:	bf00      	nop
 8001238:	40026000 	.word	0x40026000
 800123c:	20000020 	.word	0x20000020
 8001240:	20000048 	.word	0x20000048

08001244 <DMA2_Stream0_IRQHandler>:
 8001244:	b570      	push	{r4, r5, r6, lr}
 8001246:	4d37      	ldr	r5, [pc, #220]	@ (8001324 <DMA2_Stream0_IRQHandler+0xe0>)
 8001248:	4c37      	ldr	r4, [pc, #220]	@ (8001328 <DMA2_Stream0_IRQHandler+0xe4>)
 800124a:	682b      	ldr	r3, [r5, #0]
 800124c:	6023      	str	r3, [r4, #0]
 800124e:	6823      	ldr	r3, [r4, #0]
 8001250:	07db      	lsls	r3, r3, #31
 8001252:	d50b      	bpl.n	800126c <DMA2_Stream0_IRQHandler+0x28>
 8001254:	4b35      	ldr	r3, [pc, #212]	@ (800132c <DMA2_Stream0_IRQHandler+0xe8>)
 8001256:	681b      	ldr	r3, [r3, #0]
 8001258:	69da      	ldr	r2, [r3, #28]
 800125a:	0616      	lsls	r6, r2, #24
 800125c:	d506      	bpl.n	800126c <DMA2_Stream0_IRQHandler+0x28>
 800125e:	6bdb      	ldr	r3, [r3, #60]	@ 0x3c
 8001260:	b123      	cbz	r3, 800126c <DMA2_Stream0_IRQHandler+0x28>
 8001262:	4798      	blx	r3
 8001264:	68ab      	ldr	r3, [r5, #8]
 8001266:	f043 0301 	orr.w	r3, r3, #1
 800126a:	60ab      	str	r3, [r5, #8]
 800126c:	6823      	ldr	r3, [r4, #0]
 800126e:	075d      	lsls	r5, r3, #29
 8001270:	d50c      	bpl.n	800128c <DMA2_Stream0_IRQHandler+0x48>
 8001272:	4b2e      	ldr	r3, [pc, #184]	@ (800132c <DMA2_Stream0_IRQHandler+0xe8>)
 8001274:	681b      	ldr	r3, [r3, #0]
 8001276:	69da      	ldr	r2, [r3, #28]
 8001278:	0790      	lsls	r0, r2, #30
 800127a:	d507      	bpl.n	800128c <DMA2_Stream0_IRQHandler+0x48>
 800127c:	6c1b      	ldr	r3, [r3, #64]	@ 0x40
 800127e:	b12b      	cbz	r3, 800128c <DMA2_Stream0_IRQHandler+0x48>
 8001280:	4798      	blx	r3
 8001282:	4a28      	ldr	r2, [pc, #160]	@ (8001324 <DMA2_Stream0_IRQHandler+0xe0>)
 8001284:	6893      	ldr	r3, [r2, #8]
 8001286:	f043 0304 	orr.w	r3, r3, #4
 800128a:	6093      	str	r3, [r2, #8]
 800128c:	6823      	ldr	r3, [r4, #0]
 800128e:	0719      	lsls	r1, r3, #28
 8001290:	d50c      	bpl.n	80012ac <DMA2_Stream0_IRQHandler+0x68>
 8001292:	4b26      	ldr	r3, [pc, #152]	@ (800132c <DMA2_Stream0_IRQHandler+0xe8>)
 8001294:	681b      	ldr	r3, [r3, #0]
 8001296:	69da      	ldr	r2, [r3, #28]
 8001298:	0752      	lsls	r2, r2, #29
 800129a:	d507      	bpl.n	80012ac <DMA2_Stream0_IRQHandler+0x68>
 800129c:	6c5b      	ldr	r3, [r3, #68]	@ 0x44
 800129e:	b12b      	cbz	r3, 80012ac <DMA2_Stream0_IRQHandler+0x68>
 80012a0:	4798      	blx	r3
 80012a2:	4a20      	ldr	r2, [pc, #128]	@ (8001324 <DMA2_Stream0_IRQHandler+0xe0>)
 80012a4:	6893      	ldr	r3, [r2, #8]
 80012a6:	f043 0308 	orr.w	r3, r3, #8
 80012aa:	6093      	str	r3, [r2, #8]
 80012ac:	6823      	ldr	r3, [r4, #0]
 80012ae:	06db      	lsls	r3, r3, #27
 80012b0:	d518      	bpl.n	80012e4 <DMA2_Stream0_IRQHandler+0xa0>
 80012b2:	4d1e      	ldr	r5, [pc, #120]	@ (800132c <DMA2_Stream0_IRQHandler+0xe8>)
 80012b4:	682b      	ldr	r3, [r5, #0]
 80012b6:	69da      	ldr	r2, [r3, #28]
 80012b8:	0716      	lsls	r6, r2, #28
 80012ba:	d513      	bpl.n	80012e4 <DMA2_Stream0_IRQHandler+0xa0>
 80012bc:	6c9b      	ldr	r3, [r3, #72]	@ 0x48
 80012be:	b18b      	cbz	r3, 80012e4 <DMA2_Stream0_IRQHandler+0xa0>
 80012c0:	4798      	blx	r3
 80012c2:	4a18      	ldr	r2, [pc, #96]	@ (8001324 <DMA2_Stream0_IRQHandler+0xe0>)
 80012c4:	6893      	ldr	r3, [r2, #8]
 80012c6:	f043 0310 	orr.w	r3, r3, #16
 80012ca:	6093      	str	r3, [r2, #8]
 80012cc:	682b      	ldr	r3, [r5, #0]
 80012ce:	6b9a      	ldr	r2, [r3, #56]	@ 0x38
 80012d0:	f5b2 2f80 	cmp.w	r2, #262144	@ 0x40000
 80012d4:	d106      	bne.n	80012e4 <DMA2_Stream0_IRQHandler+0xa0>
 80012d6:	685a      	ldr	r2, [r3, #4]
 80012d8:	6812      	ldr	r2, [r2, #0]
 80012da:	0355      	lsls	r5, r2, #13
 80012dc:	bf4c      	ite	mi
 80012de:	6d1b      	ldrmi	r3, [r3, #80]	@ 0x50
 80012e0:	6d5b      	ldrpl	r3, [r3, #84]	@ 0x54
 80012e2:	4798      	blx	r3
 80012e4:	6823      	ldr	r3, [r4, #0]
 80012e6:	0698      	lsls	r0, r3, #26
 80012e8:	d51a      	bpl.n	8001320 <DMA2_Stream0_IRQHandler+0xdc>
 80012ea:	4c10      	ldr	r4, [pc, #64]	@ (800132c <DMA2_Stream0_IRQHandler+0xe8>)
 80012ec:	6823      	ldr	r3, [r4, #0]
 80012ee:	69da      	ldr	r2, [r3, #28]
 80012f0:	06d1      	lsls	r1, r2, #27
 80012f2:	d515      	bpl.n	8001320 <DMA2_Stream0_IRQHandler+0xdc>
 80012f4:	6cdb      	ldr	r3, [r3, #76]	@ 0x4c
 80012f6:	b19b      	cbz	r3, 8001320 <DMA2_Stream0_IRQHandler+0xdc>
 80012f8:	4798      	blx	r3
 80012fa:	4a0a      	ldr	r2, [pc, #40]	@ (8001324 <DMA2_Stream0_IRQHandler+0xe0>)
 80012fc:	6893      	ldr	r3, [r2, #8]
 80012fe:	f043 0320 	orr.w	r3, r3, #32
 8001302:	6093      	str	r3, [r2, #8]
 8001304:	6823      	ldr	r3, [r4, #0]
 8001306:	6b9a      	ldr	r2, [r3, #56]	@ 0x38
 8001308:	f5b2 2f80 	cmp.w	r2, #262144	@ 0x40000
 800130c:	d108      	bne.n	8001320 <DMA2_Stream0_IRQHandler+0xdc>
 800130e:	685a      	ldr	r2, [r3, #4]
 8001310:	6812      	ldr	r2, [r2, #0]
 8001312:	0352      	lsls	r2, r2, #13
 8001314:	e8bd 4070 	ldmia.w	sp!, {r4, r5, r6, lr}
 8001318:	bf4c      	ite	mi
 800131a:	6d1b      	ldrmi	r3, [r3, #80]	@ 0x50
 800131c:	6d5b      	ldrpl	r3, [r3, #84]	@ 0x54
 800131e:	4718      	bx	r3
 8001320:	bd70      	pop	{r4, r5, r6, pc}
 8001322:	bf00      	nop
 8001324:	40026400 	.word	0x40026400
 8001328:	20000024 	.word	0x20000024
 800132c:	20000044 	.word	0x20000044

08001330 <DMA2_Stream1_IRQHandler>:
 8001330:	b570      	push	{r4, r5, r6, lr}
 8001332:	4d30      	ldr	r5, [pc, #192]	@ (80013f4 <DMA2_Stream1_IRQHandler+0xc4>)
 8001334:	4c30      	ldr	r4, [pc, #192]	@ (80013f8 <DMA2_Stream1_IRQHandler+0xc8>)
 8001336:	682b      	ldr	r3, [r5, #0]
 8001338:	6023      	str	r3, [r4, #0]
 800133a:	6823      	ldr	r3, [r4, #0]
 800133c:	065a      	lsls	r2, r3, #25
 800133e:	d508      	bpl.n	8001352 <DMA2_Stream1_IRQHandler+0x22>
 8001340:	4b2e      	ldr	r3, [pc, #184]	@ (80013fc <DMA2_Stream1_IRQHandler+0xcc>)
 8001342:	681b      	ldr	r3, [r3, #0]
 8001344:	6bdb      	ldr	r3, [r3, #60]	@ 0x3c
 8001346:	b123      	cbz	r3, 8001352 <DMA2_Stream1_IRQHandler+0x22>
 8001348:	4798      	blx	r3
 800134a:	68ab      	ldr	r3, [r5, #8]
 800134c:	f043 0340 	orr.w	r3, r3, #64	@ 0x40
 8001350:	60ab      	str	r3, [r5, #8]
 8001352:	6823      	ldr	r3, [r4, #0]
 8001354:	05db      	lsls	r3, r3, #23
 8001356:	d509      	bpl.n	800136c <DMA2_Stream1_IRQHandler+0x3c>
 8001358:	4b28      	ldr	r3, [pc, #160]	@ (80013fc <DMA2_Stream1_IRQHandler+0xcc>)
 800135a:	681b      	ldr	r3, [r3, #0]
 800135c:	6c1b      	ldr	r3, [r3, #64]	@ 0x40
 800135e:	b12b      	cbz	r3, 800136c <DMA2_Stream1_IRQHandler+0x3c>
 8001360:	4798      	blx	r3
 8001362:	4a24      	ldr	r2, [pc, #144]	@ (80013f4 <DMA2_Stream1_IRQHandler+0xc4>)
 8001364:	6893      	ldr	r3, [r2, #8]
 8001366:	f443 7380 	orr.w	r3, r3, #256	@ 0x100
 800136a:	6093      	str	r3, [r2, #8]
 800136c:	6823      	ldr	r3, [r4, #0]
 800136e:	059e      	lsls	r6, r3, #22
 8001370:	d509      	bpl.n	8001386 <DMA2_Stream1_IRQHandler+0x56>
 8001372:	4b22      	ldr	r3, [pc, #136]	@ (80013fc <DMA2_Stream1_IRQHandler+0xcc>)
 8001374:	681b      	ldr	r3, [r3, #0]
 8001376:	6c5b      	ldr	r3, [r3, #68]	@ 0x44
 8001378:	b12b      	cbz	r3, 8001386 <DMA2_Stream1_IRQHandler+0x56>
 800137a:	4798      	blx	r3
 800137c:	4a1d      	ldr	r2, [pc, #116]	@ (80013f4 <DMA2_Stream1_IRQHandler+0xc4>)
 800137e:	6893      	ldr	r3, [r2, #8]
 8001380:	f443 7300 	orr.w	r3, r3, #512	@ 0x200
 8001384:	6093      	str	r3, [r2, #8]
 8001386:	6823      	ldr	r3, [r4, #0]
 8001388:	055d      	lsls	r5, r3, #21
 800138a:	d515      	bpl.n	80013b8 <DMA2_Stream1_IRQHandler+0x88>
 800138c:	4d1b      	ldr	r5, [pc, #108]	@ (80013fc <DMA2_Stream1_IRQHandler+0xcc>)
 800138e:	682b      	ldr	r3, [r5, #0]
 8001390:	6c9b      	ldr	r3, [r3, #72]	@ 0x48
 8001392:	b18b      	cbz	r3, 80013b8 <DMA2_Stream1_IRQHandler+0x88>
 8001394:	4798      	blx	r3
 8001396:	4a17      	ldr	r2, [pc, #92]	@ (80013f4 <DMA2_Stream1_IRQHandler+0xc4>)
 8001398:	6893      	ldr	r3, [r2, #8]
 800139a:	f443 6380 	orr.w	r3, r3, #1024	@ 0x400
 800139e:	6093      	str	r3, [r2, #8]
 80013a0:	682b      	ldr	r3, [r5, #0]
 80013a2:	6b9a      	ldr	r2, [r3, #56]	@ 0x38
 80013a4:	f5b2 2f80 	cmp.w	r2, #262144	@ 0x40000
 80013a8:	d106      	bne.n	80013b8 <DMA2_Stream1_IRQHandler+0x88>
 80013aa:	685a      	ldr	r2, [r3, #4]
 80013ac:	6812      	ldr	r2, [r2, #0]
 80013ae:	0350      	lsls	r0, r2, #13
 80013b0:	bf4c      	ite	mi
 80013b2:	6d1b      	ldrmi	r3, [r3, #80]	@ 0x50
 80013b4:	6d5b      	ldrpl	r3, [r3, #84]	@ 0x54
 80013b6:	4798      	blx	r3
 80013b8:	6823      	ldr	r3, [r4, #0]
 80013ba:	0519      	lsls	r1, r3, #20
 80013bc:	d518      	bpl.n	80013f0 <DMA2_Stream1_IRQHandler+0xc0>
 80013be:	4c0f      	ldr	r4, [pc, #60]	@ (80013fc <DMA2_Stream1_IRQHandler+0xcc>)
 80013c0:	6823      	ldr	r3, [r4, #0]
 80013c2:	6cda      	ldr	r2, [r3, #76]	@ 0x4c
 80013c4:	b1a2      	cbz	r2, 80013f0 <DMA2_Stream1_IRQHandler+0xc0>
 80013c6:	6c9b      	ldr	r3, [r3, #72]	@ 0x48
 80013c8:	4798      	blx	r3
 80013ca:	4a0a      	ldr	r2, [pc, #40]	@ (80013f4 <DMA2_Stream1_IRQHandler+0xc4>)
 80013cc:	6893      	ldr	r3, [r2, #8]
 80013ce:	f443 6300 	orr.w	r3, r3, #2048	@ 0x800
 80013d2:	6093      	str	r3, [r2, #8]
 80013d4:	6823      	ldr	r3, [r4, #0]
 80013d6:	6b9a      	ldr	r2, [r3, #56]	@ 0x38
 80013d8:	f5b2 2f80 	cmp.w	r2, #262144	@ 0x40000
 80013dc:	d108      	bne.n	80013f0 <DMA2_Stream1_IRQHandler+0xc0>
 80013de:	685a      	ldr	r2, [r3, #4]
 80013e0:	6812      	ldr	r2, [r2, #0]
 80013e2:	0352      	lsls	r2, r2, #13
 80013e4:	e8bd 4070 	ldmia.w	sp!, {r4, r5, r6, lr}
 80013e8:	bf4c      	ite	mi
 80013ea:	6d1b      	ldrmi	r3, [r3, #80]	@ 0x50
 80013ec:	6d5b      	ldrpl	r3, [r3, #84]	@ 0x54
 80013ee:	4718      	bx	r3
 80013f0:	bd70      	pop	{r4, r5, r6, pc}
 80013f2:	bf00      	nop
 80013f4:	40026400 	.word	0x40026400
 80013f8:	20000024 	.word	0x20000024
 80013fc:	20000040 	.word	0x20000040

08001400 <DMA2_Stream2_IRQHandler>:
 8001400:	b570      	push	{r4, r5, r6, lr}
 8001402:	4d30      	ldr	r5, [pc, #192]	@ (80014c4 <DMA2_Stream2_IRQHandler+0xc4>)
 8001404:	4c30      	ldr	r4, [pc, #192]	@ (80014c8 <DMA2_Stream2_IRQHandler+0xc8>)
 8001406:	682b      	ldr	r3, [r5, #0]
 8001408:	6023      	str	r3, [r4, #0]
 800140a:	6823      	ldr	r3, [r4, #0]
 800140c:	03da      	lsls	r2, r3, #15
 800140e:	d508      	bpl.n	8001422 <DMA2_Stream2_IRQHandler+0x22>
 8001410:	4b2e      	ldr	r3, [pc, #184]	@ (80014cc <DMA2_Stream2_IRQHandler+0xcc>)
 8001412:	681b      	ldr	r3, [r3, #0]
 8001414:	6bdb      	ldr	r3, [r3, #60]	@ 0x3c
 8001416:	b123      	cbz	r3, 8001422 <DMA2_Stream2_IRQHandler+0x22>
 8001418:	4798      	blx	r3
 800141a:	68ab      	ldr	r3, [r5, #8]
 800141c:	f443 3380 	orr.w	r3, r3, #65536	@ 0x10000
 8001420:	60ab      	str	r3, [r5, #8]
 8001422:	6823      	ldr	r3, [r4, #0]
 8001424:	035b      	lsls	r3, r3, #13
 8001426:	d509      	bpl.n	800143c <DMA2_Stream2_IRQHandler+0x3c>
 8001428:	4b28      	ldr	r3, [pc, #160]	@ (80014cc <DMA2_Stream2_IRQHandler+0xcc>)
 800142a:	681b      	ldr	r3, [r3, #0]
 800142c:	6c1b      	ldr	r3, [r3, #64]	@ 0x40
 800142e:	b12b      	cbz	r3, 800143c <DMA2_Stream2_IRQHandler+0x3c>
 8001430:	4798      	blx	r3
 8001432:	4a24      	ldr	r2, [pc, #144]	@ (80014c4 <DMA2_Stream2_IRQHandler+0xc4>)
 8001434:	6893      	ldr	r3, [r2, #8]
 8001436:	f443 2380 	orr.w	r3, r3, #262144	@ 0x40000
 800143a:	6093      	str	r3, [r2, #8]
 800143c:	6823      	ldr	r3, [r4, #0]
 800143e:	031e      	lsls	r6, r3, #12
 8001440:	d509      	bpl.n	8001456 <DMA2_Stream2_IRQHandler+0x56>
 8001442:	4b22      	ldr	r3, [pc, #136]	@ (80014cc <DMA2_Stream2_IRQHandler+0xcc>)
 8001444:	681b      	ldr	r3, [r3, #0]
 8001446:	6c5b      	ldr	r3, [r3, #68]	@ 0x44
 8001448:	b12b      	cbz	r3, 8001456 <DMA2_Stream2_IRQHandler+0x56>
 800144a:	4798      	blx	r3
 800144c:	4a1d      	ldr	r2, [pc, #116]	@ (80014c4 <DMA2_Stream2_IRQHandler+0xc4>)
 800144e:	6893      	ldr	r3, [r2, #8]
 8001450:	f443 2300 	orr.w	r3, r3, #524288	@ 0x80000
 8001454:	6093      	str	r3, [r2, #8]
 8001456:	6823      	ldr	r3, [r4, #0]
 8001458:	02dd      	lsls	r5, r3, #11
 800145a:	d515      	bpl.n	8001488 <DMA2_Stream2_IRQHandler+0x88>
 800145c:	4d1b      	ldr	r5, [pc, #108]	@ (80014cc <DMA2_Stream2_IRQHandler+0xcc>)
 800145e:	682b      	ldr	r3, [r5, #0]
 8001460:	6c9b      	ldr	r3, [r3, #72]	@ 0x48
 8001462:	b18b      	cbz	r3, 8001488 <DMA2_Stream2_IRQHandler+0x88>
 8001464:	4798      	blx	r3
 8001466:	4a17      	ldr	r2, [pc, #92]	@ (80014c4 <DMA2_Stream2_IRQHandler+0xc4>)
 8001468:	6893      	ldr	r3, [r2, #8]
 800146a:	f443 1380 	orr.w	r3, r3, #1048576	@ 0x100000
 800146e:	6093      	str	r3, [r2, #8]
 8001470:	682b      	ldr	r3, [r5, #0]
 8001472:	6b9a      	ldr	r2, [r3, #56]	@ 0x38
 8001474:	f5b2 2f80 	cmp.w	r2, #262144	@ 0x40000
 8001478:	d106      	bne.n	8001488 <DMA2_Stream2_IRQHandler+0x88>
 800147a:	685a      	ldr	r2, [r3, #4]
 800147c:	6812      	ldr	r2, [r2, #0]
 800147e:	0350      	lsls	r0, r2, #13
 8001480:	bf4c      	ite	mi
 8001482:	6d1b      	ldrmi	r3, [r3, #80]	@ 0x50
 8001484:	6d5b      	ldrpl	r3, [r3, #84]	@ 0x54
 8001486:	4798      	blx	r3
 8001488:	6823      	ldr	r3, [r4, #0]
 800148a:	0299      	lsls	r1, r3, #10
 800148c:	d518      	bpl.n	80014c0 <DMA2_Stream2_IRQHandler+0xc0>
 800148e:	4c0f      	ldr	r4, [pc, #60]	@ (80014cc <DMA2_Stream2_IRQHandler+0xcc>)
 8001490:	6823      	ldr	r3, [r4, #0]
 8001492:	6cda      	ldr	r2, [r3, #76]	@ 0x4c
 8001494:	b1a2      	cbz	r2, 80014c0 <DMA2_Stream2_IRQHandler+0xc0>
 8001496:	6c9b      	ldr	r3, [r3, #72]	@ 0x48
 8001498:	4798      	blx	r3
 800149a:	4a0a      	ldr	r2, [pc, #40]	@ (80014c4 <DMA2_Stream2_IRQHandler+0xc4>)
 800149c:	6893      	ldr	r3, [r2, #8]
 800149e:	f443 1300 	orr.w	r3, r3, #2097152	@ 0x200000
 80014a2:	6093      	str	r3, [r2, #8]
 80014a4:	6823      	ldr	r3, [r4, #0]
 80014a6:	6b9a      	ldr	r2, [r3, #56]	@ 0x38
 80014a8:	f5b2 2f80 	cmp.w	r2, #262144	@ 0x40000
 80014ac:	d108      	bne.n	80014c0 <DMA2_Stream2_IRQHandler+0xc0>
 80014ae:	685a      	ldr	r2, [r3, #4]
 80014b0:	6812      	ldr	r2, [r2, #0]
 80014b2:	0352      	lsls	r2, r2, #13
 80014b4:	e8bd 4070 	ldmia.w	sp!, {r4, r5, r6, lr}
 80014b8:	bf4c      	ite	mi
 80014ba:	6d1b      	ldrmi	r3, [r3, #80]	@ 0x50
 80014bc:	6d5b      	ldrpl	r3, [r3, #84]	@ 0x54
 80014be:	4718      	bx	r3
 80014c0:	bd70      	pop	{r4, r5, r6, pc}
 80014c2:	bf00      	nop
 80014c4:	40026400 	.word	0x40026400
 80014c8:	20000024 	.word	0x20000024
 80014cc:	2000003c 	.word	0x2000003c

080014d0 <DMA2_Stream3_IRQHandler>:
 80014d0:	b570      	push	{r4, r5, r6, lr}
 80014d2:	4d37      	ldr	r5, [pc, #220]	@ (80015b0 <DMA2_Stream3_IRQHandler+0xe0>)
 80014d4:	4c37      	ldr	r4, [pc, #220]	@ (80015b4 <DMA2_Stream3_IRQHandler+0xe4>)
 80014d6:	682b      	ldr	r3, [r5, #0]
 80014d8:	6023      	str	r3, [r4, #0]
 80014da:	6823      	ldr	r3, [r4, #0]
 80014dc:	025b      	lsls	r3, r3, #9
 80014de:	d50b      	bpl.n	80014f8 <DMA2_Stream3_IRQHandler+0x28>
 80014e0:	4b35      	ldr	r3, [pc, #212]	@ (80015b8 <DMA2_Stream3_IRQHandler+0xe8>)
 80014e2:	681b      	ldr	r3, [r3, #0]
 80014e4:	69da      	ldr	r2, [r3, #28]
 80014e6:	0616      	lsls	r6, r2, #24
 80014e8:	d506      	bpl.n	80014f8 <DMA2_Stream3_IRQHandler+0x28>
 80014ea:	6bdb      	ldr	r3, [r3, #60]	@ 0x3c
 80014ec:	b123      	cbz	r3, 80014f8 <DMA2_Stream3_IRQHandler+0x28>
 80014ee:	4798      	blx	r3
 80014f0:	68ab      	ldr	r3, [r5, #8]
 80014f2:	f443 0380 	orr.w	r3, r3, #4194304	@ 0x400000
 80014f6:	60ab      	str	r3, [r5, #8]
 80014f8:	6823      	ldr	r3, [r4, #0]
 80014fa:	01dd      	lsls	r5, r3, #7
 80014fc:	d50c      	bpl.n	8001518 <DMA2_Stream3_IRQHandler+0x48>
 80014fe:	4b2e      	ldr	r3, [pc, #184]	@ (80015b8 <DMA2_Stream3_IRQHandler+0xe8>)
 8001500:	681b      	ldr	r3, [r3, #0]
 8001502:	69da      	ldr	r2, [r3, #28]
 8001504:	0790      	lsls	r0, r2, #30
 8001506:	d507      	bpl.n	8001518 <DMA2_Stream3_IRQHandler+0x48>
 8001508:	6c1b      	ldr	r3, [r3, #64]	@ 0x40
 800150a:	b12b      	cbz	r3, 8001518 <DMA2_Stream3_IRQHandler+0x48>
 800150c:	4798      	blx	r3
 800150e:	4a28      	ldr	r2, [pc, #160]	@ (80015b0 <DMA2_Stream3_IRQHandler+0xe0>)
 8001510:	6893      	ldr	r3, [r2, #8]
 8001512:	f043 7380 	orr.w	r3, r3, #16777216	@ 0x1000000
 8001516:	6093      	str	r3, [r2, #8]
 8001518:	6823      	ldr	r3, [r4, #0]
 800151a:	0199      	lsls	r1, r3, #6
 800151c:	d50c      	bpl.n	8001538 <DMA2_Stream3_IRQHandler+0x68>
 800151e:	4b26      	ldr	r3, [pc, #152]	@ (80015b8 <DMA2_Stream3_IRQHandler+0xe8>)
 8001520:	681b      	ldr	r3, [r3, #0]
 8001522:	69da      	ldr	r2, [r3, #28]
 8001524:	0752      	lsls	r2, r2, #29
 8001526:	d507      	bpl.n	8001538 <DMA2_Stream3_IRQHandler+0x68>
 8001528:	6c5b      	ldr	r3, [r3, #68]	@ 0x44
 800152a:	b12b      	cbz	r3, 8001538 <DMA2_Stream3_IRQHandler+0x68>
 800152c:	4798      	blx	r3
 800152e:	4a20      	ldr	r2, [pc, #128]	@ (80015b0 <DMA2_Stream3_IRQHandler+0xe0>)
 8001530:	6893      	ldr	r3, [r2, #8]
 8001532:	f043 7300 	orr.w	r3, r3, #33554432	@ 0x2000000
 8001536:	6093      	str	r3, [r2, #8]
 8001538:	6823      	ldr	r3, [r4, #0]
 800153a:	015b      	lsls	r3, r3, #5
 800153c:	d518      	bpl.n	8001570 <DMA2_Stream3_IRQHandler+0xa0>
 800153e:	4d1e      	ldr	r5, [pc, #120]	@ (80015b8 <DMA2_Stream3_IRQHandler+0xe8>)
 8001540:	682b      	ldr	r3, [r5, #0]
 8001542:	69da      	ldr	r2, [r3, #28]
 8001544:	0716      	lsls	r6, r2, #28
 8001546:	d513      	bpl.n	8001570 <DMA2_Stream3_IRQHandler+0xa0>
 8001548:	6c9b      	ldr	r3, [r3, #72]	@ 0x48
 800154a:	b18b      	cbz	r3, 8001570 <DMA2_Stream3_IRQHandler+0xa0>
 800154c:	4798      	blx	r3
 800154e:	4a18      	ldr	r2, [pc, #96]	@ (80015b0 <DMA2_Stream3_IRQHandler+0xe0>)
 8001550:	6893      	ldr	r3, [r2, #8]
 8001552:	f043 6380 	orr.w	r3, r3, #67108864	@ 0x4000000
 8001556:	6093      	str	r3, [r2, #8]
 8001558:	682b      	ldr	r3, [r5, #0]
 800155a:	6b9a      	ldr	r2, [r3, #56]	@ 0x38
 800155c:	f5b2 2f80 	cmp.w	r2, #262144	@ 0x40000
 8001560:	d106      	bne.n	8001570 <DMA2_Stream3_IRQHandler+0xa0>
 8001562:	685a      	ldr	r2, [r3, #4]
 8001564:	6812      	ldr	r2, [r2, #0]
 8001566:	0355      	lsls	r5, r2, #13
 8001568:	bf4c      	ite	mi
 800156a:	6d1b      	ldrmi	r3, [r3, #80]	@ 0x50
 800156c:	6d5b      	ldrpl	r3, [r3, #84]	@ 0x54
 800156e:	4798      	blx	r3
 8001570:	6823      	ldr	r3, [r4, #0]
 8001572:	0118      	lsls	r0, r3, #4
 8001574:	d51a      	bpl.n	80015ac <DMA2_Stream3_IRQHandler+0xdc>
 8001576:	4c10      	ldr	r4, [pc, #64]	@ (80015b8 <DMA2_Stream3_IRQHandler+0xe8>)
 8001578:	6823      	ldr	r3, [r4, #0]
 800157a:	69da      	ldr	r2, [r3, #28]
 800157c:	06d1      	lsls	r1, r2, #27
 800157e:	d515      	bpl.n	80015ac <DMA2_Stream3_IRQHandler+0xdc>
 8001580:	6cdb      	ldr	r3, [r3, #76]	@ 0x4c
 8001582:	b19b      	cbz	r3, 80015ac <DMA2_Stream3_IRQHandler+0xdc>
 8001584:	4798      	blx	r3
 8001586:	4a0a      	ldr	r2, [pc, #40]	@ (80015b0 <DMA2_Stream3_IRQHandler+0xe0>)
 8001588:	6893      	ldr	r3, [r2, #8]
 800158a:	f043 6300 	orr.w	r3, r3, #134217728	@ 0x8000000
 800158e:	6093      	str	r3, [r2, #8]
 8001590:	6823      	ldr	r3, [r4, #0]
 8001592:	6b9a      	ldr	r2, [r3, #56]	@ 0x38
 8001594:	f5b2 2f80 	cmp.w	r2, #262144	@ 0x40000
 8001598:	d108      	bne.n	80015ac <DMA2_Stream3_IRQHandler+0xdc>
 800159a:	685a      	ldr	r2, [r3, #4]
 800159c:	6812      	ldr	r2, [r2, #0]
 800159e:	0352      	lsls	r2, r2, #13
 80015a0:	e8bd 4070 	ldmia.w	sp!, {r4, r5, r6, lr}
 80015a4:	bf4c      	ite	mi
 80015a6:	6d1b      	ldrmi	r3, [r3, #80]	@ 0x50
 80015a8:	6d5b      	ldrpl	r3, [r3, #84]	@ 0x54
 80015aa:	4718      	bx	r3
 80015ac:	bd70      	pop	{r4, r5, r6, pc}
 80015ae:	bf00      	nop
 80015b0:	40026400 	.word	0x40026400
 80015b4:	20000024 	.word	0x20000024
 80015b8:	20000038 	.word	0x20000038

080015bc <DMA2_Stream4_IRQHandler>:
 80015bc:	b570      	push	{r4, r5, r6, lr}
 80015be:	4d30      	ldr	r5, [pc, #192]	@ (8001680 <DMA2_Stream4_IRQHandler+0xc4>)
 80015c0:	4c30      	ldr	r4, [pc, #192]	@ (8001684 <DMA2_Stream4_IRQHandler+0xc8>)
 80015c2:	686b      	ldr	r3, [r5, #4]
 80015c4:	6023      	str	r3, [r4, #0]
 80015c6:	6823      	ldr	r3, [r4, #0]
 80015c8:	07da      	lsls	r2, r3, #31
 80015ca:	d508      	bpl.n	80015de <DMA2_Stream4_IRQHandler+0x22>
 80015cc:	4b2e      	ldr	r3, [pc, #184]	@ (8001688 <DMA2_Stream4_IRQHandler+0xcc>)
 80015ce:	681b      	ldr	r3, [r3, #0]
 80015d0:	6bdb      	ldr	r3, [r3, #60]	@ 0x3c
 80015d2:	b123      	cbz	r3, 80015de <DMA2_Stream4_IRQHandler+0x22>
 80015d4:	4798      	blx	r3
 80015d6:	68ab      	ldr	r3, [r5, #8]
 80015d8:	f043 0340 	orr.w	r3, r3, #64	@ 0x40
 80015dc:	60ab      	str	r3, [r5, #8]
 80015de:	6823      	ldr	r3, [r4, #0]
 80015e0:	075b      	lsls	r3, r3, #29
 80015e2:	d509      	bpl.n	80015f8 <DMA2_Stream4_IRQHandler+0x3c>
 80015e4:	4b28      	ldr	r3, [pc, #160]	@ (8001688 <DMA2_Stream4_IRQHandler+0xcc>)
 80015e6:	681b      	ldr	r3, [r3, #0]
 80015e8:	6c1b      	ldr	r3, [r3, #64]	@ 0x40
 80015ea:	b12b      	cbz	r3, 80015f8 <DMA2_Stream4_IRQHandler+0x3c>
 80015ec:	4798      	blx	r3
 80015ee:	4a24      	ldr	r2, [pc, #144]	@ (8001680 <DMA2_Stream4_IRQHandler+0xc4>)
 80015f0:	68d3      	ldr	r3, [r2, #12]
 80015f2:	f043 0304 	orr.w	r3, r3, #4
 80015f6:	60d3      	str	r3, [r2, #12]
 80015f8:	6823      	ldr	r3, [r4, #0]
 80015fa:	071e      	lsls	r6, r3, #28
 80015fc:	d509      	bpl.n	8001612 <DMA2_Stream4_IRQHandler+0x56>
 80015fe:	4b22      	ldr	r3, [pc, #136]	@ (8001688 <DMA2_Stream4_IRQHandler+0xcc>)
 8001600:	681b      	ldr	r3, [r3, #0]
 8001602:	6c5b      	ldr	r3, [r3, #68]	@ 0x44
 8001604:	b12b      	cbz	r3, 8001612 <DMA2_Stream4_IRQHandler+0x56>
 8001606:	4798      	blx	r3
 8001608:	4a1d      	ldr	r2, [pc, #116]	@ (8001680 <DMA2_Stream4_IRQHandler+0xc4>)
 800160a:	68d3      	ldr	r3, [r2, #12]
 800160c:	f043 0308 	orr.w	r3, r3, #8
 8001610:	60d3      	str	r3, [r2, #12]
 8001612:	6823      	ldr	r3, [r4, #0]
 8001614:	06dd      	lsls	r5, r3, #27
 8001616:	d515      	bpl.n	8001644 <DMA2_Stream4_IRQHandler+0x88>
 8001618:	4d1b      	ldr	r5, [pc, #108]	@ (8001688 <DMA2_Stream4_IRQHandler+0xcc>)
 800161a:	682b      	ldr	r3, [r5, #0]
 800161c:	6c9b      	ldr	r3, [r3, #72]	@ 0x48
 800161e:	b18b      	cbz	r3, 8001644 <DMA2_Stream4_IRQHandler+0x88>
 8001620:	4798      	blx	r3
 8001622:	4a17      	ldr	r2, [pc, #92]	@ (8001680 <DMA2_Stream4_IRQHandler+0xc4>)
 8001624:	68d3      	ldr	r3, [r2, #12]
 8001626:	f043 0310 	orr.w	r3, r3, #16
 800162a:	60d3      	str	r3, [r2, #12]
 800162c:	682b      	ldr	r3, [r5, #0]
 800162e:	6b9a      	ldr	r2, [r3, #56]	@ 0x38
 8001630:	f5b2 2f80 	cmp.w	r2, #262144	@ 0x40000
 8001634:	d106      	bne.n	8001644 <DMA2_Stream4_IRQHandler+0x88>
 8001636:	685a      	ldr	r2, [r3, #4]
 8001638:	6812      	ldr	r2, [r2, #0]
 800163a:	0350      	lsls	r0, r2, #13
 800163c:	bf4c      	ite	mi
 800163e:	6d1b      	ldrmi	r3, [r3, #80]	@ 0x50
 8001640:	6d5b      	ldrpl	r3, [r3, #84]	@ 0x54
 8001642:	4798      	blx	r3
 8001644:	6823      	ldr	r3, [r4, #0]
 8001646:	0699      	lsls	r1, r3, #26
 8001648:	d518      	bpl.n	800167c <DMA2_Stream4_IRQHandler+0xc0>
 800164a:	4c0f      	ldr	r4, [pc, #60]	@ (8001688 <DMA2_Stream4_IRQHandler+0xcc>)
 800164c:	6823      	ldr	r3, [r4, #0]
 800164e:	6cda      	ldr	r2, [r3, #76]	@ 0x4c
 8001650:	b1a2      	cbz	r2, 800167c <DMA2_Stream4_IRQHandler+0xc0>
 8001652:	6c9b      	ldr	r3, [r3, #72]	@ 0x48
 8001654:	4798      	blx	r3
 8001656:	4a0a      	ldr	r2, [pc, #40]	@ (8001680 <DMA2_Stream4_IRQHandler+0xc4>)
 8001658:	68d3      	ldr	r3, [r2, #12]
 800165a:	f043 0320 	orr.w	r3, r3, #32
 800165e:	60d3      	str	r3, [r2, #12]
 8001660:	6823      	ldr	r3, [r4, #0]
 8001662:	6b9a      	ldr	r2, [r3, #56]	@ 0x38
 8001664:	f5b2 2f80 	cmp.w	r2, #262144	@ 0x40000
 8001668:	d108      	bne.n	800167c <DMA2_Stream4_IRQHandler+0xc0>
 800166a:	685a      	ldr	r2, [r3, #4]
 800166c:	6812      	ldr	r2, [r2, #0]
 800166e:	0352      	lsls	r2, r2, #13
 8001670:	e8bd 4070 	ldmia.w	sp!, {r4, r5, r6, lr}
 8001674:	bf4c      	ite	mi
 8001676:	6d1b      	ldrmi	r3, [r3, #80]	@ 0x50
 8001678:	6d5b      	ldrpl	r3, [r3, #84]	@ 0x54
 800167a:	4718      	bx	r3
 800167c:	bd70      	pop	{r4, r5, r6, pc}
 800167e:	bf00      	nop
 8001680:	40026400 	.word	0x40026400
 8001684:	20000020 	.word	0x20000020
 8001688:	20000034 	.word	0x20000034

0800168c <DMA2_Stream5_IRQHandler>:
 800168c:	b570      	push	{r4, r5, r6, lr}
 800168e:	4d30      	ldr	r5, [pc, #192]	@ (8001750 <DMA2_Stream5_IRQHandler+0xc4>)
 8001690:	4c30      	ldr	r4, [pc, #192]	@ (8001754 <DMA2_Stream5_IRQHandler+0xc8>)
 8001692:	686b      	ldr	r3, [r5, #4]
 8001694:	6023      	str	r3, [r4, #0]
 8001696:	6823      	ldr	r3, [r4, #0]
 8001698:	065a      	lsls	r2, r3, #25
 800169a:	d508      	bpl.n	80016ae <DMA2_Stream5_IRQHandler+0x22>
 800169c:	4b2e      	ldr	r3, [pc, #184]	@ (8001758 <DMA2_Stream5_IRQHandler+0xcc>)
 800169e:	681b      	ldr	r3, [r3, #0]
 80016a0:	6bdb      	ldr	r3, [r3, #60]	@ 0x3c
 80016a2:	b123      	cbz	r3, 80016ae <DMA2_Stream5_IRQHandler+0x22>
 80016a4:	4798      	blx	r3
 80016a6:	68eb      	ldr	r3, [r5, #12]
 80016a8:	f043 0340 	orr.w	r3, r3, #64	@ 0x40
 80016ac:	60eb      	str	r3, [r5, #12]
 80016ae:	6823      	ldr	r3, [r4, #0]
 80016b0:	05db      	lsls	r3, r3, #23
 80016b2:	d509      	bpl.n	80016c8 <DMA2_Stream5_IRQHandler+0x3c>
 80016b4:	4b28      	ldr	r3, [pc, #160]	@ (8001758 <DMA2_Stream5_IRQHandler+0xcc>)
 80016b6:	681b      	ldr	r3, [r3, #0]
 80016b8:	6c1b      	ldr	r3, [r3, #64]	@ 0x40
 80016ba:	b12b      	cbz	r3, 80016c8 <DMA2_Stream5_IRQHandler+0x3c>
 80016bc:	4798      	blx	r3
 80016be:	4a24      	ldr	r2, [pc, #144]	@ (8001750 <DMA2_Stream5_IRQHandler+0xc4>)
 80016c0:	68d3      	ldr	r3, [r2, #12]
 80016c2:	f443 7380 	orr.w	r3, r3, #256	@ 0x100
 80016c6:	60d3      	str	r3, [r2, #12]
 80016c8:	6823      	ldr	r3, [r4, #0]
 80016ca:	059e      	lsls	r6, r3, #22
 80016cc:	d509      	bpl.n	80016e2 <DMA2_Stream5_IRQHandler+0x56>
 80016ce:	4b22      	ldr	r3, [pc, #136]	@ (8001758 <DMA2_Stream5_IRQHandler+0xcc>)
 80016d0:	681b      	ldr	r3, [r3, #0]
 80016d2:	6c5b      	ldr	r3, [r3, #68]	@ 0x44
 80016d4:	b12b      	cbz	r3, 80016e2 <DMA2_Stream5_IRQHandler+0x56>
 80016d6:	4798      	blx	r3
 80016d8:	4a1d      	ldr	r2, [pc, #116]	@ (8001750 <DMA2_Stream5_IRQHandler+0xc4>)
 80016da:	68d3      	ldr	r3, [r2, #12]
 80016dc:	f443 7300 	orr.w	r3, r3, #512	@ 0x200
 80016e0:	60d3      	str	r3, [r2, #12]
 80016e2:	6823      	ldr	r3, [r4, #0]
 80016e4:	055d      	lsls	r5, r3, #21
 80016e6:	d515      	bpl.n	8001714 <DMA2_Stream5_IRQHandler+0x88>
 80016e8:	4d1b      	ldr	r5, [pc, #108]	@ (8001758 <DMA2_Stream5_IRQHandler+0xcc>)
 80016ea:	682b      	ldr	r3, [r5, #0]
 80016ec:	6c9b      	ldr	r3, [r3, #72]	@ 0x48
 80016ee:	b18b      	cbz	r3, 8001714 <DMA2_Stream5_IRQHandler+0x88>
 80016f0:	4798      	blx	r3
 80016f2:	4a17      	ldr	r2, [pc, #92]	@ (8001750 <DMA2_Stream5_IRQHandler+0xc4>)
 80016f4:	68d3      	ldr	r3, [r2, #12]
 80016f6:	f443 6380 	orr.w	r3, r3, #1024	@ 0x400
 80016fa:	60d3      	str	r3, [r2, #12]
 80016fc:	682b      	ldr	r3, [r5, #0]
 80016fe:	6b9a      	ldr	r2, [r3, #56]	@ 0x38
 8001700:	f5b2 2f80 	cmp.w	r2, #262144	@ 0x40000
 8001704:	d106      	bne.n	8001714 <DMA2_Stream5_IRQHandler+0x88>
 8001706:	685a      	ldr	r2, [r3, #4]
 8001708:	6812      	ldr	r2, [r2, #0]
 800170a:	0350      	lsls	r0, r2, #13
 800170c:	bf4c      	ite	mi
 800170e:	6d1b      	ldrmi	r3, [r3, #80]	@ 0x50
 8001710:	6d5b      	ldrpl	r3, [r3, #84]	@ 0x54
 8001712:	4798      	blx	r3
 8001714:	6823      	ldr	r3, [r4, #0]
 8001716:	0519      	lsls	r1, r3, #20
 8001718:	d518      	bpl.n	800174c <DMA2_Stream5_IRQHandler+0xc0>
 800171a:	4c0f      	ldr	r4, [pc, #60]	@ (8001758 <DMA2_Stream5_IRQHandler+0xcc>)
 800171c:	6823      	ldr	r3, [r4, #0]
 800171e:	6cda      	ldr	r2, [r3, #76]	@ 0x4c
 8001720:	b1a2      	cbz	r2, 800174c <DMA2_Stream5_IRQHandler+0xc0>
 8001722:	6c9b      	ldr	r3, [r3, #72]	@ 0x48
 8001724:	4798      	blx	r3
 8001726:	4a0a      	ldr	r2, [pc, #40]	@ (8001750 <DMA2_Stream5_IRQHandler+0xc4>)
 8001728:	68d3      	ldr	r3, [r2, #12]
 800172a:	f443 6300 	orr.w	r3, r3, #2048	@ 0x800
 800172e:	60d3      	str	r3, [r2, #12]
 8001730:	6823      	ldr	r3, [r4, #0]
 8001732:	6b9a      	ldr	r2, [r3, #56]	@ 0x38
 8001734:	f5b2 2f80 	cmp.w	r2, #262144	@ 0x40000
 8001738:	d108      	bne.n	800174c <DMA2_Stream5_IRQHandler+0xc0>
 800173a:	685a      	ldr	r2, [r3, #4]
 800173c:	6812      	ldr	r2, [r2, #0]
 800173e:	0352      	lsls	r2, r2, #13
 8001740:	e8bd 4070 	ldmia.w	sp!, {r4, r5, r6, lr}
 8001744:	bf4c      	ite	mi
 8001746:	6d1b      	ldrmi	r3, [r3, #80]	@ 0x50
 8001748:	6d5b      	ldrpl	r3, [r3, #84]	@ 0x54
 800174a:	4718      	bx	r3
 800174c:	bd70      	pop	{r4, r5, r6, pc}
 800174e:	bf00      	nop
 8001750:	40026400 	.word	0x40026400
 8001754:	20000020 	.word	0x20000020
 8001758:	20000030 	.word	0x20000030

0800175c <DMA2_Stream6_IRQHandler>:
 800175c:	b570      	push	{r4, r5, r6, lr}
 800175e:	4d30      	ldr	r5, [pc, #192]	@ (8001820 <DMA2_Stream6_IRQHandler+0xc4>)
 8001760:	4c30      	ldr	r4, [pc, #192]	@ (8001824 <DMA2_Stream6_IRQHandler+0xc8>)
 8001762:	686b      	ldr	r3, [r5, #4]
 8001764:	6023      	str	r3, [r4, #0]
 8001766:	6823      	ldr	r3, [r4, #0]
 8001768:	03da      	lsls	r2, r3, #15
 800176a:	d508      	bpl.n	800177e <DMA2_Stream6_IRQHandler+0x22>
 800176c:	4b2e      	ldr	r3, [pc, #184]	@ (8001828 <DMA2_Stream6_IRQHandler+0xcc>)
 800176e:	681b      	ldr	r3, [r3, #0]
 8001770:	6bdb      	ldr	r3, [r3, #60]	@ 0x3c
 8001772:	b123      	cbz	r3, 800177e <DMA2_Stream6_IRQHandler+0x22>
 8001774:	4798      	blx	r3
 8001776:	68eb      	ldr	r3, [r5, #12]
 8001778:	f443 3380 	orr.w	r3, r3, #65536	@ 0x10000
 800177c:	60eb      	str	r3, [r5, #12]
 800177e:	6823      	ldr	r3, [r4, #0]
 8001780:	035b      	lsls	r3, r3, #13
 8001782:	d509      	bpl.n	8001798 <DMA2_Stream6_IRQHandler+0x3c>
 8001784:	4b28      	ldr	r3, [pc, #160]	@ (8001828 <DMA2_Stream6_IRQHandler+0xcc>)
 8001786:	681b      	ldr	r3, [r3, #0]
 8001788:	6c1b      	ldr	r3, [r3, #64]	@ 0x40
 800178a:	b12b      	cbz	r3, 8001798 <DMA2_Stream6_IRQHandler+0x3c>
 800178c:	4798      	blx	r3
 800178e:	4a24      	ldr	r2, [pc, #144]	@ (8001820 <DMA2_Stream6_IRQHandler+0xc4>)
 8001790:	68d3      	ldr	r3, [r2, #12]
 8001792:	f443 2380 	orr.w	r3, r3, #262144	@ 0x40000
 8001796:	60d3      	str	r3, [r2, #12]
 8001798:	6823      	ldr	r3, [r4, #0]
 800179a:	031e      	lsls	r6, r3, #12
 800179c:	d509      	bpl.n	80017b2 <DMA2_Stream6_IRQHandler+0x56>
 800179e:	4b22      	ldr	r3, [pc, #136]	@ (8001828 <DMA2_Stream6_IRQHandler+0xcc>)
 80017a0:	681b      	ldr	r3, [r3, #0]
 80017a2:	6c5b      	ldr	r3, [r3, #68]	@ 0x44
 80017a4:	b12b      	cbz	r3, 80017b2 <DMA2_Stream6_IRQHandler+0x56>
 80017a6:	4798      	blx	r3
 80017a8:	4a1d      	ldr	r2, [pc, #116]	@ (8001820 <DMA2_Stream6_IRQHandler+0xc4>)
 80017aa:	68d3      	ldr	r3, [r2, #12]
 80017ac:	f443 2300 	orr.w	r3, r3, #524288	@ 0x80000
 80017b0:	60d3      	str	r3, [r2, #12]
 80017b2:	6823      	ldr	r3, [r4, #0]
 80017b4:	02dd      	lsls	r5, r3, #11
 80017b6:	d515      	bpl.n	80017e4 <DMA2_Stream6_IRQHandler+0x88>
 80017b8:	4d1b      	ldr	r5, [pc, #108]	@ (8001828 <DMA2_Stream6_IRQHandler+0xcc>)
 80017ba:	682b      	ldr	r3, [r5, #0]
 80017bc:	6c9b      	ldr	r3, [r3, #72]	@ 0x48
 80017be:	b18b      	cbz	r3, 80017e4 <DMA2_Stream6_IRQHandler+0x88>
 80017c0:	4798      	blx	r3
 80017c2:	4a17      	ldr	r2, [pc, #92]	@ (8001820 <DMA2_Stream6_IRQHandler+0xc4>)
 80017c4:	68d3      	ldr	r3, [r2, #12]
 80017c6:	f443 1380 	orr.w	r3, r3, #1048576	@ 0x100000
 80017ca:	60d3      	str	r3, [r2, #12]
 80017cc:	682b      	ldr	r3, [r5, #0]
 80017ce:	6b9a      	ldr	r2, [r3, #56]	@ 0x38
 80017d0:	f5b2 2f80 	cmp.w	r2, #262144	@ 0x40000
 80017d4:	d106      	bne.n	80017e4 <DMA2_Stream6_IRQHandler+0x88>
 80017d6:	685a      	ldr	r2, [r3, #4]
 80017d8:	6812      	ldr	r2, [r2, #0]
 80017da:	0350      	lsls	r0, r2, #13
 80017dc:	bf4c      	ite	mi
 80017de:	6d1b      	ldrmi	r3, [r3, #80]	@ 0x50
 80017e0:	6d5b      	ldrpl	r3, [r3, #84]	@ 0x54
 80017e2:	4798      	blx	r3
 80017e4:	6823      	ldr	r3, [r4, #0]
 80017e6:	0299      	lsls	r1, r3, #10
 80017e8:	d518      	bpl.n	800181c <DMA2_Stream6_IRQHandler+0xc0>
 80017ea:	4c0f      	ldr	r4, [pc, #60]	@ (8001828 <DMA2_Stream6_IRQHandler+0xcc>)
 80017ec:	6823      	ldr	r3, [r4, #0]
 80017ee:	6cda      	ldr	r2, [r3, #76]	@ 0x4c
 80017f0:	b1a2      	cbz	r2, 800181c <DMA2_Stream6_IRQHandler+0xc0>
 80017f2:	6c9b      	ldr	r3, [r3, #72]	@ 0x48
 80017f4:	4798      	blx	r3
 80017f6:	4a0a      	ldr	r2, [pc, #40]	@ (8001820 <DMA2_Stream6_IRQHandler+0xc4>)
 80017f8:	68d3      	ldr	r3, [r2, #12]
 80017fa:	f443 1300 	orr.w	r3, r3, #2097152	@ 0x200000
 80017fe:	60d3      	str	r3, [r2, #12]
 8001800:	6823      	ldr	r3, [r4, #0]
 8001802:	6b9a      	ldr	r2, [r3, #56]	@ 0x38
 8001804:	f5b2 2f80 	cmp.w	r2, #262144	@ 0x40000
 8001808:	d108      	bne.n	800181c <DMA2_Stream6_IRQHandler+0xc0>
 800180a:	685a      	ldr	r2, [r3, #4]
 800180c:	6812      	ldr	r2, [r2, #0]
 800180e:	0352      	lsls	r2, r2, #13
 8001810:	e8bd 4070 	ldmia.w	sp!, {r4, r5, r6, lr}
 8001814:	bf4c      	ite	mi
 8001816:	6d1b      	ldrmi	r3, [r3, #80]	@ 0x50
 8001818:	6d5b      	ldrpl	r3, [r3, #84]	@ 0x54
 800181a:	4718      	bx	r3
 800181c:	bd70      	pop	{r4, r5, r6, pc}
 800181e:	bf00      	nop
 8001820:	40026400 	.word	0x40026400
 8001824:	20000020 	.word	0x20000020
 8001828:	2000002c 	.word	0x2000002c

0800182c <DMA2_Stream7_IRQHandler>:
 800182c:	b570      	push	{r4, r5, r6, lr}
 800182e:	4d30      	ldr	r5, [pc, #192]	@ (80018f0 <DMA2_Stream7_IRQHandler+0xc4>)
 8001830:	4c30      	ldr	r4, [pc, #192]	@ (80018f4 <DMA2_Stream7_IRQHandler+0xc8>)
 8001832:	686b      	ldr	r3, [r5, #4]
 8001834:	6023      	str	r3, [r4, #0]
 8001836:	6823      	ldr	r3, [r4, #0]
 8001838:	025a      	lsls	r2, r3, #9
 800183a:	d508      	bpl.n	800184e <DMA2_Stream7_IRQHandler+0x22>
 800183c:	4b2e      	ldr	r3, [pc, #184]	@ (80018f8 <DMA2_Stream7_IRQHandler+0xcc>)
 800183e:	681b      	ldr	r3, [r3, #0]
 8001840:	6bdb      	ldr	r3, [r3, #60]	@ 0x3c
 8001842:	b123      	cbz	r3, 800184e <DMA2_Stream7_IRQHandler+0x22>
 8001844:	4798      	blx	r3
 8001846:	68eb      	ldr	r3, [r5, #12]
 8001848:	f443 0380 	orr.w	r3, r3, #4194304	@ 0x400000
 800184c:	60eb      	str	r3, [r5, #12]
 800184e:	6823      	ldr	r3, [r4, #0]
 8001850:	01db      	lsls	r3, r3, #7
 8001852:	d509      	bpl.n	8001868 <DMA2_Stream7_IRQHandler+0x3c>
 8001854:	4b28      	ldr	r3, [pc, #160]	@ (80018f8 <DMA2_Stream7_IRQHandler+0xcc>)
 8001856:	681b      	ldr	r3, [r3, #0]
 8001858:	6c1b      	ldr	r3, [r3, #64]	@ 0x40
 800185a:	b12b      	cbz	r3, 8001868 <DMA2_Stream7_IRQHandler+0x3c>
 800185c:	4798      	blx	r3
 800185e:	4a24      	ldr	r2, [pc, #144]	@ (80018f0 <DMA2_Stream7_IRQHandler+0xc4>)
 8001860:	68d3      	ldr	r3, [r2, #12]
 8001862:	f043 7380 	orr.w	r3, r3, #16777216	@ 0x1000000
 8001866:	60d3      	str	r3, [r2, #12]
 8001868:	6823      	ldr	r3, [r4, #0]
 800186a:	019e      	lsls	r6, r3, #6
 800186c:	d509      	bpl.n	8001882 <DMA2_Stream7_IRQHandler+0x56>
 800186e:	4b22      	ldr	r3, [pc, #136]	@ (80018f8 <DMA2_Stream7_IRQHandler+0xcc>)
 8001870:	681b      	ldr	r3, [r3, #0]
 8001872:	6c5b      	ldr	r3, [r3, #68]	@ 0x44
 8001874:	b12b      	cbz	r3, 8001882 <DMA2_Stream7_IRQHandler+0x56>
 8001876:	4798      	blx	r3
 8001878:	4a1d      	ldr	r2, [pc, #116]	@ (80018f0 <DMA2_Stream7_IRQHandler+0xc4>)
 800187a:	68d3      	ldr	r3, [r2, #12]
 800187c:	f043 7300 	orr.w	r3, r3, #33554432	@ 0x2000000
 8001880:	60d3      	str	r3, [r2, #12]
 8001882:	6823      	ldr	r3, [r4, #0]
 8001884:	015d      	lsls	r5, r3, #5
 8001886:	d515      	bpl.n	80018b4 <DMA2_Stream7_IRQHandler+0x88>
 8001888:	4d1b      	ldr	r5, [pc, #108]	@ (80018f8 <DMA2_Stream7_IRQHandler+0xcc>)
 800188a:	682b      	ldr	r3, [r5, #0]
 800188c:	6c9b      	ldr	r3, [r3, #72]	@ 0x48
 800188e:	b18b      	cbz	r3, 80018b4 <DMA2_Stream7_IRQHandler+0x88>
 8001890:	4798      	blx	r3
 8001892:	4a17      	ldr	r2, [pc, #92]	@ (80018f0 <DMA2_Stream7_IRQHandler+0xc4>)
 8001894:	68d3      	ldr	r3, [r2, #12]
 8001896:	f043 6380 	orr.w	r3, r3, #67108864	@ 0x4000000
 800189a:	60d3      	str	r3, [r2, #12]
 800189c:	682b      	ldr	r3, [r5, #0]
 800189e:	6b9a      	ldr	r2, [r3, #56]	@ 0x38
 80018a0:	f5b2 2f80 	cmp.w	r2, #262144	@ 0x40000
 80018a4:	d106      	bne.n	80018b4 <DMA2_Stream7_IRQHandler+0x88>
 80018a6:	685a      	ldr	r2, [r3, #4]
 80018a8:	6812      	ldr	r2, [r2, #0]
 80018aa:	0350      	lsls	r0, r2, #13
 80018ac:	bf4c      	ite	mi
 80018ae:	6d1b      	ldrmi	r3, [r3, #80]	@ 0x50
 80018b0:	6d5b      	ldrpl	r3, [r3, #84]	@ 0x54
 80018b2:	4798      	blx	r3
 80018b4:	6823      	ldr	r3, [r4, #0]
 80018b6:	0119      	lsls	r1, r3, #4
 80018b8:	d518      	bpl.n	80018ec <DMA2_Stream7_IRQHandler+0xc0>
 80018ba:	4c0f      	ldr	r4, [pc, #60]	@ (80018f8 <DMA2_Stream7_IRQHandler+0xcc>)
 80018bc:	6823      	ldr	r3, [r4, #0]
 80018be:	6cda      	ldr	r2, [r3, #76]	@ 0x4c
 80018c0:	b1a2      	cbz	r2, 80018ec <DMA2_Stream7_IRQHandler+0xc0>
 80018c2:	6c9b      	ldr	r3, [r3, #72]	@ 0x48
 80018c4:	4798      	blx	r3
 80018c6:	4a0a      	ldr	r2, [pc, #40]	@ (80018f0 <DMA2_Stream7_IRQHandler+0xc4>)
 80018c8:	68d3      	ldr	r3, [r2, #12]
 80018ca:	f043 6300 	orr.w	r3, r3, #134217728	@ 0x8000000
 80018ce:	60d3      	str	r3, [r2, #12]
 80018d0:	6823      	ldr	r3, [r4, #0]
 80018d2:	6b9a      	ldr	r2, [r3, #56]	@ 0x38
 80018d4:	f5b2 2f80 	cmp.w	r2, #262144	@ 0x40000
 80018d8:	d108      	bne.n	80018ec <DMA2_Stream7_IRQHandler+0xc0>
 80018da:	685a      	ldr	r2, [r3, #4]
 80018dc:	6812      	ldr	r2, [r2, #0]
 80018de:	0352      	lsls	r2, r2, #13
 80018e0:	e8bd 4070 	ldmia.w	sp!, {r4, r5, r6, lr}
 80018e4:	bf4c      	ite	mi
 80018e6:	6d1b      	ldrmi	r3, [r3, #80]	@ 0x50
 80018e8:	6d5b      	ldrpl	r3, [r3, #84]	@ 0x54
 80018ea:	4718      	bx	r3
 80018ec:	bd70      	pop	{r4, r5, r6, pc}
 80018ee:	bf00      	nop
 80018f0:	40026400 	.word	0x40026400
 80018f4:	20000020 	.word	0x20000020
 80018f8:	20000028 	.word	0x20000028

080018fc <DMA_Clock_Enable>:
 80018fc:	6803      	ldr	r3, [r0, #0]
 80018fe:	4a09      	ldr	r2, [pc, #36]	@ (8001924 <DMA_Clock_Enable+0x28>)
 8001900:	4293      	cmp	r3, r2
 8001902:	d106      	bne.n	8001912 <DMA_Clock_Enable+0x16>
 8001904:	f5a2 5220 	sub.w	r2, r2, #10240	@ 0x2800
 8001908:	6b13      	ldr	r3, [r2, #48]	@ 0x30
 800190a:	f443 1300 	orr.w	r3, r3, #2097152	@ 0x200000
 800190e:	6313      	str	r3, [r2, #48]	@ 0x30
 8001910:	4770      	bx	lr
 8001912:	4a05      	ldr	r2, [pc, #20]	@ (8001928 <DMA_Clock_Enable+0x2c>)
 8001914:	4293      	cmp	r3, r2
 8001916:	d1fb      	bne.n	8001910 <DMA_Clock_Enable+0x14>
 8001918:	f5a2 5230 	sub.w	r2, r2, #11264	@ 0x2c00
 800191c:	6b13      	ldr	r3, [r2, #48]	@ 0x30
 800191e:	f443 0380 	orr.w	r3, r3, #4194304	@ 0x400000
 8001922:	e7f4      	b.n	800190e <DMA_Clock_Enable+0x12>
 8001924:	40026000 	.word	0x40026000
 8001928:	40026400 	.word	0x40026400

0800192c <DMA_Init>:
 800192c:	b510      	push	{r4, lr}
 800192e:	f7ff ffe5 	bl	80018fc <DMA_Clock_Enable>
 8001932:	6843      	ldr	r3, [r0, #4]
 8001934:	681a      	ldr	r2, [r3, #0]
 8001936:	07d1      	lsls	r1, r2, #31
 8001938:	4604      	mov	r4, r0
 800193a:	d506      	bpl.n	800194a <DMA_Init+0x1e>
 800193c:	681a      	ldr	r2, [r3, #0]
 800193e:	f022 0201 	bic.w	r2, r2, #1
 8001942:	601a      	str	r2, [r3, #0]
 8001944:	681a      	ldr	r2, [r3, #0]
 8001946:	07d2      	lsls	r2, r2, #31
 8001948:	d4fc      	bmi.n	8001944 <DMA_Init+0x18>
 800194a:	681a      	ldr	r2, [r3, #0]
 800194c:	7a21      	ldrb	r1, [r4, #8]
 800194e:	ea42 6241 	orr.w	r2, r2, r1, lsl #25
 8001952:	601a      	str	r2, [r3, #0]
 8001954:	681a      	ldr	r2, [r3, #0]
 8001956:	69a1      	ldr	r1, [r4, #24]
 8001958:	430a      	orrs	r2, r1
 800195a:	601a      	str	r2, [r3, #0]
 800195c:	681a      	ldr	r2, [r3, #0]
 800195e:	68e1      	ldr	r1, [r4, #12]
 8001960:	430a      	orrs	r2, r1
 8001962:	601a      	str	r2, [r3, #0]
 8001964:	681a      	ldr	r2, [r3, #0]
 8001966:	6961      	ldr	r1, [r4, #20]
 8001968:	430a      	orrs	r2, r1
 800196a:	601a      	str	r2, [r3, #0]
 800196c:	681a      	ldr	r2, [r3, #0]
 800196e:	6aa1      	ldr	r1, [r4, #40]	@ 0x28
 8001970:	430a      	orrs	r2, r1
 8001972:	601a      	str	r2, [r3, #0]
 8001974:	681a      	ldr	r2, [r3, #0]
 8001976:	6a61      	ldr	r1, [r4, #36]	@ 0x24
 8001978:	430a      	orrs	r2, r1
 800197a:	601a      	str	r2, [r3, #0]
 800197c:	681a      	ldr	r2, [r3, #0]
 800197e:	6921      	ldr	r1, [r4, #16]
 8001980:	430a      	orrs	r2, r1
 8001982:	601a      	str	r2, [r3, #0]
 8001984:	69e2      	ldr	r2, [r4, #28]
 8001986:	2a00      	cmp	r2, #0
 8001988:	d029      	beq.n	80019de <DMA_Init+0xb2>
 800198a:	0610      	lsls	r0, r2, #24
 800198c:	bf42      	ittt	mi
 800198e:	6959      	ldrmi	r1, [r3, #20]
 8001990:	4311      	orrmi	r1, r2
 8001992:	6159      	strmi	r1, [r3, #20]
 8001994:	06d1      	lsls	r1, r2, #27
 8001996:	bf42      	ittt	mi
 8001998:	6819      	ldrmi	r1, [r3, #0]
 800199a:	f041 0110 	orrmi.w	r1, r1, #16
 800199e:	6019      	strmi	r1, [r3, #0]
 80019a0:	0710      	lsls	r0, r2, #28
 80019a2:	bf42      	ittt	mi
 80019a4:	6819      	ldrmi	r1, [r3, #0]
 80019a6:	f041 0108 	orrmi.w	r1, r1, #8
 80019aa:	6019      	strmi	r1, [r3, #0]
 80019ac:	0751      	lsls	r1, r2, #29
 80019ae:	bf42      	ittt	mi
 80019b0:	6819      	ldrmi	r1, [r3, #0]
 80019b2:	f041 0104 	orrmi.w	r1, r1, #4
 80019b6:	6019      	strmi	r1, [r3, #0]
 80019b8:	0792      	lsls	r2, r2, #30
 80019ba:	bf48      	it	mi
 80019bc:	681a      	ldrmi	r2, [r3, #0]
 80019be:	494b      	ldr	r1, [pc, #300]	@ (8001aec <DMA_Init+0x1c0>)
 80019c0:	bf44      	itt	mi
 80019c2:	f042 0202 	orrmi.w	r2, r2, #2
 80019c6:	601a      	strmi	r2, [r3, #0]
 80019c8:	6822      	ldr	r2, [r4, #0]
 80019ca:	428a      	cmp	r2, r1
 80019cc:	d14b      	bne.n	8001a66 <DMA_Init+0x13a>
 80019ce:	4a48      	ldr	r2, [pc, #288]	@ (8001af0 <DMA_Init+0x1c4>)
 80019d0:	4293      	cmp	r3, r2
 80019d2:	d117      	bne.n	8001a04 <DMA_Init+0xd8>
 80019d4:	4b47      	ldr	r3, [pc, #284]	@ (8001af4 <DMA_Init+0x1c8>)
 80019d6:	200b      	movs	r0, #11
 80019d8:	601c      	str	r4, [r3, #0]
 80019da:	f7ff f8af 	bl	8000b3c <__NVIC_EnableIRQ.part.0>
 80019de:	6863      	ldr	r3, [r4, #4]
 80019e0:	8c22      	ldrh	r2, [r4, #32]
 80019e2:	6819      	ldr	r1, [r3, #0]
 80019e4:	430a      	orrs	r2, r1
 80019e6:	601a      	str	r2, [r3, #0]
 80019e8:	6819      	ldr	r1, [r3, #0]
 80019ea:	8c62      	ldrh	r2, [r4, #34]	@ 0x22
 80019ec:	430a      	orrs	r2, r1
 80019ee:	601a      	str	r2, [r3, #0]
 80019f0:	69a2      	ldr	r2, [r4, #24]
 80019f2:	f5b2 7f80 	cmp.w	r2, #256	@ 0x100
 80019f6:	d171      	bne.n	8001adc <DMA_Init+0x1b0>
 80019f8:	681a      	ldr	r2, [r3, #0]
 80019fa:	f442 7280 	orr.w	r2, r2, #256	@ 0x100
 80019fe:	601a      	str	r2, [r3, #0]
 8001a00:	2001      	movs	r0, #1
 8001a02:	bd10      	pop	{r4, pc}
 8001a04:	4a3c      	ldr	r2, [pc, #240]	@ (8001af8 <DMA_Init+0x1cc>)
 8001a06:	4293      	cmp	r3, r2
 8001a08:	d103      	bne.n	8001a12 <DMA_Init+0xe6>
 8001a0a:	4b3c      	ldr	r3, [pc, #240]	@ (8001afc <DMA_Init+0x1d0>)
 8001a0c:	200c      	movs	r0, #12
 8001a0e:	601c      	str	r4, [r3, #0]
 8001a10:	e7e3      	b.n	80019da <DMA_Init+0xae>
 8001a12:	4a3b      	ldr	r2, [pc, #236]	@ (8001b00 <DMA_Init+0x1d4>)
 8001a14:	4293      	cmp	r3, r2
 8001a16:	d103      	bne.n	8001a20 <DMA_Init+0xf4>
 8001a18:	4b3a      	ldr	r3, [pc, #232]	@ (8001b04 <DMA_Init+0x1d8>)
 8001a1a:	200d      	movs	r0, #13
 8001a1c:	601c      	str	r4, [r3, #0]
 8001a1e:	e7dc      	b.n	80019da <DMA_Init+0xae>
 8001a20:	4a39      	ldr	r2, [pc, #228]	@ (8001b08 <DMA_Init+0x1dc>)
 8001a22:	4293      	cmp	r3, r2
 8001a24:	d103      	bne.n	8001a2e <DMA_Init+0x102>
 8001a26:	4b39      	ldr	r3, [pc, #228]	@ (8001b0c <DMA_Init+0x1e0>)
 8001a28:	200e      	movs	r0, #14
 8001a2a:	601c      	str	r4, [r3, #0]
 8001a2c:	e7d5      	b.n	80019da <DMA_Init+0xae>
 8001a2e:	4a38      	ldr	r2, [pc, #224]	@ (8001b10 <DMA_Init+0x1e4>)
 8001a30:	4293      	cmp	r3, r2
 8001a32:	d103      	bne.n	8001a3c <DMA_Init+0x110>
 8001a34:	4b37      	ldr	r3, [pc, #220]	@ (8001b14 <DMA_Init+0x1e8>)
 8001a36:	200f      	movs	r0, #15
 8001a38:	601c      	str	r4, [r3, #0]
 8001a3a:	e7ce      	b.n	80019da <DMA_Init+0xae>
 8001a3c:	4a36      	ldr	r2, [pc, #216]	@ (8001b18 <DMA_Init+0x1ec>)
 8001a3e:	4293      	cmp	r3, r2
 8001a40:	d103      	bne.n	8001a4a <DMA_Init+0x11e>
 8001a42:	4b36      	ldr	r3, [pc, #216]	@ (8001b1c <DMA_Init+0x1f0>)
 8001a44:	2010      	movs	r0, #16
 8001a46:	601c      	str	r4, [r3, #0]
 8001a48:	e7c7      	b.n	80019da <DMA_Init+0xae>
 8001a4a:	4a35      	ldr	r2, [pc, #212]	@ (8001b20 <DMA_Init+0x1f4>)
 8001a4c:	4293      	cmp	r3, r2
 8001a4e:	d103      	bne.n	8001a58 <DMA_Init+0x12c>
 8001a50:	4b34      	ldr	r3, [pc, #208]	@ (8001b24 <DMA_Init+0x1f8>)
 8001a52:	2011      	movs	r0, #17
 8001a54:	601c      	str	r4, [r3, #0]
 8001a56:	e7c0      	b.n	80019da <DMA_Init+0xae>
 8001a58:	4a33      	ldr	r2, [pc, #204]	@ (8001b28 <DMA_Init+0x1fc>)
 8001a5a:	4293      	cmp	r3, r2
 8001a5c:	d1bf      	bne.n	80019de <DMA_Init+0xb2>
 8001a5e:	4b33      	ldr	r3, [pc, #204]	@ (8001b2c <DMA_Init+0x200>)
 8001a60:	202f      	movs	r0, #47	@ 0x2f
 8001a62:	601c      	str	r4, [r3, #0]
 8001a64:	e7b9      	b.n	80019da <DMA_Init+0xae>
 8001a66:	4932      	ldr	r1, [pc, #200]	@ (8001b30 <DMA_Init+0x204>)
 8001a68:	428a      	cmp	r2, r1
 8001a6a:	d1b8      	bne.n	80019de <DMA_Init+0xb2>
 8001a6c:	4a31      	ldr	r2, [pc, #196]	@ (8001b34 <DMA_Init+0x208>)
 8001a6e:	4293      	cmp	r3, r2
 8001a70:	d103      	bne.n	8001a7a <DMA_Init+0x14e>
 8001a72:	4b31      	ldr	r3, [pc, #196]	@ (8001b38 <DMA_Init+0x20c>)
 8001a74:	2038      	movs	r0, #56	@ 0x38
 8001a76:	601c      	str	r4, [r3, #0]
 8001a78:	e7af      	b.n	80019da <DMA_Init+0xae>
 8001a7a:	4a30      	ldr	r2, [pc, #192]	@ (8001b3c <DMA_Init+0x210>)
 8001a7c:	4293      	cmp	r3, r2
 8001a7e:	d103      	bne.n	8001a88 <DMA_Init+0x15c>
 8001a80:	4b2f      	ldr	r3, [pc, #188]	@ (8001b40 <DMA_Init+0x214>)
 8001a82:	2039      	movs	r0, #57	@ 0x39
 8001a84:	601c      	str	r4, [r3, #0]
 8001a86:	e7a8      	b.n	80019da <DMA_Init+0xae>
 8001a88:	4a2e      	ldr	r2, [pc, #184]	@ (8001b44 <DMA_Init+0x218>)
 8001a8a:	4293      	cmp	r3, r2
 8001a8c:	d103      	bne.n	8001a96 <DMA_Init+0x16a>
 8001a8e:	4b2e      	ldr	r3, [pc, #184]	@ (8001b48 <DMA_Init+0x21c>)
 8001a90:	203a      	movs	r0, #58	@ 0x3a
 8001a92:	601c      	str	r4, [r3, #0]
 8001a94:	e7a1      	b.n	80019da <DMA_Init+0xae>
 8001a96:	4a2d      	ldr	r2, [pc, #180]	@ (8001b4c <DMA_Init+0x220>)
 8001a98:	4293      	cmp	r3, r2
 8001a9a:	d103      	bne.n	8001aa4 <DMA_Init+0x178>
 8001a9c:	4b2c      	ldr	r3, [pc, #176]	@ (8001b50 <DMA_Init+0x224>)
 8001a9e:	203b      	movs	r0, #59	@ 0x3b
 8001aa0:	601c      	str	r4, [r3, #0]
 8001aa2:	e79a      	b.n	80019da <DMA_Init+0xae>
 8001aa4:	4a2b      	ldr	r2, [pc, #172]	@ (8001b54 <DMA_Init+0x228>)
 8001aa6:	4293      	cmp	r3, r2
 8001aa8:	d103      	bne.n	8001ab2 <DMA_Init+0x186>
 8001aaa:	4b2b      	ldr	r3, [pc, #172]	@ (8001b58 <DMA_Init+0x22c>)
 8001aac:	203c      	movs	r0, #60	@ 0x3c
 8001aae:	601c      	str	r4, [r3, #0]
 8001ab0:	e793      	b.n	80019da <DMA_Init+0xae>
 8001ab2:	4a2a      	ldr	r2, [pc, #168]	@ (8001b5c <DMA_Init+0x230>)
 8001ab4:	4293      	cmp	r3, r2
 8001ab6:	d103      	bne.n	8001ac0 <DMA_Init+0x194>
 8001ab8:	4b29      	ldr	r3, [pc, #164]	@ (8001b60 <DMA_Init+0x234>)
 8001aba:	2044      	movs	r0, #68	@ 0x44
 8001abc:	601c      	str	r4, [r3, #0]
 8001abe:	e78c      	b.n	80019da <DMA_Init+0xae>
 8001ac0:	4a28      	ldr	r2, [pc, #160]	@ (8001b64 <DMA_Init+0x238>)
 8001ac2:	4293      	cmp	r3, r2
 8001ac4:	d103      	bne.n	8001ace <DMA_Init+0x1a2>
 8001ac6:	4b28      	ldr	r3, [pc, #160]	@ (8001b68 <DMA_Init+0x23c>)
 8001ac8:	2045      	movs	r0, #69	@ 0x45
 8001aca:	601c      	str	r4, [r3, #0]
 8001acc:	e785      	b.n	80019da <DMA_Init+0xae>
 8001ace:	4a27      	ldr	r2, [pc, #156]	@ (8001b6c <DMA_Init+0x240>)
 8001ad0:	4293      	cmp	r3, r2
 8001ad2:	d184      	bne.n	80019de <DMA_Init+0xb2>
 8001ad4:	4b26      	ldr	r3, [pc, #152]	@ (8001b70 <DMA_Init+0x244>)
 8001ad6:	2046      	movs	r0, #70	@ 0x46
 8001ad8:	601c      	str	r4, [r3, #0]
 8001ada:	e77e      	b.n	80019da <DMA_Init+0xae>
 8001adc:	b91a      	cbnz	r2, 8001ae6 <DMA_Init+0x1ba>
 8001ade:	681a      	ldr	r2, [r3, #0]
 8001ae0:	f422 7280 	bic.w	r2, r2, #256	@ 0x100
 8001ae4:	e78b      	b.n	80019fe <DMA_Init+0xd2>
 8001ae6:	f04f 30ff 	mov.w	r0, #4294967295
 8001aea:	e78a      	b.n	8001a02 <DMA_Init+0xd6>
 8001aec:	40026000 	.word	0x40026000
 8001af0:	40026010 	.word	0x40026010
 8001af4:	20000064 	.word	0x20000064
 8001af8:	40026028 	.word	0x40026028
 8001afc:	20000060 	.word	0x20000060
 8001b00:	40026040 	.word	0x40026040
 8001b04:	2000005c 	.word	0x2000005c
 8001b08:	40026058 	.word	0x40026058
 8001b0c:	20000058 	.word	0x20000058
 8001b10:	40026070 	.word	0x40026070
 8001b14:	20000054 	.word	0x20000054
 8001b18:	40026088 	.word	0x40026088
 8001b1c:	20000050 	.word	0x20000050
 8001b20:	400260a0 	.word	0x400260a0
 8001b24:	2000004c 	.word	0x2000004c
 8001b28:	400260b8 	.word	0x400260b8
 8001b2c:	20000048 	.word	0x20000048
 8001b30:	40026400 	.word	0x40026400
 8001b34:	40026410 	.word	0x40026410
 8001b38:	20000044 	.word	0x20000044
 8001b3c:	40026428 	.word	0x40026428
 8001b40:	20000040 	.word	0x20000040
 8001b44:	40026440 	.word	0x40026440
 8001b48:	2000003c 	.word	0x2000003c
 8001b4c:	40026458 	.word	0x40026458
 8001b50:	20000038 	.word	0x20000038
 8001b54:	40026470 	.word	0x40026470
 8001b58:	20000034 	.word	0x20000034
 8001b5c:	40026488 	.word	0x40026488
 8001b60:	20000030 	.word	0x20000030
 8001b64:	400264a0 	.word	0x400264a0
 8001b68:	2000002c 	.word	0x2000002c
 8001b6c:	400264b8 	.word	0x400264b8
 8001b70:	20000028 	.word	0x20000028

08001b74 <EXTI0_IRQHandler>:
 8001b74:	b508      	push	{r3, lr}
 8001b76:	4b05      	ldr	r3, [pc, #20]	@ (8001b8c <EXTI0_IRQHandler+0x18>)
 8001b78:	681b      	ldr	r3, [r3, #0]
 8001b7a:	b103      	cbz	r3, 8001b7e <EXTI0_IRQHandler+0xa>
 8001b7c:	4798      	blx	r3
 8001b7e:	4a04      	ldr	r2, [pc, #16]	@ (8001b90 <EXTI0_IRQHandler+0x1c>)
 8001b80:	6953      	ldr	r3, [r2, #20]
 8001b82:	f043 0301 	orr.w	r3, r3, #1
 8001b86:	6153      	str	r3, [r2, #20]
 8001b88:	bd08      	pop	{r3, pc}
 8001b8a:	bf00      	nop
 8001b8c:	20000068 	.word	0x20000068
 8001b90:	40013c00 	.word	0x40013c00

08001b94 <EXTI1_IRQHandler>:
 8001b94:	b508      	push	{r3, lr}
 8001b96:	4b05      	ldr	r3, [pc, #20]	@ (8001bac <EXTI1_IRQHandler+0x18>)
 8001b98:	685b      	ldr	r3, [r3, #4]
 8001b9a:	b103      	cbz	r3, 8001b9e <EXTI1_IRQHandler+0xa>
 8001b9c:	4798      	blx	r3
 8001b9e:	4a04      	ldr	r2, [pc, #16]	@ (8001bb0 <EXTI1_IRQHandler+0x1c>)
 8001ba0:	6953      	ldr	r3, [r2, #20]
 8001ba2:	f043 0302 	orr.w	r3, r3, #2
 8001ba6:	6153      	str	r3, [r2, #20]
 8001ba8:	bd08      	pop	{r3, pc}
 8001baa:	bf00      	nop
 8001bac:	20000068 	.word	0x20000068
 8001bb0:	40013c00 	.word	0x40013c00

08001bb4 <EXTI2_IRQHandler>:
 8001bb4:	b508      	push	{r3, lr}
 8001bb6:	4b05      	ldr	r3, [pc, #20]	@ (8001bcc <EXTI2_IRQHandler+0x18>)
 8001bb8:	689b      	ldr	r3, [r3, #8]
 8001bba:	b103      	cbz	r3, 8001bbe <EXTI2_IRQHandler+0xa>
 8001bbc:	4798      	blx	r3
 8001bbe:	4a04      	ldr	r2, [pc, #16]	@ (8001bd0 <EXTI2_IRQHandler+0x1c>)
 8001bc0:	6953      	ldr	r3, [r2, #20]
 8001bc2:	f043 0304 	orr.w	r3, r3, #4
 8001bc6:	6153      	str	r3, [r2, #20]
 8001bc8:	bd08      	pop	{r3, pc}
 8001bca:	bf00      	nop
 8001bcc:	20000068 	.word	0x20000068
 8001bd0:	40013c00 	.word	0x40013c00

08001bd4 <EXTI3_IRQHandler>:
 8001bd4:	b508      	push	{r3, lr}
 8001bd6:	4b05      	ldr	r3, [pc, #20]	@ (8001bec <EXTI3_IRQHandler+0x18>)
 8001bd8:	68db      	ldr	r3, [r3, #12]
 8001bda:	b103      	cbz	r3, 8001bde <EXTI3_IRQHandler+0xa>
 8001bdc:	4798      	blx	r3
 8001bde:	4a04      	ldr	r2, [pc, #16]	@ (8001bf0 <EXTI3_IRQHandler+0x1c>)
 8001be0:	6953      	ldr	r3, [r2, #20]
 8001be2:	f043 0308 	orr.w	r3, r3, #8
 8001be6:	6153      	str	r3, [r2, #20]
 8001be8:	bd08      	pop	{r3, pc}
 8001bea:	bf00      	nop
 8001bec:	20000068 	.word	0x20000068
 8001bf0:	40013c00 	.word	0x40013c00

08001bf4 <EXTI4_IRQHandler>:
 8001bf4:	b508      	push	{r3, lr}
 8001bf6:	4b05      	ldr	r3, [pc, #20]	@ (8001c0c <EXTI4_IRQHandler+0x18>)
 8001bf8:	691b      	ldr	r3, [r3, #16]
 8001bfa:	b103      	cbz	r3, 8001bfe <EXTI4_IRQHandler+0xa>
 8001bfc:	4798      	blx	r3
 8001bfe:	4a04      	ldr	r2, [pc, #16]	@ (8001c10 <EXTI4_IRQHandler+0x1c>)
 8001c00:	6953      	ldr	r3, [r2, #20]
 8001c02:	f043 0310 	orr.w	r3, r3, #16
 8001c06:	6153      	str	r3, [r2, #20]
 8001c08:	bd08      	pop	{r3, pc}
 8001c0a:	bf00      	nop
 8001c0c:	20000068 	.word	0x20000068
 8001c10:	40013c00 	.word	0x40013c00

08001c14 <EXTI9_5_IRQHandler>:
 8001c14:	e92d 41f0 	stmdb	sp!, {r4, r5, r6, r7, r8, lr}
 8001c18:	4e0a      	ldr	r6, [pc, #40]	@ (8001c44 <EXTI9_5_IRQHandler+0x30>)
 8001c1a:	f8df 802c 	ldr.w	r8, [pc, #44]	@ 8001c48 <EXTI9_5_IRQHandler+0x34>
 8001c1e:	2405      	movs	r4, #5
 8001c20:	2701      	movs	r7, #1
 8001c22:	6973      	ldr	r3, [r6, #20]
 8001c24:	fa07 f504 	lsl.w	r5, r7, r4
 8001c28:	422b      	tst	r3, r5
 8001c2a:	d006      	beq.n	8001c3a <EXTI9_5_IRQHandler+0x26>
 8001c2c:	f858 3024 	ldr.w	r3, [r8, r4, lsl #2]
 8001c30:	b11b      	cbz	r3, 8001c3a <EXTI9_5_IRQHandler+0x26>
 8001c32:	4798      	blx	r3
 8001c34:	6973      	ldr	r3, [r6, #20]
 8001c36:	431d      	orrs	r5, r3
 8001c38:	6175      	str	r5, [r6, #20]
 8001c3a:	3401      	adds	r4, #1
 8001c3c:	2c0a      	cmp	r4, #10
 8001c3e:	d1f0      	bne.n	8001c22 <EXTI9_5_IRQHandler+0xe>
 8001c40:	e8bd 81f0 	ldmia.w	sp!, {r4, r5, r6, r7, r8, pc}
 8001c44:	40013c00 	.word	0x40013c00
 8001c48:	20000068 	.word	0x20000068

08001c4c <EXTI15_10_IRQHandler>:
 8001c4c:	e92d 41f0 	stmdb	sp!, {r4, r5, r6, r7, r8, lr}
 8001c50:	4e0a      	ldr	r6, [pc, #40]	@ (8001c7c <EXTI15_10_IRQHandler+0x30>)
 8001c52:	f8df 802c 	ldr.w	r8, [pc, #44]	@ 8001c80 <EXTI15_10_IRQHandler+0x34>
 8001c56:	240a      	movs	r4, #10
 8001c58:	2701      	movs	r7, #1
 8001c5a:	6973      	ldr	r3, [r6, #20]
 8001c5c:	fa07 f504 	lsl.w	r5, r7, r4
 8001c60:	422b      	tst	r3, r5
 8001c62:	d006      	beq.n	8001c72 <EXTI15_10_IRQHandler+0x26>
 8001c64:	f858 3024 	ldr.w	r3, [r8, r4, lsl #2]
 8001c68:	b11b      	cbz	r3, 8001c72 <EXTI15_10_IRQHandler+0x26>
 8001c6a:	4798      	blx	r3
 8001c6c:	6973      	ldr	r3, [r6, #20]
 8001c6e:	431d      	orrs	r5, r3
 8001c70:	6175      	str	r5, [r6, #20]
 8001c72:	3401      	adds	r4, #1
 8001c74:	2c10      	cmp	r4, #16
 8001c76:	d1f0      	bne.n	8001c5a <EXTI15_10_IRQHandler+0xe>
 8001c78:	e8bd 81f0 	ldmia.w	sp!, {r4, r5, r6, r7, r8, pc}
 8001c7c:	40013c00 	.word	0x40013c00
 8001c80:	20000068 	.word	0x20000068

08001c84 <GPIO_Clock_Enable>:
 8001c84:	4b21      	ldr	r3, [pc, #132]	@ (8001d0c <GPIO_Clock_Enable+0x88>)
 8001c86:	4298      	cmp	r0, r3
 8001c88:	d030      	beq.n	8001cec <GPIO_Clock_Enable+0x68>
 8001c8a:	d80e      	bhi.n	8001caa <GPIO_Clock_Enable+0x26>
 8001c8c:	f5a3 6300 	sub.w	r3, r3, #2048	@ 0x800
 8001c90:	4298      	cmp	r0, r3
 8001c92:	d021      	beq.n	8001cd8 <GPIO_Clock_Enable+0x54>
 8001c94:	f503 6380 	add.w	r3, r3, #1024	@ 0x400
 8001c98:	4298      	cmp	r0, r3
 8001c9a:	d022      	beq.n	8001ce2 <GPIO_Clock_Enable+0x5e>
 8001c9c:	f5a3 6300 	sub.w	r3, r3, #2048	@ 0x800
 8001ca0:	4298      	cmp	r0, r3
 8001ca2:	d012      	beq.n	8001cca <GPIO_Clock_Enable+0x46>
 8001ca4:	f04f 30ff 	mov.w	r0, #4294967295
 8001ca8:	4770      	bx	lr
 8001caa:	4b19      	ldr	r3, [pc, #100]	@ (8001d10 <GPIO_Clock_Enable+0x8c>)
 8001cac:	4298      	cmp	r0, r3
 8001cae:	d022      	beq.n	8001cf6 <GPIO_Clock_Enable+0x72>
 8001cb0:	f503 6300 	add.w	r3, r3, #2048	@ 0x800
 8001cb4:	4298      	cmp	r0, r3
 8001cb6:	d023      	beq.n	8001d00 <GPIO_Clock_Enable+0x7c>
 8001cb8:	f5a3 6340 	sub.w	r3, r3, #3072	@ 0xc00
 8001cbc:	4298      	cmp	r0, r3
 8001cbe:	d1f1      	bne.n	8001ca4 <GPIO_Clock_Enable+0x20>
 8001cc0:	4a14      	ldr	r2, [pc, #80]	@ (8001d14 <GPIO_Clock_Enable+0x90>)
 8001cc2:	6b13      	ldr	r3, [r2, #48]	@ 0x30
 8001cc4:	f043 0310 	orr.w	r3, r3, #16
 8001cc8:	e003      	b.n	8001cd2 <GPIO_Clock_Enable+0x4e>
 8001cca:	4a12      	ldr	r2, [pc, #72]	@ (8001d14 <GPIO_Clock_Enable+0x90>)
 8001ccc:	6b13      	ldr	r3, [r2, #48]	@ 0x30
 8001cce:	f043 0301 	orr.w	r3, r3, #1
 8001cd2:	6313      	str	r3, [r2, #48]	@ 0x30
 8001cd4:	2000      	movs	r0, #0
 8001cd6:	4770      	bx	lr
 8001cd8:	4a0e      	ldr	r2, [pc, #56]	@ (8001d14 <GPIO_Clock_Enable+0x90>)
 8001cda:	6b13      	ldr	r3, [r2, #48]	@ 0x30
 8001cdc:	f043 0302 	orr.w	r3, r3, #2
 8001ce0:	e7f7      	b.n	8001cd2 <GPIO_Clock_Enable+0x4e>
 8001ce2:	4a0c      	ldr	r2, [pc, #48]	@ (8001d14 <GPIO_Clock_Enable+0x90>)
 8001ce4:	6b13      	ldr	r3, [r2, #48]	@ 0x30
 8001ce6:	f043 0304 	orr.w	r3, r3, #4
 8001cea:	e7f2      	b.n	8001cd2 <GPIO_Clock_Enable+0x4e>
 8001cec:	4a09      	ldr	r2, [pc, #36]	@ (8001d14 <GPIO_Clock_Enable+0x90>)
 8001cee:	6b13      	ldr	r3, [r2, #48]	@ 0x30
 8001cf0:	f043 0308 	orr.w	r3, r3, #8
 8001cf4:	e7ed      	b.n	8001cd2 <GPIO_Clock_Enable+0x4e>
 8001cf6:	4a07      	ldr	r2, [pc, #28]	@ (8001d14 <GPIO_Clock_Enable+0x90>)
 8001cf8:	6b13      	ldr	r3, [r2, #48]	@ 0x30
 8001cfa:	f043 0320 	orr.w	r3, r3, #32
 8001cfe:	e7e8      	b.n	8001cd2 <GPIO_Clock_Enable+0x4e>
 8001d00:	4a04      	ldr	r2, [pc, #16]	@ (8001d14 <GPIO_Clock_Enable+0x90>)
 8001d02:	6b13      	ldr	r3, [r2, #48]	@ 0x30
 8001d04:	f043 0380 	orr.w	r3, r3, #128	@ 0x80
 8001d08:	e7e3      	b.n	8001cd2 <GPIO_Clock_Enable+0x4e>
 8001d0a:	bf00      	nop
 8001d0c:	40020c00 	.word	0x40020c00
 8001d10:	40021400 	.word	0x40021400
 8001d14:	40023800 	.word	0x40023800

08001d18 <GPIO_Pin_Init>:
 8001d18:	e92d 43f8 	stmdb	sp!, {r3, r4, r5, r6, r7, r8, r9, lr}
 8001d1c:	4604      	mov	r4, r0
 8001d1e:	461d      	mov	r5, r3
 8001d20:	4617      	mov	r7, r2
 8001d22:	f89d 9020 	ldrb.w	r9, [sp, #32]
 8001d26:	f89d 8024 	ldrb.w	r8, [sp, #36]	@ 0x24
 8001d2a:	f89d 6028 	ldrb.w	r6, [sp, #40]	@ 0x28
 8001d2e:	f7ff ffa9 	bl	8001c84 <GPIO_Clock_Enable>
 8001d32:	f8d4 e000 	ldr.w	lr, [r4]
 8001d36:	004b      	lsls	r3, r1, #1
 8001d38:	2203      	movs	r2, #3
 8001d3a:	409a      	lsls	r2, r3
 8001d3c:	ea6f 0c02 	mvn.w	ip, r2
 8001d40:	ea2e 0202 	bic.w	r2, lr, r2
 8001d44:	6022      	str	r2, [r4, #0]
 8001d46:	f8d4 e000 	ldr.w	lr, [r4]
 8001d4a:	fa07 f203 	lsl.w	r2, r7, r3
 8001d4e:	ea42 020e 	orr.w	r2, r2, lr
 8001d52:	6022      	str	r2, [r4, #0]
 8001d54:	6862      	ldr	r2, [r4, #4]
 8001d56:	f04f 0e01 	mov.w	lr, #1
 8001d5a:	fa0e fe01 	lsl.w	lr, lr, r1
 8001d5e:	ea22 020e 	bic.w	r2, r2, lr
 8001d62:	6062      	str	r2, [r4, #4]
 8001d64:	2d02      	cmp	r5, #2
 8001d66:	bf1f      	itttt	ne
 8001d68:	f8d4 e004 	ldrne.w	lr, [r4, #4]
 8001d6c:	fa05 f201 	lslne.w	r2, r5, r1
 8001d70:	ea42 020e 	orrne.w	r2, r2, lr
 8001d74:	6062      	strne	r2, [r4, #4]
 8001d76:	68a2      	ldr	r2, [r4, #8]
 8001d78:	ea0c 0202 	and.w	r2, ip, r2
 8001d7c:	60a2      	str	r2, [r4, #8]
 8001d7e:	f1b9 0f04 	cmp.w	r9, #4
 8001d82:	bf1f      	itttt	ne
 8001d84:	68a2      	ldrne	r2, [r4, #8]
 8001d86:	fa09 f503 	lslne.w	r5, r9, r3
 8001d8a:	4315      	orrne	r5, r2
 8001d8c:	60a5      	strne	r5, [r4, #8]
 8001d8e:	68e2      	ldr	r2, [r4, #12]
 8001d90:	ea0c 0202 	and.w	r2, ip, r2
 8001d94:	f1b8 0f04 	cmp.w	r8, #4
 8001d98:	60e2      	str	r2, [r4, #12]
 8001d9a:	bf1f      	itttt	ne
 8001d9c:	68e2      	ldrne	r2, [r4, #12]
 8001d9e:	fa08 f303 	lslne.w	r3, r8, r3
 8001da2:	4313      	orrne	r3, r2
 8001da4:	60e3      	strne	r3, [r4, #12]
 8001da6:	2f02      	cmp	r7, #2
 8001da8:	b208      	sxth	r0, r1
 8001daa:	d10e      	bne.n	8001dca <GPIO_Pin_Init+0xb2>
 8001dac:	2907      	cmp	r1, #7
 8001dae:	f04f 020f 	mov.w	r2, #15
 8001db2:	d80d      	bhi.n	8001dd0 <GPIO_Pin_Init+0xb8>
 8001db4:	6a21      	ldr	r1, [r4, #32]
 8001db6:	0083      	lsls	r3, r0, #2
 8001db8:	409a      	lsls	r2, r3
 8001dba:	ea21 0202 	bic.w	r2, r1, r2
 8001dbe:	6222      	str	r2, [r4, #32]
 8001dc0:	6a22      	ldr	r2, [r4, #32]
 8001dc2:	fa06 f303 	lsl.w	r3, r6, r3
 8001dc6:	4313      	orrs	r3, r2
 8001dc8:	6223      	str	r3, [r4, #32]
 8001dca:	2000      	movs	r0, #0
 8001dcc:	e8bd 83f8 	ldmia.w	sp!, {r3, r4, r5, r6, r7, r8, r9, pc}
 8001dd0:	3908      	subs	r1, #8
 8001dd2:	6a63      	ldr	r3, [r4, #36]	@ 0x24
 8001dd4:	0089      	lsls	r1, r1, #2
 8001dd6:	408a      	lsls	r2, r1
 8001dd8:	ea23 0302 	bic.w	r3, r3, r2
 8001ddc:	6263      	str	r3, [r4, #36]	@ 0x24
 8001dde:	6a63      	ldr	r3, [r4, #36]	@ 0x24
 8001de0:	408e      	lsls	r6, r1
 8001de2:	431e      	orrs	r6, r3
 8001de4:	6266      	str	r6, [r4, #36]	@ 0x24
 8001de6:	e7f0      	b.n	8001dca <GPIO_Pin_Init+0xb2>

08001de8 <RTC_Alarm_IRQHandler>:
 8001de8:	4b12      	ldr	r3, [pc, #72]	@ (8001e34 <RTC_Alarm_IRQHandler+0x4c>)
 8001dea:	68da      	ldr	r2, [r3, #12]
 8001dec:	05d1      	lsls	r1, r2, #23
 8001dee:	b510      	push	{r4, lr}
 8001df0:	d50c      	bpl.n	8001e0c <RTC_Alarm_IRQHandler+0x24>
 8001df2:	68da      	ldr	r2, [r3, #12]
 8001df4:	f422 7280 	bic.w	r2, r2, #256	@ 0x100
 8001df8:	60da      	str	r2, [r3, #12]
 8001dfa:	4b0f      	ldr	r3, [pc, #60]	@ (8001e38 <RTC_Alarm_IRQHandler+0x50>)
 8001dfc:	681b      	ldr	r3, [r3, #0]
 8001dfe:	6a1b      	ldr	r3, [r3, #32]
 8001e00:	b123      	cbz	r3, 8001e0c <RTC_Alarm_IRQHandler+0x24>
 8001e02:	4a0e      	ldr	r2, [pc, #56]	@ (8001e3c <RTC_Alarm_IRQHandler+0x54>)
 8001e04:	f44f 3100 	mov.w	r1, #131072	@ 0x20000
 8001e08:	6151      	str	r1, [r2, #20]
 8001e0a:	4798      	blx	r3
 8001e0c:	4b09      	ldr	r3, [pc, #36]	@ (8001e34 <RTC_Alarm_IRQHandler+0x4c>)
 8001e0e:	68da      	ldr	r2, [r3, #12]
 8001e10:	0592      	lsls	r2, r2, #22
 8001e12:	d50e      	bpl.n	8001e32 <RTC_Alarm_IRQHandler+0x4a>
 8001e14:	68da      	ldr	r2, [r3, #12]
 8001e16:	f422 7200 	bic.w	r2, r2, #512	@ 0x200
 8001e1a:	60da      	str	r2, [r3, #12]
 8001e1c:	4b06      	ldr	r3, [pc, #24]	@ (8001e38 <RTC_Alarm_IRQHandler+0x50>)
 8001e1e:	681b      	ldr	r3, [r3, #0]
 8001e20:	6a1b      	ldr	r3, [r3, #32]
 8001e22:	b133      	cbz	r3, 8001e32 <RTC_Alarm_IRQHandler+0x4a>
 8001e24:	4a05      	ldr	r2, [pc, #20]	@ (8001e3c <RTC_Alarm_IRQHandler+0x54>)
 8001e26:	f44f 3100 	mov.w	r1, #131072	@ 0x20000
 8001e2a:	e8bd 4010 	ldmia.w	sp!, {r4, lr}
 8001e2e:	6151      	str	r1, [r2, #20]
 8001e30:	4718      	bx	r3
 8001e32:	bd10      	pop	{r4, pc}
 8001e34:	40002800 	.word	0x40002800
 8001e38:	200000a8 	.word	0x200000a8
 8001e3c:	40013c00 	.word	0x40013c00

08001e40 <SPI1_TX_ISR>:
 8001e40:	4b01      	ldr	r3, [pc, #4]	@ (8001e48 <SPI1_TX_ISR+0x8>)
 8001e42:	2201      	movs	r2, #1
 8001e44:	701a      	strb	r2, [r3, #0]
 8001e46:	4770      	bx	lr
 8001e48:	200002bf 	.word	0x200002bf

08001e4c <SPI1_RX_ISR>:
 8001e4c:	4b01      	ldr	r3, [pc, #4]	@ (8001e54 <SPI1_RX_ISR+0x8>)
 8001e4e:	2201      	movs	r2, #1
 8001e50:	701a      	strb	r2, [r3, #0]
 8001e52:	4770      	bx	lr
 8001e54:	200002bc 	.word	0x200002bc

08001e58 <SPI2_TX_ISR>:
 8001e58:	4b01      	ldr	r3, [pc, #4]	@ (8001e60 <SPI2_TX_ISR+0x8>)
 8001e5a:	2201      	movs	r2, #1
 8001e5c:	705a      	strb	r2, [r3, #1]
 8001e5e:	4770      	bx	lr
 8001e60:	200002bf 	.word	0x200002bf

08001e64 <SPI2_RX_ISR>:
 8001e64:	4b01      	ldr	r3, [pc, #4]	@ (8001e6c <SPI2_RX_ISR+0x8>)
 8001e66:	2201      	movs	r2, #1
 8001e68:	705a      	strb	r2, [r3, #1]
 8001e6a:	4770      	bx	lr
 8001e6c:	200002bc 	.word	0x200002bc

08001e70 <SPI3_TX_ISR>:
 8001e70:	4b01      	ldr	r3, [pc, #4]	@ (8001e78 <SPI3_TX_ISR+0x8>)
 8001e72:	2201      	movs	r2, #1
 8001e74:	709a      	strb	r2, [r3, #2]
 8001e76:	4770      	bx	lr
 8001e78:	200002bf 	.word	0x200002bf

08001e7c <SPI3_RX_ISR>:
 8001e7c:	4b01      	ldr	r3, [pc, #4]	@ (8001e84 <SPI3_RX_ISR+0x8>)
 8001e7e:	2201      	movs	r2, #1
 8001e80:	709a      	strb	r2, [r3, #2]
 8001e82:	4770      	bx	lr
 8001e84:	200002bc 	.word	0x200002bc

08001e88 <SPI_Get_Instance_Number>:
 8001e88:	6800      	ldr	r0, [r0, #0]
 8001e8a:	4b09      	ldr	r3, [pc, #36]	@ (8001eb0 <SPI_Get_Instance_Number+0x28>)
 8001e8c:	4298      	cmp	r0, r3
 8001e8e:	d00a      	beq.n	8001ea6 <SPI_Get_Instance_Number+0x1e>
 8001e90:	f5a3 4378 	sub.w	r3, r3, #63488	@ 0xf800
 8001e94:	4298      	cmp	r0, r3
 8001e96:	d008      	beq.n	8001eaa <SPI_Get_Instance_Number+0x22>
 8001e98:	f503 6380 	add.w	r3, r3, #1024	@ 0x400
 8001e9c:	4298      	cmp	r0, r3
 8001e9e:	bf14      	ite	ne
 8001ea0:	20ff      	movne	r0, #255	@ 0xff
 8001ea2:	2002      	moveq	r0, #2
 8001ea4:	4770      	bx	lr
 8001ea6:	2000      	movs	r0, #0
 8001ea8:	4770      	bx	lr
 8001eaa:	2001      	movs	r0, #1
 8001eac:	4770      	bx	lr
 8001eae:	bf00      	nop
 8001eb0:	40013000 	.word	0x40013000

08001eb4 <SPI_Clock_Enable>:
 8001eb4:	6803      	ldr	r3, [r0, #0]
 8001eb6:	4a10      	ldr	r2, [pc, #64]	@ (8001ef8 <SPI_Clock_Enable+0x44>)
 8001eb8:	4293      	cmp	r3, r2
 8001eba:	d107      	bne.n	8001ecc <SPI_Clock_Enable+0x18>
 8001ebc:	f502 3284 	add.w	r2, r2, #67584	@ 0x10800
 8001ec0:	6c53      	ldr	r3, [r2, #68]	@ 0x44
 8001ec2:	f443 5380 	orr.w	r3, r3, #4096	@ 0x1000
 8001ec6:	6453      	str	r3, [r2, #68]	@ 0x44
 8001ec8:	2000      	movs	r0, #0
 8001eca:	4770      	bx	lr
 8001ecc:	4a0b      	ldr	r2, [pc, #44]	@ (8001efc <SPI_Clock_Enable+0x48>)
 8001ece:	4293      	cmp	r3, r2
 8001ed0:	d106      	bne.n	8001ee0 <SPI_Clock_Enable+0x2c>
 8001ed2:	f502 3200 	add.w	r2, r2, #131072	@ 0x20000
 8001ed6:	6c13      	ldr	r3, [r2, #64]	@ 0x40
 8001ed8:	f443 4380 	orr.w	r3, r3, #16384	@ 0x4000
 8001edc:	6413      	str	r3, [r2, #64]	@ 0x40
 8001ede:	e7f3      	b.n	8001ec8 <SPI_Clock_Enable+0x14>
 8001ee0:	4a07      	ldr	r2, [pc, #28]	@ (8001f00 <SPI_Clock_Enable+0x4c>)
 8001ee2:	4293      	cmp	r3, r2
 8001ee4:	d105      	bne.n	8001ef2 <SPI_Clock_Enable+0x3e>
 8001ee6:	f502 32fe 	add.w	r2, r2, #130048	@ 0x1fc00
 8001eea:	6c13      	ldr	r3, [r2, #64]	@ 0x40
 8001eec:	f443 4300 	orr.w	r3, r3, #32768	@ 0x8000
 8001ef0:	e7f4      	b.n	8001edc <SPI_Clock_Enable+0x28>
 8001ef2:	f04f 30ff 	mov.w	r0, #4294967295
 8001ef6:	4770      	bx	lr
 8001ef8:	40013000 	.word	0x40013000
 8001efc:	40003800 	.word	0x40003800
 8001f00:	40003c00 	.word	0x40003c00

08001f04 <SPI_Init>:
 8001f04:	b57f      	push	{r0, r1, r2, r3, r4, r5, r6, lr}
 8001f06:	4604      	mov	r4, r0
 8001f08:	f7ff ffbe 	bl	8001e88 <SPI_Get_Instance_Number>
 8001f0c:	4606      	mov	r6, r0
 8001f0e:	4620      	mov	r0, r4
 8001f10:	f7ff ffd0 	bl	8001eb4 <SPI_Clock_Enable>
 8001f14:	6823      	ldr	r3, [r4, #0]
 8001f16:	4a9b      	ldr	r2, [pc, #620]	@ (8002184 <SPI_Init+0x280>)
 8001f18:	4293      	cmp	r3, r2
 8001f1a:	f040 8124 	bne.w	8002166 <SPI_Init+0x262>
 8001f1e:	8923      	ldrh	r3, [r4, #8]
 8001f20:	3b0b      	subs	r3, #11
 8001f22:	2b07      	cmp	r3, #7
 8001f24:	d838      	bhi.n	8001f98 <SPI_Init+0x94>
 8001f26:	e8df f013 	tbh	[pc, r3, lsl #1]
 8001f2a:	0008      	.short	0x0008
 8001f2c:	00a60008 	.word	0x00a60008
 8001f30:	00e100e1 	.word	0x00e100e1
 8001f34:	00a600a6 	.word	0x00a600a6
 8001f38:	00e1      	.short	0x00e1
 8001f3a:	7923      	ldrb	r3, [r4, #4]
 8001f3c:	2b0f      	cmp	r3, #15
 8001f3e:	d177      	bne.n	8002030 <SPI_Init+0x12c>
 8001f40:	2300      	movs	r3, #0
 8001f42:	2105      	movs	r1, #5
 8001f44:	e9cd 3101 	strd	r3, r1, [sp, #4]
 8001f48:	2203      	movs	r2, #3
 8001f4a:	488f      	ldr	r0, [pc, #572]	@ (8002188 <SPI_Init+0x284>)
 8001f4c:	9200      	str	r2, [sp, #0]
 8001f4e:	2202      	movs	r2, #2
 8001f50:	f7ff fee2 	bl	8001d18 <GPIO_Pin_Init>
 8001f54:	79a3      	ldrb	r3, [r4, #6]
 8001f56:	2b10      	cmp	r3, #16
 8001f58:	d176      	bne.n	8002048 <SPI_Init+0x144>
 8001f5a:	2300      	movs	r3, #0
 8001f5c:	f04f 0c05 	mov.w	ip, #5
 8001f60:	e9cd 3c01 	strd	r3, ip, [sp, #4]
 8001f64:	2203      	movs	r2, #3
 8001f66:	4888      	ldr	r0, [pc, #544]	@ (8002188 <SPI_Init+0x284>)
 8001f68:	9200      	str	r2, [sp, #0]
 8001f6a:	2106      	movs	r1, #6
 8001f6c:	2202      	movs	r2, #2
 8001f6e:	f7ff fed3 	bl	8001d18 <GPIO_Pin_Init>
 8001f72:	7963      	ldrb	r3, [r4, #5]
 8001f74:	2b11      	cmp	r3, #17
 8001f76:	d173      	bne.n	8002060 <SPI_Init+0x15c>
 8001f78:	2005      	movs	r0, #5
 8001f7a:	2300      	movs	r3, #0
 8001f7c:	2203      	movs	r2, #3
 8001f7e:	e9cd 3001 	strd	r3, r0, [sp, #4]
 8001f82:	4881      	ldr	r0, [pc, #516]	@ (8002188 <SPI_Init+0x284>)
 8001f84:	9200      	str	r2, [sp, #0]
 8001f86:	2107      	movs	r1, #7
 8001f88:	2202      	movs	r2, #2
 8001f8a:	f7ff fec5 	bl	8001d18 <GPIO_Pin_Init>
 8001f8e:	6822      	ldr	r2, [r4, #0]
 8001f90:	6813      	ldr	r3, [r2, #0]
 8001f92:	f423 4300 	bic.w	r3, r3, #32768	@ 0x8000
 8001f96:	6013      	str	r3, [r2, #0]
 8001f98:	6823      	ldr	r3, [r4, #0]
 8001f9a:	681a      	ldr	r2, [r3, #0]
 8001f9c:	f022 0240 	bic.w	r2, r2, #64	@ 0x40
 8001fa0:	601a      	str	r2, [r3, #0]
 8001fa2:	4a78      	ldr	r2, [pc, #480]	@ (8002184 <SPI_Init+0x280>)
 8001fa4:	4293      	cmp	r3, r2
 8001fa6:	d008      	beq.n	8001fba <SPI_Init+0xb6>
 8001fa8:	f5a2 4278 	sub.w	r2, r2, #63488	@ 0xf800
 8001fac:	4293      	cmp	r3, r2
 8001fae:	d004      	beq.n	8001fba <SPI_Init+0xb6>
 8001fb0:	f502 6280 	add.w	r2, r2, #1024	@ 0x400
 8001fb4:	4293      	cmp	r3, r2
 8001fb6:	f040 826b 	bne.w	8002490 <SPI_Init+0x58c>
 8001fba:	681a      	ldr	r2, [r3, #0]
 8001fbc:	f442 7240 	orr.w	r2, r2, #768	@ 0x300
 8001fc0:	601a      	str	r2, [r3, #0]
 8001fc2:	8ae2      	ldrh	r2, [r4, #22]
 8001fc4:	2a17      	cmp	r2, #23
 8001fc6:	f040 823f 	bne.w	8002448 <SPI_Init+0x544>
 8001fca:	681a      	ldr	r2, [r3, #0]
 8001fcc:	f022 0201 	bic.w	r2, r2, #1
 8001fd0:	601a      	str	r2, [r3, #0]
 8001fd2:	8aa2      	ldrh	r2, [r4, #20]
 8001fd4:	2a21      	cmp	r2, #33	@ 0x21
 8001fd6:	f040 823d 	bne.w	8002454 <SPI_Init+0x550>
 8001fda:	681a      	ldr	r2, [r3, #0]
 8001fdc:	f022 0202 	bic.w	r2, r2, #2
 8001fe0:	601a      	str	r2, [r3, #0]
 8001fe2:	8962      	ldrh	r2, [r4, #10]
 8001fe4:	2a00      	cmp	r2, #0
 8001fe6:	f040 823b 	bne.w	8002460 <SPI_Init+0x55c>
 8001fea:	681a      	ldr	r2, [r3, #0]
 8001fec:	f422 5200 	bic.w	r2, r2, #8192	@ 0x2000
 8001ff0:	601a      	str	r2, [r3, #0]
 8001ff2:	89a2      	ldrh	r2, [r4, #12]
 8001ff4:	2a0b      	cmp	r2, #11
 8001ff6:	f040 823f 	bne.w	8002478 <SPI_Init+0x574>
 8001ffa:	681a      	ldr	r2, [r3, #0]
 8001ffc:	f422 6200 	bic.w	r2, r2, #2048	@ 0x800
 8002000:	601a      	str	r2, [r3, #0]
 8002002:	89e2      	ldrh	r2, [r4, #14]
 8002004:	2a18      	cmp	r2, #24
 8002006:	f040 823d 	bne.w	8002484 <SPI_Init+0x580>
 800200a:	681a      	ldr	r2, [r3, #0]
 800200c:	f042 0280 	orr.w	r2, r2, #128	@ 0x80
 8002010:	601a      	str	r2, [r3, #0]
 8002012:	8a22      	ldrh	r2, [r4, #16]
 8002014:	3a28      	subs	r2, #40	@ 0x28
 8002016:	2a07      	cmp	r2, #7
 8002018:	f200 823a 	bhi.w	8002490 <SPI_Init+0x58c>
 800201c:	e8df f012 	tbh	[pc, r2, lsl #1]
 8002020:	024f023c 	.word	0x024f023c
 8002024:	02570253 	.word	0x02570253
 8002028:	025f025b 	.word	0x025f025b
 800202c:	02670263 	.word	0x02670263
 8002030:	2b21      	cmp	r3, #33	@ 0x21
 8002032:	d18f      	bne.n	8001f54 <SPI_Init+0x50>
 8002034:	2300      	movs	r3, #0
 8002036:	f04f 0e05 	mov.w	lr, #5
 800203a:	2103      	movs	r1, #3
 800203c:	e9cd 3e01 	strd	r3, lr, [sp, #4]
 8002040:	4852      	ldr	r0, [pc, #328]	@ (800218c <SPI_Init+0x288>)
 8002042:	9100      	str	r1, [sp, #0]
 8002044:	2202      	movs	r2, #2
 8002046:	e783      	b.n	8001f50 <SPI_Init+0x4c>
 8002048:	2b22      	cmp	r3, #34	@ 0x22
 800204a:	d192      	bne.n	8001f72 <SPI_Init+0x6e>
 800204c:	2203      	movs	r2, #3
 800204e:	2300      	movs	r3, #0
 8002050:	2505      	movs	r5, #5
 8002052:	9200      	str	r2, [sp, #0]
 8002054:	e9cd 3501 	strd	r3, r5, [sp, #4]
 8002058:	484c      	ldr	r0, [pc, #304]	@ (800218c <SPI_Init+0x288>)
 800205a:	2202      	movs	r2, #2
 800205c:	2104      	movs	r1, #4
 800205e:	e786      	b.n	8001f6e <SPI_Init+0x6a>
 8002060:	2b23      	cmp	r3, #35	@ 0x23
 8002062:	d194      	bne.n	8001f8e <SPI_Init+0x8a>
 8002064:	2300      	movs	r3, #0
 8002066:	2105      	movs	r1, #5
 8002068:	e9cd 3101 	strd	r3, r1, [sp, #4]
 800206c:	2203      	movs	r2, #3
 800206e:	9200      	str	r2, [sp, #0]
 8002070:	2202      	movs	r2, #2
 8002072:	4846      	ldr	r0, [pc, #280]	@ (800218c <SPI_Init+0x288>)
 8002074:	e789      	b.n	8001f8a <SPI_Init+0x86>
 8002076:	7923      	ldrb	r3, [r4, #4]
 8002078:	2b0f      	cmp	r3, #15
 800207a:	d121      	bne.n	80020c0 <SPI_Init+0x1bc>
 800207c:	2300      	movs	r3, #0
 800207e:	2105      	movs	r1, #5
 8002080:	e9cd 3101 	strd	r3, r1, [sp, #4]
 8002084:	2203      	movs	r2, #3
 8002086:	4840      	ldr	r0, [pc, #256]	@ (8002188 <SPI_Init+0x284>)
 8002088:	9200      	str	r2, [sp, #0]
 800208a:	2202      	movs	r2, #2
 800208c:	f7ff fe44 	bl	8001d18 <GPIO_Pin_Init>
 8002090:	7963      	ldrb	r3, [r4, #5]
 8002092:	2b11      	cmp	r3, #17
 8002094:	d11f      	bne.n	80020d6 <SPI_Init+0x1d2>
 8002096:	2205      	movs	r2, #5
 8002098:	2300      	movs	r3, #0
 800209a:	e9cd 3201 	strd	r3, r2, [sp, #4]
 800209e:	483a      	ldr	r0, [pc, #232]	@ (8002188 <SPI_Init+0x284>)
 80020a0:	2203      	movs	r2, #3
 80020a2:	9200      	str	r2, [sp, #0]
 80020a4:	2107      	movs	r1, #7
 80020a6:	2202      	movs	r2, #2
 80020a8:	f7ff fe36 	bl	8001d18 <GPIO_Pin_Init>
 80020ac:	6823      	ldr	r3, [r4, #0]
 80020ae:	681a      	ldr	r2, [r3, #0]
 80020b0:	f442 4200 	orr.w	r2, r2, #32768	@ 0x8000
 80020b4:	601a      	str	r2, [r3, #0]
 80020b6:	681a      	ldr	r2, [r3, #0]
 80020b8:	f442 4280 	orr.w	r2, r2, #16384	@ 0x4000
 80020bc:	601a      	str	r2, [r3, #0]
 80020be:	e76b      	b.n	8001f98 <SPI_Init+0x94>
 80020c0:	2b21      	cmp	r3, #33	@ 0x21
 80020c2:	d1e5      	bne.n	8002090 <SPI_Init+0x18c>
 80020c4:	2105      	movs	r1, #5
 80020c6:	2300      	movs	r3, #0
 80020c8:	e9cd 3101 	strd	r3, r1, [sp, #4]
 80020cc:	2103      	movs	r1, #3
 80020ce:	482f      	ldr	r0, [pc, #188]	@ (800218c <SPI_Init+0x288>)
 80020d0:	9100      	str	r1, [sp, #0]
 80020d2:	2202      	movs	r2, #2
 80020d4:	e7da      	b.n	800208c <SPI_Init+0x188>
 80020d6:	2b23      	cmp	r3, #35	@ 0x23
 80020d8:	d1e8      	bne.n	80020ac <SPI_Init+0x1a8>
 80020da:	2300      	movs	r3, #0
 80020dc:	2105      	movs	r1, #5
 80020de:	e9cd 3101 	strd	r3, r1, [sp, #4]
 80020e2:	2203      	movs	r2, #3
 80020e4:	9200      	str	r2, [sp, #0]
 80020e6:	2202      	movs	r2, #2
 80020e8:	4828      	ldr	r0, [pc, #160]	@ (800218c <SPI_Init+0x288>)
 80020ea:	e7dd      	b.n	80020a8 <SPI_Init+0x1a4>
 80020ec:	7923      	ldrb	r3, [r4, #4]
 80020ee:	2b0f      	cmp	r3, #15
 80020f0:	d121      	bne.n	8002136 <SPI_Init+0x232>
 80020f2:	2300      	movs	r3, #0
 80020f4:	2105      	movs	r1, #5
 80020f6:	e9cd 3101 	strd	r3, r1, [sp, #4]
 80020fa:	2203      	movs	r2, #3
 80020fc:	4822      	ldr	r0, [pc, #136]	@ (8002188 <SPI_Init+0x284>)
 80020fe:	9200      	str	r2, [sp, #0]
 8002100:	2202      	movs	r2, #2
 8002102:	f7ff fe09 	bl	8001d18 <GPIO_Pin_Init>
 8002106:	79a3      	ldrb	r3, [r4, #6]
 8002108:	2b10      	cmp	r3, #16
 800210a:	d120      	bne.n	800214e <SPI_Init+0x24a>
 800210c:	2300      	movs	r3, #0
 800210e:	f04f 0c05 	mov.w	ip, #5
 8002112:	e9cd 3c01 	strd	r3, ip, [sp, #4]
 8002116:	2203      	movs	r2, #3
 8002118:	481b      	ldr	r0, [pc, #108]	@ (8002188 <SPI_Init+0x284>)
 800211a:	9200      	str	r2, [sp, #0]
 800211c:	2106      	movs	r1, #6
 800211e:	2202      	movs	r2, #2
 8002120:	f7ff fdfa 	bl	8001d18 <GPIO_Pin_Init>
 8002124:	6823      	ldr	r3, [r4, #0]
 8002126:	681a      	ldr	r2, [r3, #0]
 8002128:	f442 4200 	orr.w	r2, r2, #32768	@ 0x8000
 800212c:	601a      	str	r2, [r3, #0]
 800212e:	681a      	ldr	r2, [r3, #0]
 8002130:	f422 4280 	bic.w	r2, r2, #16384	@ 0x4000
 8002134:	e7c2      	b.n	80020bc <SPI_Init+0x1b8>
 8002136:	2b21      	cmp	r3, #33	@ 0x21
 8002138:	d1e5      	bne.n	8002106 <SPI_Init+0x202>
 800213a:	2300      	movs	r3, #0
 800213c:	f04f 0e05 	mov.w	lr, #5
 8002140:	2103      	movs	r1, #3
 8002142:	e9cd 3e01 	strd	r3, lr, [sp, #4]
 8002146:	4811      	ldr	r0, [pc, #68]	@ (800218c <SPI_Init+0x288>)
 8002148:	9100      	str	r1, [sp, #0]
 800214a:	2202      	movs	r2, #2
 800214c:	e7d9      	b.n	8002102 <SPI_Init+0x1fe>
 800214e:	2b22      	cmp	r3, #34	@ 0x22
 8002150:	d1e8      	bne.n	8002124 <SPI_Init+0x220>
 8002152:	2300      	movs	r3, #0
 8002154:	2505      	movs	r5, #5
 8002156:	e9cd 3501 	strd	r3, r5, [sp, #4]
 800215a:	2203      	movs	r2, #3
 800215c:	9200      	str	r2, [sp, #0]
 800215e:	2104      	movs	r1, #4
 8002160:	2202      	movs	r2, #2
 8002162:	480a      	ldr	r0, [pc, #40]	@ (800218c <SPI_Init+0x288>)
 8002164:	e7dc      	b.n	8002120 <SPI_Init+0x21c>
 8002166:	4a0a      	ldr	r2, [pc, #40]	@ (8002190 <SPI_Init+0x28c>)
 8002168:	4293      	cmp	r3, r2
 800216a:	f040 80ac 	bne.w	80022c6 <SPI_Init+0x3c2>
 800216e:	8923      	ldrh	r3, [r4, #8]
 8002170:	3b0b      	subs	r3, #11
 8002172:	2b07      	cmp	r3, #7
 8002174:	f63f af10 	bhi.w	8001f98 <SPI_Init+0x94>
 8002178:	e8df f003 	tbb	[pc, r3]
 800217c:	71590c0c 	.word	0x71590c0c
 8002180:	71595971 	.word	0x71595971
 8002184:	40013000 	.word	0x40013000
 8002188:	40020000 	.word	0x40020000
 800218c:	40020400 	.word	0x40020400
 8002190:	40003800 	.word	0x40003800
 8002194:	7923      	ldrb	r3, [r4, #4]
 8002196:	2b13      	cmp	r3, #19
 8002198:	d125      	bne.n	80021e6 <SPI_Init+0x2e2>
 800219a:	2300      	movs	r3, #0
 800219c:	2005      	movs	r0, #5
 800219e:	e9cd 3001 	strd	r3, r0, [sp, #4]
 80021a2:	2203      	movs	r2, #3
 80021a4:	9200      	str	r2, [sp, #0]
 80021a6:	210a      	movs	r1, #10
 80021a8:	2202      	movs	r2, #2
 80021aa:	48b0      	ldr	r0, [pc, #704]	@ (800246c <SPI_Init+0x568>)
 80021ac:	f7ff fdb4 	bl	8001d18 <GPIO_Pin_Init>
 80021b0:	79a3      	ldrb	r3, [r4, #6]
 80021b2:	2b1b      	cmp	r3, #27
 80021b4:	d122      	bne.n	80021fc <SPI_Init+0x2f8>
 80021b6:	2205      	movs	r2, #5
 80021b8:	2300      	movs	r3, #0
 80021ba:	e9cd 3201 	strd	r3, r2, [sp, #4]
 80021be:	48ab      	ldr	r0, [pc, #684]	@ (800246c <SPI_Init+0x568>)
 80021c0:	2203      	movs	r2, #3
 80021c2:	9200      	str	r2, [sp, #0]
 80021c4:	210e      	movs	r1, #14
 80021c6:	2202      	movs	r2, #2
 80021c8:	f7ff fda6 	bl	8001d18 <GPIO_Pin_Init>
 80021cc:	7963      	ldrb	r3, [r4, #5]
 80021ce:	2b1d      	cmp	r3, #29
 80021d0:	d121      	bne.n	8002216 <SPI_Init+0x312>
 80021d2:	2203      	movs	r2, #3
 80021d4:	2300      	movs	r3, #0
 80021d6:	f04f 0c05 	mov.w	ip, #5
 80021da:	9200      	str	r2, [sp, #0]
 80021dc:	e9cd 3c01 	strd	r3, ip, [sp, #4]
 80021e0:	2202      	movs	r2, #2
 80021e2:	210f      	movs	r1, #15
 80021e4:	e745      	b.n	8002072 <SPI_Init+0x16e>
 80021e6:	2b17      	cmp	r3, #23
 80021e8:	d1e2      	bne.n	80021b0 <SPI_Init+0x2ac>
 80021ea:	2105      	movs	r1, #5
 80021ec:	2203      	movs	r2, #3
 80021ee:	2300      	movs	r3, #0
 80021f0:	e9cd 3101 	strd	r3, r1, [sp, #4]
 80021f4:	9200      	str	r2, [sp, #0]
 80021f6:	210d      	movs	r1, #13
 80021f8:	2202      	movs	r2, #2
 80021fa:	e7d6      	b.n	80021aa <SPI_Init+0x2a6>
 80021fc:	2b20      	cmp	r3, #32
 80021fe:	d1e5      	bne.n	80021cc <SPI_Init+0x2c8>
 8002200:	2203      	movs	r2, #3
 8002202:	2300      	movs	r3, #0
 8002204:	f04f 0e05 	mov.w	lr, #5
 8002208:	9200      	str	r2, [sp, #0]
 800220a:	2202      	movs	r2, #2
 800220c:	e9cd 3e01 	strd	r3, lr, [sp, #4]
 8002210:	4897      	ldr	r0, [pc, #604]	@ (8002470 <SPI_Init+0x56c>)
 8002212:	4611      	mov	r1, r2
 8002214:	e7d8      	b.n	80021c8 <SPI_Init+0x2c4>
 8002216:	2b11      	cmp	r3, #17
 8002218:	f47f aeb9 	bne.w	8001f8e <SPI_Init+0x8a>
 800221c:	2300      	movs	r3, #0
 800221e:	2505      	movs	r5, #5
 8002220:	e9cd 3501 	strd	r3, r5, [sp, #4]
 8002224:	2103      	movs	r1, #3
 8002226:	9100      	str	r1, [sp, #0]
 8002228:	2202      	movs	r2, #2
 800222a:	4891      	ldr	r0, [pc, #580]	@ (8002470 <SPI_Init+0x56c>)
 800222c:	e6ad      	b.n	8001f8a <SPI_Init+0x86>
 800222e:	7923      	ldrb	r3, [r4, #4]
 8002230:	2b13      	cmp	r3, #19
 8002232:	d108      	bne.n	8002246 <SPI_Init+0x342>
 8002234:	2203      	movs	r2, #3
 8002236:	2300      	movs	r3, #0
 8002238:	2005      	movs	r0, #5
 800223a:	9200      	str	r2, [sp, #0]
 800223c:	e9cd 3001 	strd	r3, r0, [sp, #4]
 8002240:	2202      	movs	r2, #2
 8002242:	210a      	movs	r1, #10
 8002244:	e750      	b.n	80020e8 <SPI_Init+0x1e4>
 8002246:	2b17      	cmp	r3, #23
 8002248:	f47f af30 	bne.w	80020ac <SPI_Init+0x1a8>
 800224c:	2105      	movs	r1, #5
 800224e:	2203      	movs	r2, #3
 8002250:	2300      	movs	r3, #0
 8002252:	e9cd 3101 	strd	r3, r1, [sp, #4]
 8002256:	9200      	str	r2, [sp, #0]
 8002258:	210d      	movs	r1, #13
 800225a:	2202      	movs	r2, #2
 800225c:	e744      	b.n	80020e8 <SPI_Init+0x1e4>
 800225e:	7923      	ldrb	r3, [r4, #4]
 8002260:	2b13      	cmp	r3, #19
 8002262:	d117      	bne.n	8002294 <SPI_Init+0x390>
 8002264:	2205      	movs	r2, #5
 8002266:	2300      	movs	r3, #0
 8002268:	e9cd 3201 	strd	r3, r2, [sp, #4]
 800226c:	2203      	movs	r2, #3
 800226e:	9200      	str	r2, [sp, #0]
 8002270:	210a      	movs	r1, #10
 8002272:	2202      	movs	r2, #2
 8002274:	487d      	ldr	r0, [pc, #500]	@ (800246c <SPI_Init+0x568>)
 8002276:	f7ff fd4f 	bl	8001d18 <GPIO_Pin_Init>
 800227a:	79a3      	ldrb	r3, [r4, #6]
 800227c:	2b1b      	cmp	r3, #27
 800227e:	d115      	bne.n	80022ac <SPI_Init+0x3a8>
 8002280:	2203      	movs	r2, #3
 8002282:	2300      	movs	r3, #0
 8002284:	f04f 0c05 	mov.w	ip, #5
 8002288:	9200      	str	r2, [sp, #0]
 800228a:	e9cd 3c01 	strd	r3, ip, [sp, #4]
 800228e:	2202      	movs	r2, #2
 8002290:	210e      	movs	r1, #14
 8002292:	e766      	b.n	8002162 <SPI_Init+0x25e>
 8002294:	2b17      	cmp	r3, #23
 8002296:	d1f0      	bne.n	800227a <SPI_Init+0x376>
 8002298:	2203      	movs	r2, #3
 800229a:	2300      	movs	r3, #0
 800229c:	f04f 0e05 	mov.w	lr, #5
 80022a0:	9200      	str	r2, [sp, #0]
 80022a2:	e9cd 3e01 	strd	r3, lr, [sp, #4]
 80022a6:	2202      	movs	r2, #2
 80022a8:	210d      	movs	r1, #13
 80022aa:	e7e3      	b.n	8002274 <SPI_Init+0x370>
 80022ac:	2b20      	cmp	r3, #32
 80022ae:	f47f af39 	bne.w	8002124 <SPI_Init+0x220>
 80022b2:	2300      	movs	r3, #0
 80022b4:	2505      	movs	r5, #5
 80022b6:	2203      	movs	r2, #3
 80022b8:	e9cd 3501 	strd	r3, r5, [sp, #4]
 80022bc:	9200      	str	r2, [sp, #0]
 80022be:	2202      	movs	r2, #2
 80022c0:	4611      	mov	r1, r2
 80022c2:	486b      	ldr	r0, [pc, #428]	@ (8002470 <SPI_Init+0x56c>)
 80022c4:	e72c      	b.n	8002120 <SPI_Init+0x21c>
 80022c6:	4a6b      	ldr	r2, [pc, #428]	@ (8002474 <SPI_Init+0x570>)
 80022c8:	4293      	cmp	r3, r2
 80022ca:	f47f ae65 	bne.w	8001f98 <SPI_Init+0x94>
 80022ce:	8923      	ldrh	r3, [r4, #8]
 80022d0:	3b0b      	subs	r3, #11
 80022d2:	2b07      	cmp	r3, #7
 80022d4:	f63f ae60 	bhi.w	8001f98 <SPI_Init+0x94>
 80022d8:	e8df f003 	tbb	[pc, r3]
 80022dc:	84510404 	.word	0x84510404
 80022e0:	84515184 	.word	0x84515184
 80022e4:	7923      	ldrb	r3, [r4, #4]
 80022e6:	2b17      	cmp	r3, #23
 80022e8:	d124      	bne.n	8002334 <SPI_Init+0x430>
 80022ea:	2006      	movs	r0, #6
 80022ec:	2300      	movs	r3, #0
 80022ee:	e9cd 3001 	strd	r3, r0, [sp, #4]
 80022f2:	2103      	movs	r1, #3
 80022f4:	485d      	ldr	r0, [pc, #372]	@ (800246c <SPI_Init+0x568>)
 80022f6:	9100      	str	r1, [sp, #0]
 80022f8:	2202      	movs	r2, #2
 80022fa:	f7ff fd0d 	bl	8001d18 <GPIO_Pin_Init>
 80022fe:	79a3      	ldrb	r3, [r4, #6]
 8002300:	2b18      	cmp	r3, #24
 8002302:	d123      	bne.n	800234c <SPI_Init+0x448>
 8002304:	2206      	movs	r2, #6
 8002306:	2300      	movs	r3, #0
 8002308:	e9cd 3201 	strd	r3, r2, [sp, #4]
 800230c:	4857      	ldr	r0, [pc, #348]	@ (800246c <SPI_Init+0x568>)
 800230e:	2203      	movs	r2, #3
 8002310:	9200      	str	r2, [sp, #0]
 8002312:	2104      	movs	r1, #4
 8002314:	2202      	movs	r2, #2
 8002316:	f7ff fcff 	bl	8001d18 <GPIO_Pin_Init>
 800231a:	7963      	ldrb	r3, [r4, #5]
 800231c:	2b19      	cmp	r3, #25
 800231e:	d122      	bne.n	8002366 <SPI_Init+0x462>
 8002320:	2203      	movs	r2, #3
 8002322:	2300      	movs	r3, #0
 8002324:	f04f 0c06 	mov.w	ip, #6
 8002328:	9200      	str	r2, [sp, #0]
 800232a:	e9cd 3c01 	strd	r3, ip, [sp, #4]
 800232e:	2202      	movs	r2, #2
 8002330:	2105      	movs	r1, #5
 8002332:	e69e      	b.n	8002072 <SPI_Init+0x16e>
 8002334:	2b25      	cmp	r3, #37	@ 0x25
 8002336:	d1e2      	bne.n	80022fe <SPI_Init+0x3fa>
 8002338:	2106      	movs	r1, #6
 800233a:	2203      	movs	r2, #3
 800233c:	2300      	movs	r3, #0
 800233e:	e9cd 3101 	strd	r3, r1, [sp, #4]
 8002342:	9200      	str	r2, [sp, #0]
 8002344:	484a      	ldr	r0, [pc, #296]	@ (8002470 <SPI_Init+0x56c>)
 8002346:	2202      	movs	r2, #2
 8002348:	210a      	movs	r1, #10
 800234a:	e7d6      	b.n	80022fa <SPI_Init+0x3f6>
 800234c:	2b27      	cmp	r3, #39	@ 0x27
 800234e:	d1e4      	bne.n	800231a <SPI_Init+0x416>
 8002350:	2203      	movs	r2, #3
 8002352:	2300      	movs	r3, #0
 8002354:	f04f 0e06 	mov.w	lr, #6
 8002358:	9200      	str	r2, [sp, #0]
 800235a:	e9cd 3e01 	strd	r3, lr, [sp, #4]
 800235e:	4844      	ldr	r0, [pc, #272]	@ (8002470 <SPI_Init+0x56c>)
 8002360:	2202      	movs	r2, #2
 8002362:	210b      	movs	r1, #11
 8002364:	e7d7      	b.n	8002316 <SPI_Init+0x412>
 8002366:	2b27      	cmp	r3, #39	@ 0x27
 8002368:	f47f ae11 	bne.w	8001f8e <SPI_Init+0x8a>
 800236c:	2203      	movs	r2, #3
 800236e:	2300      	movs	r3, #0
 8002370:	2506      	movs	r5, #6
 8002372:	9200      	str	r2, [sp, #0]
 8002374:	e9cd 3501 	strd	r3, r5, [sp, #4]
 8002378:	2202      	movs	r2, #2
 800237a:	210c      	movs	r1, #12
 800237c:	e755      	b.n	800222a <SPI_Init+0x326>
 800237e:	7923      	ldrb	r3, [r4, #4]
 8002380:	2b17      	cmp	r3, #23
 8002382:	d115      	bne.n	80023b0 <SPI_Init+0x4ac>
 8002384:	2006      	movs	r0, #6
 8002386:	2300      	movs	r3, #0
 8002388:	e9cd 3001 	strd	r3, r0, [sp, #4]
 800238c:	2103      	movs	r1, #3
 800238e:	4837      	ldr	r0, [pc, #220]	@ (800246c <SPI_Init+0x568>)
 8002390:	9100      	str	r1, [sp, #0]
 8002392:	2202      	movs	r2, #2
 8002394:	f7ff fcc0 	bl	8001d18 <GPIO_Pin_Init>
 8002398:	79a3      	ldrb	r3, [r4, #6]
 800239a:	2b18      	cmp	r3, #24
 800239c:	d114      	bne.n	80023c8 <SPI_Init+0x4c4>
 800239e:	2206      	movs	r2, #6
 80023a0:	2300      	movs	r3, #0
 80023a2:	e9cd 3201 	strd	r3, r2, [sp, #4]
 80023a6:	2203      	movs	r2, #3
 80023a8:	9200      	str	r2, [sp, #0]
 80023aa:	2104      	movs	r1, #4
 80023ac:	2202      	movs	r2, #2
 80023ae:	e69b      	b.n	80020e8 <SPI_Init+0x1e4>
 80023b0:	2b25      	cmp	r3, #37	@ 0x25
 80023b2:	d1f1      	bne.n	8002398 <SPI_Init+0x494>
 80023b4:	2106      	movs	r1, #6
 80023b6:	2203      	movs	r2, #3
 80023b8:	2300      	movs	r3, #0
 80023ba:	e9cd 3101 	strd	r3, r1, [sp, #4]
 80023be:	9200      	str	r2, [sp, #0]
 80023c0:	482b      	ldr	r0, [pc, #172]	@ (8002470 <SPI_Init+0x56c>)
 80023c2:	2202      	movs	r2, #2
 80023c4:	210a      	movs	r1, #10
 80023c6:	e7e5      	b.n	8002394 <SPI_Init+0x490>
 80023c8:	2b27      	cmp	r3, #39	@ 0x27
 80023ca:	f47f ae6f 	bne.w	80020ac <SPI_Init+0x1a8>
 80023ce:	2203      	movs	r2, #3
 80023d0:	2300      	movs	r3, #0
 80023d2:	f04f 0e06 	mov.w	lr, #6
 80023d6:	9200      	str	r2, [sp, #0]
 80023d8:	e9cd 3e01 	strd	r3, lr, [sp, #4]
 80023dc:	4824      	ldr	r0, [pc, #144]	@ (8002470 <SPI_Init+0x56c>)
 80023de:	2202      	movs	r2, #2
 80023e0:	210b      	movs	r1, #11
 80023e2:	e661      	b.n	80020a8 <SPI_Init+0x1a4>
 80023e4:	7923      	ldrb	r3, [r4, #4]
 80023e6:	2b17      	cmp	r3, #23
 80023e8:	d116      	bne.n	8002418 <SPI_Init+0x514>
 80023ea:	2300      	movs	r3, #0
 80023ec:	f04f 0c06 	mov.w	ip, #6
 80023f0:	e9cd 3c01 	strd	r3, ip, [sp, #4]
 80023f4:	2103      	movs	r1, #3
 80023f6:	481d      	ldr	r0, [pc, #116]	@ (800246c <SPI_Init+0x568>)
 80023f8:	9100      	str	r1, [sp, #0]
 80023fa:	2202      	movs	r2, #2
 80023fc:	f7ff fc8c 	bl	8001d18 <GPIO_Pin_Init>
 8002400:	7963      	ldrb	r3, [r4, #5]
 8002402:	2b19      	cmp	r3, #25
 8002404:	d114      	bne.n	8002430 <SPI_Init+0x52c>
 8002406:	2203      	movs	r2, #3
 8002408:	2300      	movs	r3, #0
 800240a:	2006      	movs	r0, #6
 800240c:	9200      	str	r2, [sp, #0]
 800240e:	e9cd 3001 	strd	r3, r0, [sp, #4]
 8002412:	2202      	movs	r2, #2
 8002414:	2105      	movs	r1, #5
 8002416:	e6a4      	b.n	8002162 <SPI_Init+0x25e>
 8002418:	2b25      	cmp	r3, #37	@ 0x25
 800241a:	d1f1      	bne.n	8002400 <SPI_Init+0x4fc>
 800241c:	2203      	movs	r2, #3
 800241e:	2300      	movs	r3, #0
 8002420:	2506      	movs	r5, #6
 8002422:	9200      	str	r2, [sp, #0]
 8002424:	e9cd 3501 	strd	r3, r5, [sp, #4]
 8002428:	4811      	ldr	r0, [pc, #68]	@ (8002470 <SPI_Init+0x56c>)
 800242a:	2202      	movs	r2, #2
 800242c:	210a      	movs	r1, #10
 800242e:	e7e5      	b.n	80023fc <SPI_Init+0x4f8>
 8002430:	2b27      	cmp	r3, #39	@ 0x27
 8002432:	f47f ae77 	bne.w	8002124 <SPI_Init+0x220>
 8002436:	2106      	movs	r1, #6
 8002438:	2203      	movs	r2, #3
 800243a:	2300      	movs	r3, #0
 800243c:	e9cd 3101 	strd	r3, r1, [sp, #4]
 8002440:	9200      	str	r2, [sp, #0]
 8002442:	210c      	movs	r1, #12
 8002444:	2202      	movs	r2, #2
 8002446:	e73c      	b.n	80022c2 <SPI_Init+0x3be>
 8002448:	2a16      	cmp	r2, #22
 800244a:	d121      	bne.n	8002490 <SPI_Init+0x58c>
 800244c:	681a      	ldr	r2, [r3, #0]
 800244e:	f042 0201 	orr.w	r2, r2, #1
 8002452:	e5bd      	b.n	8001fd0 <SPI_Init+0xcc>
 8002454:	2a20      	cmp	r2, #32
 8002456:	d11b      	bne.n	8002490 <SPI_Init+0x58c>
 8002458:	681a      	ldr	r2, [r3, #0]
 800245a:	f042 0202 	orr.w	r2, r2, #2
 800245e:	e5bf      	b.n	8001fe0 <SPI_Init+0xdc>
 8002460:	2a01      	cmp	r2, #1
 8002462:	d115      	bne.n	8002490 <SPI_Init+0x58c>
 8002464:	681a      	ldr	r2, [r3, #0]
 8002466:	f442 5200 	orr.w	r2, r2, #8192	@ 0x2000
 800246a:	e5c1      	b.n	8001ff0 <SPI_Init+0xec>
 800246c:	40020400 	.word	0x40020400
 8002470:	40020800 	.word	0x40020800
 8002474:	40003c00 	.word	0x40003c00
 8002478:	2a0c      	cmp	r2, #12
 800247a:	d109      	bne.n	8002490 <SPI_Init+0x58c>
 800247c:	681a      	ldr	r2, [r3, #0]
 800247e:	f442 6200 	orr.w	r2, r2, #2048	@ 0x800
 8002482:	e5bd      	b.n	8002000 <SPI_Init+0xfc>
 8002484:	2a17      	cmp	r2, #23
 8002486:	d103      	bne.n	8002490 <SPI_Init+0x58c>
 8002488:	681a      	ldr	r2, [r3, #0]
 800248a:	f022 0280 	bic.w	r2, r2, #128	@ 0x80
 800248e:	e5bf      	b.n	8002010 <SPI_Init+0x10c>
 8002490:	f04f 30ff 	mov.w	r0, #4294967295
 8002494:	b004      	add	sp, #16
 8002496:	bd70      	pop	{r4, r5, r6, pc}
 8002498:	681a      	ldr	r2, [r3, #0]
 800249a:	f022 0238 	bic.w	r2, r2, #56	@ 0x38
 800249e:	601a      	str	r2, [r3, #0]
 80024a0:	8a62      	ldrh	r2, [r4, #18]
 80024a2:	2a32      	cmp	r2, #50	@ 0x32
 80024a4:	d127      	bne.n	80024f6 <SPI_Init+0x5f2>
 80024a6:	681a      	ldr	r2, [r3, #0]
 80024a8:	f042 0204 	orr.w	r2, r2, #4
 80024ac:	601a      	str	r2, [r3, #0]
 80024ae:	8b22      	ldrh	r2, [r4, #24]
 80024b0:	3a46      	subs	r2, #70	@ 0x46
 80024b2:	2a03      	cmp	r2, #3
 80024b4:	d8ec      	bhi.n	8002490 <SPI_Init+0x58c>
 80024b6:	e8df f002 	tbb	[pc, r2]
 80024ba:	7824      	.short	0x7824
 80024bc:	7074      	.short	0x7074
 80024be:	681a      	ldr	r2, [r3, #0]
 80024c0:	f042 0208 	orr.w	r2, r2, #8
 80024c4:	e7eb      	b.n	800249e <SPI_Init+0x59a>
 80024c6:	681a      	ldr	r2, [r3, #0]
 80024c8:	f042 0210 	orr.w	r2, r2, #16
 80024cc:	e7e7      	b.n	800249e <SPI_Init+0x59a>
 80024ce:	681a      	ldr	r2, [r3, #0]
 80024d0:	f042 0218 	orr.w	r2, r2, #24
 80024d4:	e7e3      	b.n	800249e <SPI_Init+0x59a>
 80024d6:	681a      	ldr	r2, [r3, #0]
 80024d8:	f042 0220 	orr.w	r2, r2, #32
 80024dc:	e7df      	b.n	800249e <SPI_Init+0x59a>
 80024de:	681a      	ldr	r2, [r3, #0]
 80024e0:	f042 0228 	orr.w	r2, r2, #40	@ 0x28
 80024e4:	e7db      	b.n	800249e <SPI_Init+0x59a>
 80024e6:	681a      	ldr	r2, [r3, #0]
 80024e8:	f042 0230 	orr.w	r2, r2, #48	@ 0x30
 80024ec:	e7d7      	b.n	800249e <SPI_Init+0x59a>
 80024ee:	681a      	ldr	r2, [r3, #0]
 80024f0:	f042 0238 	orr.w	r2, r2, #56	@ 0x38
 80024f4:	e7d3      	b.n	800249e <SPI_Init+0x59a>
 80024f6:	2a33      	cmp	r2, #51	@ 0x33
 80024f8:	d1ca      	bne.n	8002490 <SPI_Init+0x58c>
 80024fa:	681a      	ldr	r2, [r3, #0]
 80024fc:	f022 0204 	bic.w	r2, r2, #4
 8002500:	e7d4      	b.n	80024ac <SPI_Init+0x5a8>
 8002502:	685a      	ldr	r2, [r3, #4]
 8002504:	f022 02e0 	bic.w	r2, r2, #224	@ 0xe0
 8002508:	605a      	str	r2, [r3, #4]
 800250a:	8b62      	ldrh	r2, [r4, #26]
 800250c:	0712      	lsls	r2, r2, #28
 800250e:	d51f      	bpl.n	8002550 <SPI_Init+0x64c>
 8002510:	4a40      	ldr	r2, [pc, #256]	@ (8002614 <SPI_Init+0x710>)
 8002512:	4d41      	ldr	r5, [pc, #260]	@ (8002618 <SPI_Init+0x714>)
 8002514:	4293      	cmp	r3, r2
 8002516:	d14c      	bne.n	80025b2 <SPI_Init+0x6ae>
 8002518:	4b40      	ldr	r3, [pc, #256]	@ (800261c <SPI_Init+0x718>)
 800251a:	e893 0007 	ldmia.w	r3, {r0, r1, r2}
 800251e:	e885 0007 	stmia.w	r5, {r0, r1, r2}
 8002522:	4b3f      	ldr	r3, [pc, #252]	@ (8002620 <SPI_Init+0x71c>)
 8002524:	64eb      	str	r3, [r5, #76]	@ 0x4c
 8002526:	2058      	movs	r0, #88	@ 0x58
 8002528:	fb00 5306 	mla	r3, r0, r6, r5
 800252c:	2200      	movs	r2, #0
 800252e:	f44f 3140 	mov.w	r1, #196608	@ 0x30000
 8002532:	e9c3 2203 	strd	r2, r2, [r3, #12]
 8002536:	e9c3 1205 	strd	r1, r2, [r3, #20]
 800253a:	f04f 0c10 	mov.w	ip, #16
 800253e:	f44f 6280 	mov.w	r2, #1024	@ 0x400
 8002542:	fb16 f000 	smulbb	r0, r6, r0
 8002546:	e9c3 c207 	strd	ip, r2, [r3, #28]
 800254a:	4428      	add	r0, r5
 800254c:	f7ff f9ee 	bl	800192c <DMA_Init>
 8002550:	8b63      	ldrh	r3, [r4, #26]
 8002552:	079d      	lsls	r5, r3, #30
 8002554:	d51f      	bpl.n	8002596 <SPI_Init+0x692>
 8002556:	4b2f      	ldr	r3, [pc, #188]	@ (8002614 <SPI_Init+0x710>)
 8002558:	6822      	ldr	r2, [r4, #0]
 800255a:	429a      	cmp	r2, r3
 800255c:	4b31      	ldr	r3, [pc, #196]	@ (8002624 <SPI_Init+0x720>)
 800255e:	d13f      	bne.n	80025e0 <SPI_Init+0x6dc>
 8002560:	4a31      	ldr	r2, [pc, #196]	@ (8002628 <SPI_Init+0x724>)
 8002562:	ca07      	ldmia	r2, {r0, r1, r2}
 8002564:	e883 0007 	stmia.w	r3, {r0, r1, r2}
 8002568:	4a30      	ldr	r2, [pc, #192]	@ (800262c <SPI_Init+0x728>)
 800256a:	64da      	str	r2, [r3, #76]	@ 0x4c
 800256c:	2158      	movs	r1, #88	@ 0x58
 800256e:	fb01 3206 	mla	r2, r1, r6, r3
 8002572:	2000      	movs	r0, #0
 8002574:	2440      	movs	r4, #64	@ 0x40
 8002576:	e9c2 0403 	strd	r0, r4, [r2, #12]
 800257a:	f44f 3440 	mov.w	r4, #196608	@ 0x30000
 800257e:	e9c2 4005 	strd	r4, r0, [r2, #20]
 8002582:	f44f 6080 	mov.w	r0, #1024	@ 0x400
 8002586:	2410      	movs	r4, #16
 8002588:	e9c2 4007 	strd	r4, r0, [r2, #28]
 800258c:	fb16 f001 	smulbb	r0, r6, r1
 8002590:	4418      	add	r0, r3
 8002592:	f7ff f9cb 	bl	800192c <DMA_Init>
 8002596:	2001      	movs	r0, #1
 8002598:	e77c      	b.n	8002494 <SPI_Init+0x590>
 800259a:	685a      	ldr	r2, [r3, #4]
 800259c:	f042 0280 	orr.w	r2, r2, #128	@ 0x80
 80025a0:	e7b2      	b.n	8002508 <SPI_Init+0x604>
 80025a2:	685a      	ldr	r2, [r3, #4]
 80025a4:	f042 0240 	orr.w	r2, r2, #64	@ 0x40
 80025a8:	e7ae      	b.n	8002508 <SPI_Init+0x604>
 80025aa:	685a      	ldr	r2, [r3, #4]
 80025ac:	f042 0220 	orr.w	r2, r2, #32
 80025b0:	e7aa      	b.n	8002508 <SPI_Init+0x604>
 80025b2:	4a1f      	ldr	r2, [pc, #124]	@ (8002630 <SPI_Init+0x72c>)
 80025b4:	4293      	cmp	r3, r2
 80025b6:	d109      	bne.n	80025cc <SPI_Init+0x6c8>
 80025b8:	4a1e      	ldr	r2, [pc, #120]	@ (8002634 <SPI_Init+0x730>)
 80025ba:	ca07      	ldmia	r2, {r0, r1, r2}
 80025bc:	f105 0358 	add.w	r3, r5, #88	@ 0x58
 80025c0:	e883 0007 	stmia.w	r3, {r0, r1, r2}
 80025c4:	4b1c      	ldr	r3, [pc, #112]	@ (8002638 <SPI_Init+0x734>)
 80025c6:	f8c5 30a4 	str.w	r3, [r5, #164]	@ 0xa4
 80025ca:	e7ac      	b.n	8002526 <SPI_Init+0x622>
 80025cc:	4a1b      	ldr	r2, [pc, #108]	@ (800263c <SPI_Init+0x738>)
 80025ce:	ca07      	ldmia	r2, {r0, r1, r2}
 80025d0:	f105 03b0 	add.w	r3, r5, #176	@ 0xb0
 80025d4:	e883 0007 	stmia.w	r3, {r0, r1, r2}
 80025d8:	4b19      	ldr	r3, [pc, #100]	@ (8002640 <SPI_Init+0x73c>)
 80025da:	f8c5 30fc 	str.w	r3, [r5, #252]	@ 0xfc
 80025de:	e7a2      	b.n	8002526 <SPI_Init+0x622>
 80025e0:	4913      	ldr	r1, [pc, #76]	@ (8002630 <SPI_Init+0x72c>)
 80025e2:	428a      	cmp	r2, r1
 80025e4:	d109      	bne.n	80025fa <SPI_Init+0x6f6>
 80025e6:	4a17      	ldr	r2, [pc, #92]	@ (8002644 <SPI_Init+0x740>)
 80025e8:	ca07      	ldmia	r2, {r0, r1, r2}
 80025ea:	f103 0458 	add.w	r4, r3, #88	@ 0x58
 80025ee:	e884 0007 	stmia.w	r4, {r0, r1, r2}
 80025f2:	4a15      	ldr	r2, [pc, #84]	@ (8002648 <SPI_Init+0x744>)
 80025f4:	f8c3 20a4 	str.w	r2, [r3, #164]	@ 0xa4
 80025f8:	e7b8      	b.n	800256c <SPI_Init+0x668>
 80025fa:	4914      	ldr	r1, [pc, #80]	@ (800264c <SPI_Init+0x748>)
 80025fc:	428a      	cmp	r2, r1
 80025fe:	d1b5      	bne.n	800256c <SPI_Init+0x668>
 8002600:	4a13      	ldr	r2, [pc, #76]	@ (8002650 <SPI_Init+0x74c>)
 8002602:	ca07      	ldmia	r2, {r0, r1, r2}
 8002604:	f103 04b0 	add.w	r4, r3, #176	@ 0xb0
 8002608:	e884 0007 	stmia.w	r4, {r0, r1, r2}
 800260c:	4a11      	ldr	r2, [pc, #68]	@ (8002654 <SPI_Init+0x750>)
 800260e:	f8c3 20fc 	str.w	r2, [r3, #252]	@ 0xfc
 8002612:	e7ab      	b.n	800256c <SPI_Init+0x668>
 8002614:	40013000 	.word	0x40013000
 8002618:	200000ac 	.word	0x200000ac
 800261c:	08003c60 	.word	0x08003c60
 8002620:	08001e4d 	.word	0x08001e4d
 8002624:	200001b4 	.word	0x200001b4
 8002628:	08003c6c 	.word	0x08003c6c
 800262c:	08001e41 	.word	0x08001e41
 8002630:	40003800 	.word	0x40003800
 8002634:	08003c48 	.word	0x08003c48
 8002638:	08001e65 	.word	0x08001e65
 800263c:	08003c30 	.word	0x08003c30
 8002640:	08001e7d 	.word	0x08001e7d
 8002644:	08003c54 	.word	0x08003c54
 8002648:	08001e59 	.word	0x08001e59
 800264c:	40003c00 	.word	0x40003c00
 8002650:	08003c3c 	.word	0x08003c3c
 8002654:	08001e71 	.word	0x08001e71

08002658 <SPI_Enable>:
 8002658:	6802      	ldr	r2, [r0, #0]
 800265a:	6813      	ldr	r3, [r2, #0]
 800265c:	f043 0340 	orr.w	r3, r3, #64	@ 0x40
 8002660:	6013      	str	r3, [r2, #0]
 8002662:	4770      	bx	lr

08002664 <SPI_TRX_Byte>:
 8002664:	b082      	sub	sp, #8
 8002666:	2300      	movs	r3, #0
 8002668:	f8ad 3006 	strh.w	r3, [sp, #6]
 800266c:	6803      	ldr	r3, [r0, #0]
 800266e:	689a      	ldr	r2, [r3, #8]
 8002670:	0792      	lsls	r2, r2, #30
 8002672:	d5fc      	bpl.n	800266e <SPI_TRX_Byte+0xa>
 8002674:	60d9      	str	r1, [r3, #12]
 8002676:	689a      	ldr	r2, [r3, #8]
 8002678:	07d0      	lsls	r0, r2, #31
 800267a:	d5fc      	bpl.n	8002676 <SPI_TRX_Byte+0x12>
 800267c:	68da      	ldr	r2, [r3, #12]
 800267e:	b292      	uxth	r2, r2
 8002680:	f8ad 2006 	strh.w	r2, [sp, #6]
 8002684:	689a      	ldr	r2, [r3, #8]
 8002686:	0791      	lsls	r1, r2, #30
 8002688:	d5fc      	bpl.n	8002684 <SPI_TRX_Byte+0x20>
 800268a:	689a      	ldr	r2, [r3, #8]
 800268c:	0612      	lsls	r2, r2, #24
 800268e:	d4fc      	bmi.n	800268a <SPI_TRX_Byte+0x26>
 8002690:	f8bd 0006 	ldrh.w	r0, [sp, #6]
 8002694:	b280      	uxth	r0, r0
 8002696:	b002      	add	sp, #8
 8002698:	4770      	bx	lr
	...

0800269c <TIM1_BRK_TIM9_IRQHandler>:
 800269c:	4b1b      	ldr	r3, [pc, #108]	@ (800270c <TIM1_BRK_TIM9_IRQHandler+0x70>)
 800269e:	681b      	ldr	r3, [r3, #0]
 80026a0:	f8d3 20a8 	ldr.w	r2, [r3, #168]	@ 0xa8
 80026a4:	b510      	push	{r4, lr}
 80026a6:	b12a      	cbz	r2, 80026b4 <TIM1_BRK_TIM9_IRQHandler+0x18>
 80026a8:	4919      	ldr	r1, [pc, #100]	@ (8002710 <TIM1_BRK_TIM9_IRQHandler+0x74>)
 80026aa:	690b      	ldr	r3, [r1, #16]
 80026ac:	f023 0380 	bic.w	r3, r3, #128	@ 0x80
 80026b0:	610b      	str	r3, [r1, #16]
 80026b2:	4790      	blx	r2
 80026b4:	4c17      	ldr	r4, [pc, #92]	@ (8002714 <TIM1_BRK_TIM9_IRQHandler+0x78>)
 80026b6:	6823      	ldr	r3, [r4, #0]
 80026b8:	f8d3 2090 	ldr.w	r2, [r3, #144]	@ 0x90
 80026bc:	b12a      	cbz	r2, 80026ca <TIM1_BRK_TIM9_IRQHandler+0x2e>
 80026be:	4916      	ldr	r1, [pc, #88]	@ (8002718 <TIM1_BRK_TIM9_IRQHandler+0x7c>)
 80026c0:	690b      	ldr	r3, [r1, #16]
 80026c2:	f023 0302 	bic.w	r3, r3, #2
 80026c6:	610b      	str	r3, [r1, #16]
 80026c8:	4790      	blx	r2
 80026ca:	6823      	ldr	r3, [r4, #0]
 80026cc:	f8d3 2094 	ldr.w	r2, [r3, #148]	@ 0x94
 80026d0:	b12a      	cbz	r2, 80026de <TIM1_BRK_TIM9_IRQHandler+0x42>
 80026d2:	4911      	ldr	r1, [pc, #68]	@ (8002718 <TIM1_BRK_TIM9_IRQHandler+0x7c>)
 80026d4:	690b      	ldr	r3, [r1, #16]
 80026d6:	f023 0304 	bic.w	r3, r3, #4
 80026da:	610b      	str	r3, [r1, #16]
 80026dc:	4790      	blx	r2
 80026de:	6823      	ldr	r3, [r4, #0]
 80026e0:	f8d3 308c 	ldr.w	r3, [r3, #140]	@ 0x8c
 80026e4:	b12b      	cbz	r3, 80026f2 <TIM1_BRK_TIM9_IRQHandler+0x56>
 80026e6:	4798      	blx	r3
 80026e8:	4a0b      	ldr	r2, [pc, #44]	@ (8002718 <TIM1_BRK_TIM9_IRQHandler+0x7c>)
 80026ea:	6913      	ldr	r3, [r2, #16]
 80026ec:	f023 0301 	bic.w	r3, r3, #1
 80026f0:	6113      	str	r3, [r2, #16]
 80026f2:	6823      	ldr	r3, [r4, #0]
 80026f4:	f8d3 20a4 	ldr.w	r2, [r3, #164]	@ 0xa4
 80026f8:	b13a      	cbz	r2, 800270a <TIM1_BRK_TIM9_IRQHandler+0x6e>
 80026fa:	4907      	ldr	r1, [pc, #28]	@ (8002718 <TIM1_BRK_TIM9_IRQHandler+0x7c>)
 80026fc:	690b      	ldr	r3, [r1, #16]
 80026fe:	f023 0340 	bic.w	r3, r3, #64	@ 0x40
 8002702:	e8bd 4010 	ldmia.w	sp!, {r4, lr}
 8002706:	610b      	str	r3, [r1, #16]
 8002708:	4710      	bx	r2
 800270a:	bd10      	pop	{r4, pc}
 800270c:	200002f8 	.word	0x200002f8
 8002710:	40010000 	.word	0x40010000
 8002714:	200002d8 	.word	0x200002d8
 8002718:	40014000 	.word	0x40014000

0800271c <TIM1_UP_TIM10_IRQHandler>:
 800271c:	4b10      	ldr	r3, [pc, #64]	@ (8002760 <TIM1_UP_TIM10_IRQHandler+0x44>)
 800271e:	681b      	ldr	r3, [r3, #0]
 8002720:	f8d3 308c 	ldr.w	r3, [r3, #140]	@ 0x8c
 8002724:	b510      	push	{r4, lr}
 8002726:	b12b      	cbz	r3, 8002734 <TIM1_UP_TIM10_IRQHandler+0x18>
 8002728:	4798      	blx	r3
 800272a:	4a0e      	ldr	r2, [pc, #56]	@ (8002764 <TIM1_UP_TIM10_IRQHandler+0x48>)
 800272c:	6913      	ldr	r3, [r2, #16]
 800272e:	f023 0301 	bic.w	r3, r3, #1
 8002732:	6113      	str	r3, [r2, #16]
 8002734:	4c0c      	ldr	r4, [pc, #48]	@ (8002768 <TIM1_UP_TIM10_IRQHandler+0x4c>)
 8002736:	6823      	ldr	r3, [r4, #0]
 8002738:	f8d3 308c 	ldr.w	r3, [r3, #140]	@ 0x8c
 800273c:	b12b      	cbz	r3, 800274a <TIM1_UP_TIM10_IRQHandler+0x2e>
 800273e:	4798      	blx	r3
 8002740:	4a0a      	ldr	r2, [pc, #40]	@ (800276c <TIM1_UP_TIM10_IRQHandler+0x50>)
 8002742:	6913      	ldr	r3, [r2, #16]
 8002744:	f023 0301 	bic.w	r3, r3, #1
 8002748:	6113      	str	r3, [r2, #16]
 800274a:	6823      	ldr	r3, [r4, #0]
 800274c:	f8d3 3090 	ldr.w	r3, [r3, #144]	@ 0x90
 8002750:	b12b      	cbz	r3, 800275e <TIM1_UP_TIM10_IRQHandler+0x42>
 8002752:	4798      	blx	r3
 8002754:	4a05      	ldr	r2, [pc, #20]	@ (800276c <TIM1_UP_TIM10_IRQHandler+0x50>)
 8002756:	6913      	ldr	r3, [r2, #16]
 8002758:	f023 0302 	bic.w	r3, r3, #2
 800275c:	6113      	str	r3, [r2, #16]
 800275e:	bd10      	pop	{r4, pc}
 8002760:	200002f8 	.word	0x200002f8
 8002764:	40010000 	.word	0x40010000
 8002768:	200002d4 	.word	0x200002d4
 800276c:	40014400 	.word	0x40014400

08002770 <TIM1_TRG_COM_TIM11_IRQHandler>:
 8002770:	b510      	push	{r4, lr}
 8002772:	4c16      	ldr	r4, [pc, #88]	@ (80027cc <TIM1_TRG_COM_TIM11_IRQHandler+0x5c>)
 8002774:	6823      	ldr	r3, [r4, #0]
 8002776:	f8d3 20a4 	ldr.w	r2, [r3, #164]	@ 0xa4
 800277a:	b12a      	cbz	r2, 8002788 <TIM1_TRG_COM_TIM11_IRQHandler+0x18>
 800277c:	4914      	ldr	r1, [pc, #80]	@ (80027d0 <TIM1_TRG_COM_TIM11_IRQHandler+0x60>)
 800277e:	690b      	ldr	r3, [r1, #16]
 8002780:	f023 0340 	bic.w	r3, r3, #64	@ 0x40
 8002784:	610b      	str	r3, [r1, #16]
 8002786:	4790      	blx	r2
 8002788:	6823      	ldr	r3, [r4, #0]
 800278a:	f8d3 20a0 	ldr.w	r2, [r3, #160]	@ 0xa0
 800278e:	b12a      	cbz	r2, 800279c <TIM1_TRG_COM_TIM11_IRQHandler+0x2c>
 8002790:	490f      	ldr	r1, [pc, #60]	@ (80027d0 <TIM1_TRG_COM_TIM11_IRQHandler+0x60>)
 8002792:	690b      	ldr	r3, [r1, #16]
 8002794:	f023 0320 	bic.w	r3, r3, #32
 8002798:	610b      	str	r3, [r1, #16]
 800279a:	4790      	blx	r2
 800279c:	4c0d      	ldr	r4, [pc, #52]	@ (80027d4 <TIM1_TRG_COM_TIM11_IRQHandler+0x64>)
 800279e:	6823      	ldr	r3, [r4, #0]
 80027a0:	f8d3 208c 	ldr.w	r2, [r3, #140]	@ 0x8c
 80027a4:	b12a      	cbz	r2, 80027b2 <TIM1_TRG_COM_TIM11_IRQHandler+0x42>
 80027a6:	490c      	ldr	r1, [pc, #48]	@ (80027d8 <TIM1_TRG_COM_TIM11_IRQHandler+0x68>)
 80027a8:	690b      	ldr	r3, [r1, #16]
 80027aa:	f023 0301 	bic.w	r3, r3, #1
 80027ae:	610b      	str	r3, [r1, #16]
 80027b0:	4790      	blx	r2
 80027b2:	6823      	ldr	r3, [r4, #0]
 80027b4:	f8d3 2090 	ldr.w	r2, [r3, #144]	@ 0x90
 80027b8:	b13a      	cbz	r2, 80027ca <TIM1_TRG_COM_TIM11_IRQHandler+0x5a>
 80027ba:	4907      	ldr	r1, [pc, #28]	@ (80027d8 <TIM1_TRG_COM_TIM11_IRQHandler+0x68>)
 80027bc:	690b      	ldr	r3, [r1, #16]
 80027be:	f023 0302 	bic.w	r3, r3, #2
 80027c2:	e8bd 4010 	ldmia.w	sp!, {r4, lr}
 80027c6:	610b      	str	r3, [r1, #16]
 80027c8:	4710      	bx	r2
 80027ca:	bd10      	pop	{r4, pc}
 80027cc:	200002f8 	.word	0x200002f8
 80027d0:	40010000 	.word	0x40010000
 80027d4:	200002d0 	.word	0x200002d0
 80027d8:	40014800 	.word	0x40014800

080027dc <TIM1_CC_IRQHandler>:
 80027dc:	b510      	push	{r4, lr}
 80027de:	4c16      	ldr	r4, [pc, #88]	@ (8002838 <TIM1_CC_IRQHandler+0x5c>)
 80027e0:	6823      	ldr	r3, [r4, #0]
 80027e2:	f8d3 2090 	ldr.w	r2, [r3, #144]	@ 0x90
 80027e6:	b12a      	cbz	r2, 80027f4 <TIM1_CC_IRQHandler+0x18>
 80027e8:	4914      	ldr	r1, [pc, #80]	@ (800283c <TIM1_CC_IRQHandler+0x60>)
 80027ea:	690b      	ldr	r3, [r1, #16]
 80027ec:	f023 0302 	bic.w	r3, r3, #2
 80027f0:	610b      	str	r3, [r1, #16]
 80027f2:	4790      	blx	r2
 80027f4:	6823      	ldr	r3, [r4, #0]
 80027f6:	f8d3 2094 	ldr.w	r2, [r3, #148]	@ 0x94
 80027fa:	b12a      	cbz	r2, 8002808 <TIM1_CC_IRQHandler+0x2c>
 80027fc:	490f      	ldr	r1, [pc, #60]	@ (800283c <TIM1_CC_IRQHandler+0x60>)
 80027fe:	690b      	ldr	r3, [r1, #16]
 8002800:	f023 0304 	bic.w	r3, r3, #4
 8002804:	610b      	str	r3, [r1, #16]
 8002806:	4790      	blx	r2
 8002808:	6823      	ldr	r3, [r4, #0]
 800280a:	f8d3 2098 	ldr.w	r2, [r3, #152]	@ 0x98
 800280e:	b12a      	cbz	r2, 800281c <TIM1_CC_IRQHandler+0x40>
 8002810:	490a      	ldr	r1, [pc, #40]	@ (800283c <TIM1_CC_IRQHandler+0x60>)
 8002812:	690b      	ldr	r3, [r1, #16]
 8002814:	f023 0308 	bic.w	r3, r3, #8
 8002818:	610b      	str	r3, [r1, #16]
 800281a:	4790      	blx	r2
 800281c:	6823      	ldr	r3, [r4, #0]
 800281e:	f8d3 209c 	ldr.w	r2, [r3, #156]	@ 0x9c
 8002822:	b13a      	cbz	r2, 8002834 <TIM1_CC_IRQHandler+0x58>
 8002824:	4905      	ldr	r1, [pc, #20]	@ (800283c <TIM1_CC_IRQHandler+0x60>)
 8002826:	690b      	ldr	r3, [r1, #16]
 8002828:	f023 0310 	bic.w	r3, r3, #16
 800282c:	e8bd 4010 	ldmia.w	sp!, {r4, lr}
 8002830:	610b      	str	r3, [r1, #16]
 8002832:	4710      	bx	r2
 8002834:	bd10      	pop	{r4, pc}
 8002836:	bf00      	nop
 8002838:	200002f8 	.word	0x200002f8
 800283c:	40010000 	.word	0x40010000

08002840 <TIM2_IRQHandler>:
 8002840:	b510      	push	{r4, lr}
 8002842:	4c23      	ldr	r4, [pc, #140]	@ (80028d0 <TIM2_IRQHandler+0x90>)
 8002844:	6823      	ldr	r3, [r4, #0]
 8002846:	f8d3 3090 	ldr.w	r3, [r3, #144]	@ 0x90
 800284a:	b133      	cbz	r3, 800285a <TIM2_IRQHandler+0x1a>
 800284c:	4798      	blx	r3
 800284e:	f04f 4280 	mov.w	r2, #1073741824	@ 0x40000000
 8002852:	6913      	ldr	r3, [r2, #16]
 8002854:	f023 0302 	bic.w	r3, r3, #2
 8002858:	6113      	str	r3, [r2, #16]
 800285a:	6823      	ldr	r3, [r4, #0]
 800285c:	f8d3 2094 	ldr.w	r2, [r3, #148]	@ 0x94
 8002860:	b132      	cbz	r2, 8002870 <TIM2_IRQHandler+0x30>
 8002862:	f04f 4180 	mov.w	r1, #1073741824	@ 0x40000000
 8002866:	690b      	ldr	r3, [r1, #16]
 8002868:	f023 0304 	bic.w	r3, r3, #4
 800286c:	610b      	str	r3, [r1, #16]
 800286e:	4790      	blx	r2
 8002870:	6823      	ldr	r3, [r4, #0]
 8002872:	f8d3 2098 	ldr.w	r2, [r3, #152]	@ 0x98
 8002876:	b132      	cbz	r2, 8002886 <TIM2_IRQHandler+0x46>
 8002878:	f04f 4180 	mov.w	r1, #1073741824	@ 0x40000000
 800287c:	690b      	ldr	r3, [r1, #16]
 800287e:	f023 0308 	bic.w	r3, r3, #8
 8002882:	610b      	str	r3, [r1, #16]
 8002884:	4790      	blx	r2
 8002886:	6823      	ldr	r3, [r4, #0]
 8002888:	f8d3 209c 	ldr.w	r2, [r3, #156]	@ 0x9c
 800288c:	b132      	cbz	r2, 800289c <TIM2_IRQHandler+0x5c>
 800288e:	f04f 4180 	mov.w	r1, #1073741824	@ 0x40000000
 8002892:	690b      	ldr	r3, [r1, #16]
 8002894:	f023 0310 	bic.w	r3, r3, #16
 8002898:	610b      	str	r3, [r1, #16]
 800289a:	4790      	blx	r2
 800289c:	6823      	ldr	r3, [r4, #0]
 800289e:	f8d3 208c 	ldr.w	r2, [r3, #140]	@ 0x8c
 80028a2:	b132      	cbz	r2, 80028b2 <TIM2_IRQHandler+0x72>
 80028a4:	f04f 4180 	mov.w	r1, #1073741824	@ 0x40000000
 80028a8:	690b      	ldr	r3, [r1, #16]
 80028aa:	f023 0301 	bic.w	r3, r3, #1
 80028ae:	610b      	str	r3, [r1, #16]
 80028b0:	4790      	blx	r2
 80028b2:	6823      	ldr	r3, [r4, #0]
 80028b4:	f8d3 20a4 	ldr.w	r2, [r3, #164]	@ 0xa4
 80028b8:	b142      	cbz	r2, 80028cc <TIM2_IRQHandler+0x8c>
 80028ba:	f04f 4180 	mov.w	r1, #1073741824	@ 0x40000000
 80028be:	e8bd 4010 	ldmia.w	sp!, {r4, lr}
 80028c2:	690b      	ldr	r3, [r1, #16]
 80028c4:	f023 0340 	bic.w	r3, r3, #64	@ 0x40
 80028c8:	610b      	str	r3, [r1, #16]
 80028ca:	4710      	bx	r2
 80028cc:	bd10      	pop	{r4, pc}
 80028ce:	bf00      	nop
 80028d0:	200002f4 	.word	0x200002f4

080028d4 <TIM3_IRQHandler>:
 80028d4:	b510      	push	{r4, lr}
 80028d6:	4c20      	ldr	r4, [pc, #128]	@ (8002958 <TIM3_IRQHandler+0x84>)
 80028d8:	6823      	ldr	r3, [r4, #0]
 80028da:	f8d3 2090 	ldr.w	r2, [r3, #144]	@ 0x90
 80028de:	b12a      	cbz	r2, 80028ec <TIM3_IRQHandler+0x18>
 80028e0:	491e      	ldr	r1, [pc, #120]	@ (800295c <TIM3_IRQHandler+0x88>)
 80028e2:	690b      	ldr	r3, [r1, #16]
 80028e4:	f023 0302 	bic.w	r3, r3, #2
 80028e8:	610b      	str	r3, [r1, #16]
 80028ea:	4790      	blx	r2
 80028ec:	6823      	ldr	r3, [r4, #0]
 80028ee:	f8d3 2094 	ldr.w	r2, [r3, #148]	@ 0x94
 80028f2:	b12a      	cbz	r2, 8002900 <TIM3_IRQHandler+0x2c>
 80028f4:	4919      	ldr	r1, [pc, #100]	@ (800295c <TIM3_IRQHandler+0x88>)
 80028f6:	690b      	ldr	r3, [r1, #16]
 80028f8:	f023 0304 	bic.w	r3, r3, #4
 80028fc:	610b      	str	r3, [r1, #16]
 80028fe:	4790      	blx	r2
 8002900:	6823      	ldr	r3, [r4, #0]
 8002902:	f8d3 2098 	ldr.w	r2, [r3, #152]	@ 0x98
 8002906:	b12a      	cbz	r2, 8002914 <TIM3_IRQHandler+0x40>
 8002908:	4914      	ldr	r1, [pc, #80]	@ (800295c <TIM3_IRQHandler+0x88>)
 800290a:	690b      	ldr	r3, [r1, #16]
 800290c:	f023 0308 	bic.w	r3, r3, #8
 8002910:	610b      	str	r3, [r1, #16]
 8002912:	4790      	blx	r2
 8002914:	6823      	ldr	r3, [r4, #0]
 8002916:	f8d3 209c 	ldr.w	r2, [r3, #156]	@ 0x9c
 800291a:	b12a      	cbz	r2, 8002928 <TIM3_IRQHandler+0x54>
 800291c:	490f      	ldr	r1, [pc, #60]	@ (800295c <TIM3_IRQHandler+0x88>)
 800291e:	690b      	ldr	r3, [r1, #16]
 8002920:	f023 0310 	bic.w	r3, r3, #16
 8002924:	610b      	str	r3, [r1, #16]
 8002926:	4790      	blx	r2
 8002928:	6823      	ldr	r3, [r4, #0]
 800292a:	f8d3 208c 	ldr.w	r2, [r3, #140]	@ 0x8c
 800292e:	b12a      	cbz	r2, 800293c <TIM3_IRQHandler+0x68>
 8002930:	490a      	ldr	r1, [pc, #40]	@ (800295c <TIM3_IRQHandler+0x88>)
 8002932:	690b      	ldr	r3, [r1, #16]
 8002934:	f023 0301 	bic.w	r3, r3, #1
 8002938:	610b      	str	r3, [r1, #16]
 800293a:	4790      	blx	r2
 800293c:	6823      	ldr	r3, [r4, #0]
 800293e:	f8d3 20a4 	ldr.w	r2, [r3, #164]	@ 0xa4
 8002942:	b13a      	cbz	r2, 8002954 <TIM3_IRQHandler+0x80>
 8002944:	4905      	ldr	r1, [pc, #20]	@ (800295c <TIM3_IRQHandler+0x88>)
 8002946:	690b      	ldr	r3, [r1, #16]
 8002948:	f023 0340 	bic.w	r3, r3, #64	@ 0x40
 800294c:	e8bd 4010 	ldmia.w	sp!, {r4, lr}
 8002950:	610b      	str	r3, [r1, #16]
 8002952:	4710      	bx	r2
 8002954:	bd10      	pop	{r4, pc}
 8002956:	bf00      	nop
 8002958:	200002f0 	.word	0x200002f0
 800295c:	40000400 	.word	0x40000400

08002960 <TIM4_IRQHandler>:
 8002960:	b510      	push	{r4, lr}
 8002962:	4c20      	ldr	r4, [pc, #128]	@ (80029e4 <TIM4_IRQHandler+0x84>)
 8002964:	6823      	ldr	r3, [r4, #0]
 8002966:	f8d3 2090 	ldr.w	r2, [r3, #144]	@ 0x90
 800296a:	b12a      	cbz	r2, 8002978 <TIM4_IRQHandler+0x18>
 800296c:	491e      	ldr	r1, [pc, #120]	@ (80029e8 <TIM4_IRQHandler+0x88>)
 800296e:	690b      	ldr	r3, [r1, #16]
 8002970:	f023 0302 	bic.w	r3, r3, #2
 8002974:	610b      	str	r3, [r1, #16]
 8002976:	4790      	blx	r2
 8002978:	6823      	ldr	r3, [r4, #0]
 800297a:	f8d3 2094 	ldr.w	r2, [r3, #148]	@ 0x94
 800297e:	b12a      	cbz	r2, 800298c <TIM4_IRQHandler+0x2c>
 8002980:	4919      	ldr	r1, [pc, #100]	@ (80029e8 <TIM4_IRQHandler+0x88>)
 8002982:	690b      	ldr	r3, [r1, #16]
 8002984:	f023 0304 	bic.w	r3, r3, #4
 8002988:	610b      	str	r3, [r1, #16]
 800298a:	4790      	blx	r2
 800298c:	6823      	ldr	r3, [r4, #0]
 800298e:	f8d3 2098 	ldr.w	r2, [r3, #152]	@ 0x98
 8002992:	b12a      	cbz	r2, 80029a0 <TIM4_IRQHandler+0x40>
 8002994:	4914      	ldr	r1, [pc, #80]	@ (80029e8 <TIM4_IRQHandler+0x88>)
 8002996:	690b      	ldr	r3, [r1, #16]
 8002998:	f023 0308 	bic.w	r3, r3, #8
 800299c:	610b      	str	r3, [r1, #16]
 800299e:	4790      	blx	r2
 80029a0:	6823      	ldr	r3, [r4, #0]
 80029a2:	f8d3 209c 	ldr.w	r2, [r3, #156]	@ 0x9c
 80029a6:	b12a      	cbz	r2, 80029b4 <TIM4_IRQHandler+0x54>
 80029a8:	490f      	ldr	r1, [pc, #60]	@ (80029e8 <TIM4_IRQHandler+0x88>)
 80029aa:	690b      	ldr	r3, [r1, #16]
 80029ac:	f023 0310 	bic.w	r3, r3, #16
 80029b0:	610b      	str	r3, [r1, #16]
 80029b2:	4790      	blx	r2
 80029b4:	6823      	ldr	r3, [r4, #0]
 80029b6:	f8d3 208c 	ldr.w	r2, [r3, #140]	@ 0x8c
 80029ba:	b12a      	cbz	r2, 80029c8 <TIM4_IRQHandler+0x68>
 80029bc:	490a      	ldr	r1, [pc, #40]	@ (80029e8 <TIM4_IRQHandler+0x88>)
 80029be:	690b      	ldr	r3, [r1, #16]
 80029c0:	f023 0301 	bic.w	r3, r3, #1
 80029c4:	610b      	str	r3, [r1, #16]
 80029c6:	4790      	blx	r2
 80029c8:	6823      	ldr	r3, [r4, #0]
 80029ca:	f8d3 20a4 	ldr.w	r2, [r3, #164]	@ 0xa4
 80029ce:	b13a      	cbz	r2, 80029e0 <TIM4_IRQHandler+0x80>
 80029d0:	4905      	ldr	r1, [pc, #20]	@ (80029e8 <TIM4_IRQHandler+0x88>)
 80029d2:	690b      	ldr	r3, [r1, #16]
 80029d4:	f023 0340 	bic.w	r3, r3, #64	@ 0x40
 80029d8:	e8bd 4010 	ldmia.w	sp!, {r4, lr}
 80029dc:	610b      	str	r3, [r1, #16]
 80029de:	4710      	bx	r2
 80029e0:	bd10      	pop	{r4, pc}
 80029e2:	bf00      	nop
 80029e4:	200002ec 	.word	0x200002ec
 80029e8:	40000800 	.word	0x40000800

080029ec <TIM5_IRQHandler>:
 80029ec:	b510      	push	{r4, lr}
 80029ee:	4c20      	ldr	r4, [pc, #128]	@ (8002a70 <TIM5_IRQHandler+0x84>)
 80029f0:	6823      	ldr	r3, [r4, #0]
 80029f2:	f8d3 2090 	ldr.w	r2, [r3, #144]	@ 0x90
 80029f6:	b12a      	cbz	r2, 8002a04 <TIM5_IRQHandler+0x18>
 80029f8:	491e      	ldr	r1, [pc, #120]	@ (8002a74 <TIM5_IRQHandler+0x88>)
 80029fa:	690b      	ldr	r3, [r1, #16]
 80029fc:	f023 0302 	bic.w	r3, r3, #2
 8002a00:	610b      	str	r3, [r1, #16]
 8002a02:	4790      	blx	r2
 8002a04:	6823      	ldr	r3, [r4, #0]
 8002a06:	f8d3 2094 	ldr.w	r2, [r3, #148]	@ 0x94
 8002a0a:	b12a      	cbz	r2, 8002a18 <TIM5_IRQHandler+0x2c>
 8002a0c:	4919      	ldr	r1, [pc, #100]	@ (8002a74 <TIM5_IRQHandler+0x88>)
 8002a0e:	690b      	ldr	r3, [r1, #16]
 8002a10:	f023 0304 	bic.w	r3, r3, #4
 8002a14:	610b      	str	r3, [r1, #16]
 8002a16:	4790      	blx	r2
 8002a18:	6823      	ldr	r3, [r4, #0]
 8002a1a:	f8d3 2098 	ldr.w	r2, [r3, #152]	@ 0x98
 8002a1e:	b12a      	cbz	r2, 8002a2c <TIM5_IRQHandler+0x40>
 8002a20:	4914      	ldr	r1, [pc, #80]	@ (8002a74 <TIM5_IRQHandler+0x88>)
 8002a22:	690b      	ldr	r3, [r1, #16]
 8002a24:	f023 0308 	bic.w	r3, r3, #8
 8002a28:	610b      	str	r3, [r1, #16]
 8002a2a:	4790      	blx	r2
 8002a2c:	6823      	ldr	r3, [r4, #0]
 8002a2e:	f8d3 209c 	ldr.w	r2, [r3, #156]	@ 0x9c
 8002a32:	b12a      	cbz	r2, 8002a40 <TIM5_IRQHandler+0x54>
 8002a34:	490f      	ldr	r1, [pc, #60]	@ (8002a74 <TIM5_IRQHandler+0x88>)
 8002a36:	690b      	ldr	r3, [r1, #16]
 8002a38:	f023 0310 	bic.w	r3, r3, #16
 8002a3c:	610b      	str	r3, [r1, #16]
 8002a3e:	4790      	blx	r2
 8002a40:	6823      	ldr	r3, [r4, #0]
 8002a42:	f8d3 208c 	ldr.w	r2, [r3, #140]	@ 0x8c
 8002a46:	b12a      	cbz	r2, 8002a54 <TIM5_IRQHandler+0x68>
 8002a48:	490a      	ldr	r1, [pc, #40]	@ (8002a74 <TIM5_IRQHandler+0x88>)
 8002a4a:	690b      	ldr	r3, [r1, #16]
 8002a4c:	f023 0301 	bic.w	r3, r3, #1
 8002a50:	610b      	str	r3, [r1, #16]
 8002a52:	4790      	blx	r2
 8002a54:	6823      	ldr	r3, [r4, #0]
 8002a56:	f8d3 20a4 	ldr.w	r2, [r3, #164]	@ 0xa4
 8002a5a:	b13a      	cbz	r2, 8002a6c <TIM5_IRQHandler+0x80>
 8002a5c:	4905      	ldr	r1, [pc, #20]	@ (8002a74 <TIM5_IRQHandler+0x88>)
 8002a5e:	690b      	ldr	r3, [r1, #16]
 8002a60:	f023 0340 	bic.w	r3, r3, #64	@ 0x40
 8002a64:	e8bd 4010 	ldmia.w	sp!, {r4, lr}
 8002a68:	610b      	str	r3, [r1, #16]
 8002a6a:	4710      	bx	r2
 8002a6c:	bd10      	pop	{r4, pc}
 8002a6e:	bf00      	nop
 8002a70:	200002e8 	.word	0x200002e8
 8002a74:	40000c00 	.word	0x40000c00

08002a78 <TIM6_DAC_IRQHandler>:
 8002a78:	4b05      	ldr	r3, [pc, #20]	@ (8002a90 <TIM6_DAC_IRQHandler+0x18>)
 8002a7a:	681b      	ldr	r3, [r3, #0]
 8002a7c:	f8d3 208c 	ldr.w	r2, [r3, #140]	@ 0x8c
 8002a80:	b12a      	cbz	r2, 8002a8e <TIM6_DAC_IRQHandler+0x16>
 8002a82:	4904      	ldr	r1, [pc, #16]	@ (8002a94 <TIM6_DAC_IRQHandler+0x1c>)
 8002a84:	690b      	ldr	r3, [r1, #16]
 8002a86:	f023 0301 	bic.w	r3, r3, #1
 8002a8a:	610b      	str	r3, [r1, #16]
 8002a8c:	4710      	bx	r2
 8002a8e:	4770      	bx	lr
 8002a90:	200002e4 	.word	0x200002e4
 8002a94:	40001000 	.word	0x40001000

08002a98 <TIM7_IRQHandler>:
 8002a98:	4b05      	ldr	r3, [pc, #20]	@ (8002ab0 <TIM7_IRQHandler+0x18>)
 8002a9a:	681b      	ldr	r3, [r3, #0]
 8002a9c:	f8d3 208c 	ldr.w	r2, [r3, #140]	@ 0x8c
 8002aa0:	b12a      	cbz	r2, 8002aae <TIM7_IRQHandler+0x16>
 8002aa2:	4904      	ldr	r1, [pc, #16]	@ (8002ab4 <TIM7_IRQHandler+0x1c>)
 8002aa4:	690b      	ldr	r3, [r1, #16]
 8002aa6:	f023 0301 	bic.w	r3, r3, #1
 8002aaa:	610b      	str	r3, [r1, #16]
 8002aac:	4710      	bx	r2
 8002aae:	4770      	bx	lr
 8002ab0:	200002e0 	.word	0x200002e0
 8002ab4:	40001400 	.word	0x40001400

08002ab8 <TIM8_BRK_TIM12_IRQHandler>:
 8002ab8:	4b1a      	ldr	r3, [pc, #104]	@ (8002b24 <TIM8_BRK_TIM12_IRQHandler+0x6c>)
 8002aba:	681b      	ldr	r3, [r3, #0]
 8002abc:	f8d3 30a8 	ldr.w	r3, [r3, #168]	@ 0xa8
 8002ac0:	b510      	push	{r4, lr}
 8002ac2:	b12b      	cbz	r3, 8002ad0 <TIM8_BRK_TIM12_IRQHandler+0x18>
 8002ac4:	4798      	blx	r3
 8002ac6:	4a18      	ldr	r2, [pc, #96]	@ (8002b28 <TIM8_BRK_TIM12_IRQHandler+0x70>)
 8002ac8:	6913      	ldr	r3, [r2, #16]
 8002aca:	f023 0380 	bic.w	r3, r3, #128	@ 0x80
 8002ace:	6113      	str	r3, [r2, #16]
 8002ad0:	4c16      	ldr	r4, [pc, #88]	@ (8002b2c <TIM8_BRK_TIM12_IRQHandler+0x74>)
 8002ad2:	6823      	ldr	r3, [r4, #0]
 8002ad4:	f8d3 3090 	ldr.w	r3, [r3, #144]	@ 0x90
 8002ad8:	b12b      	cbz	r3, 8002ae6 <TIM8_BRK_TIM12_IRQHandler+0x2e>
 8002ada:	4798      	blx	r3
 8002adc:	4a14      	ldr	r2, [pc, #80]	@ (8002b30 <TIM8_BRK_TIM12_IRQHandler+0x78>)
 8002ade:	6913      	ldr	r3, [r2, #16]
 8002ae0:	f023 0302 	bic.w	r3, r3, #2
 8002ae4:	6113      	str	r3, [r2, #16]
 8002ae6:	6823      	ldr	r3, [r4, #0]
 8002ae8:	f8d3 3094 	ldr.w	r3, [r3, #148]	@ 0x94
 8002aec:	b12b      	cbz	r3, 8002afa <TIM8_BRK_TIM12_IRQHandler+0x42>
 8002aee:	4798      	blx	r3
 8002af0:	4a0f      	ldr	r2, [pc, #60]	@ (8002b30 <TIM8_BRK_TIM12_IRQHandler+0x78>)
 8002af2:	6913      	ldr	r3, [r2, #16]
 8002af4:	f023 0304 	bic.w	r3, r3, #4
 8002af8:	6113      	str	r3, [r2, #16]
 8002afa:	6823      	ldr	r3, [r4, #0]
 8002afc:	f8d3 308c 	ldr.w	r3, [r3, #140]	@ 0x8c
 8002b00:	b12b      	cbz	r3, 8002b0e <TIM8_BRK_TIM12_IRQHandler+0x56>
 8002b02:	4798      	blx	r3
 8002b04:	4a0a      	ldr	r2, [pc, #40]	@ (8002b30 <TIM8_BRK_TIM12_IRQHandler+0x78>)
 8002b06:	6913      	ldr	r3, [r2, #16]
 8002b08:	f023 0301 	bic.w	r3, r3, #1
 8002b0c:	6113      	str	r3, [r2, #16]
 8002b0e:	6823      	ldr	r3, [r4, #0]
 8002b10:	f8d3 30a4 	ldr.w	r3, [r3, #164]	@ 0xa4
 8002b14:	b12b      	cbz	r3, 8002b22 <TIM8_BRK_TIM12_IRQHandler+0x6a>
 8002b16:	4798      	blx	r3
 8002b18:	4a05      	ldr	r2, [pc, #20]	@ (8002b30 <TIM8_BRK_TIM12_IRQHandler+0x78>)
 8002b1a:	6913      	ldr	r3, [r2, #16]
 8002b1c:	f023 0340 	bic.w	r3, r3, #64	@ 0x40
 8002b20:	6113      	str	r3, [r2, #16]
 8002b22:	bd10      	pop	{r4, pc}
 8002b24:	200002dc 	.word	0x200002dc
 8002b28:	40010000 	.word	0x40010000
 8002b2c:	200002cc 	.word	0x200002cc
 8002b30:	40014000 	.word	0x40014000

08002b34 <TIM8_UP_TIM13_IRQHandler>:
 8002b34:	4b10      	ldr	r3, [pc, #64]	@ (8002b78 <TIM8_UP_TIM13_IRQHandler+0x44>)
 8002b36:	681b      	ldr	r3, [r3, #0]
 8002b38:	f8d3 308c 	ldr.w	r3, [r3, #140]	@ 0x8c
 8002b3c:	b510      	push	{r4, lr}
 8002b3e:	b12b      	cbz	r3, 8002b4c <TIM8_UP_TIM13_IRQHandler+0x18>
 8002b40:	4798      	blx	r3
 8002b42:	4a0e      	ldr	r2, [pc, #56]	@ (8002b7c <TIM8_UP_TIM13_IRQHandler+0x48>)
 8002b44:	6913      	ldr	r3, [r2, #16]
 8002b46:	f023 0301 	bic.w	r3, r3, #1
 8002b4a:	6113      	str	r3, [r2, #16]
 8002b4c:	4c0c      	ldr	r4, [pc, #48]	@ (8002b80 <TIM8_UP_TIM13_IRQHandler+0x4c>)
 8002b4e:	6823      	ldr	r3, [r4, #0]
 8002b50:	f8d3 308c 	ldr.w	r3, [r3, #140]	@ 0x8c
 8002b54:	b12b      	cbz	r3, 8002b62 <TIM8_UP_TIM13_IRQHandler+0x2e>
 8002b56:	4798      	blx	r3
 8002b58:	4a0a      	ldr	r2, [pc, #40]	@ (8002b84 <TIM8_UP_TIM13_IRQHandler+0x50>)
 8002b5a:	6913      	ldr	r3, [r2, #16]
 8002b5c:	f023 0301 	bic.w	r3, r3, #1
 8002b60:	6113      	str	r3, [r2, #16]
 8002b62:	6823      	ldr	r3, [r4, #0]
 8002b64:	f8d3 3090 	ldr.w	r3, [r3, #144]	@ 0x90
 8002b68:	b12b      	cbz	r3, 8002b76 <TIM8_UP_TIM13_IRQHandler+0x42>
 8002b6a:	4798      	blx	r3
 8002b6c:	4a05      	ldr	r2, [pc, #20]	@ (8002b84 <TIM8_UP_TIM13_IRQHandler+0x50>)
 8002b6e:	6913      	ldr	r3, [r2, #16]
 8002b70:	f023 0302 	bic.w	r3, r3, #2
 8002b74:	6113      	str	r3, [r2, #16]
 8002b76:	bd10      	pop	{r4, pc}
 8002b78:	200002f8 	.word	0x200002f8
 8002b7c:	40010000 	.word	0x40010000
 8002b80:	200002c8 	.word	0x200002c8
 8002b84:	40001c00 	.word	0x40001c00

08002b88 <TIM8_TRG_COM_TIM14_IRQHandler>:
 8002b88:	b510      	push	{r4, lr}
 8002b8a:	4c15      	ldr	r4, [pc, #84]	@ (8002be0 <TIM8_TRG_COM_TIM14_IRQHandler+0x58>)
 8002b8c:	6823      	ldr	r3, [r4, #0]
 8002b8e:	f8d3 30a4 	ldr.w	r3, [r3, #164]	@ 0xa4
 8002b92:	b12b      	cbz	r3, 8002ba0 <TIM8_TRG_COM_TIM14_IRQHandler+0x18>
 8002b94:	4798      	blx	r3
 8002b96:	4a13      	ldr	r2, [pc, #76]	@ (8002be4 <TIM8_TRG_COM_TIM14_IRQHandler+0x5c>)
 8002b98:	6913      	ldr	r3, [r2, #16]
 8002b9a:	f023 0340 	bic.w	r3, r3, #64	@ 0x40
 8002b9e:	6113      	str	r3, [r2, #16]
 8002ba0:	6823      	ldr	r3, [r4, #0]
 8002ba2:	f8d3 30a0 	ldr.w	r3, [r3, #160]	@ 0xa0
 8002ba6:	b12b      	cbz	r3, 8002bb4 <TIM8_TRG_COM_TIM14_IRQHandler+0x2c>
 8002ba8:	4798      	blx	r3
 8002baa:	4a0e      	ldr	r2, [pc, #56]	@ (8002be4 <TIM8_TRG_COM_TIM14_IRQHandler+0x5c>)
 8002bac:	6913      	ldr	r3, [r2, #16]
 8002bae:	f023 0320 	bic.w	r3, r3, #32
 8002bb2:	6113      	str	r3, [r2, #16]
 8002bb4:	4c0c      	ldr	r4, [pc, #48]	@ (8002be8 <TIM8_TRG_COM_TIM14_IRQHandler+0x60>)
 8002bb6:	6823      	ldr	r3, [r4, #0]
 8002bb8:	f8d3 308c 	ldr.w	r3, [r3, #140]	@ 0x8c
 8002bbc:	b12b      	cbz	r3, 8002bca <TIM8_TRG_COM_TIM14_IRQHandler+0x42>
 8002bbe:	4798      	blx	r3
 8002bc0:	4a0a      	ldr	r2, [pc, #40]	@ (8002bec <TIM8_TRG_COM_TIM14_IRQHandler+0x64>)
 8002bc2:	6913      	ldr	r3, [r2, #16]
 8002bc4:	f023 0301 	bic.w	r3, r3, #1
 8002bc8:	6113      	str	r3, [r2, #16]
 8002bca:	6823      	ldr	r3, [r4, #0]
 8002bcc:	f8d3 3090 	ldr.w	r3, [r3, #144]	@ 0x90
 8002bd0:	b12b      	cbz	r3, 8002bde <TIM8_TRG_COM_TIM14_IRQHandler+0x56>
 8002bd2:	4798      	blx	r3
 8002bd4:	4a05      	ldr	r2, [pc, #20]	@ (8002bec <TIM8_TRG_COM_TIM14_IRQHandler+0x64>)
 8002bd6:	6913      	ldr	r3, [r2, #16]
 8002bd8:	f023 0302 	bic.w	r3, r3, #2
 8002bdc:	6113      	str	r3, [r2, #16]
 8002bde:	bd10      	pop	{r4, pc}
 8002be0:	200002dc 	.word	0x200002dc
 8002be4:	40010400 	.word	0x40010400
 8002be8:	200002c4 	.word	0x200002c4
 8002bec:	40002000 	.word	0x40002000

08002bf0 <TIM8_CC_IRQHandler>:
 8002bf0:	b510      	push	{r4, lr}
 8002bf2:	4c15      	ldr	r4, [pc, #84]	@ (8002c48 <TIM8_CC_IRQHandler+0x58>)
 8002bf4:	6823      	ldr	r3, [r4, #0]
 8002bf6:	f8d3 3090 	ldr.w	r3, [r3, #144]	@ 0x90
 8002bfa:	b12b      	cbz	r3, 8002c08 <TIM8_CC_IRQHandler+0x18>
 8002bfc:	4798      	blx	r3
 8002bfe:	4a13      	ldr	r2, [pc, #76]	@ (8002c4c <TIM8_CC_IRQHandler+0x5c>)
 8002c00:	6913      	ldr	r3, [r2, #16]
 8002c02:	f023 0302 	bic.w	r3, r3, #2
 8002c06:	6113      	str	r3, [r2, #16]
 8002c08:	6823      	ldr	r3, [r4, #0]
 8002c0a:	f8d3 3094 	ldr.w	r3, [r3, #148]	@ 0x94
 8002c0e:	b12b      	cbz	r3, 8002c1c <TIM8_CC_IRQHandler+0x2c>
 8002c10:	4798      	blx	r3
 8002c12:	4a0e      	ldr	r2, [pc, #56]	@ (8002c4c <TIM8_CC_IRQHandler+0x5c>)
 8002c14:	6913      	ldr	r3, [r2, #16]
 8002c16:	f023 0304 	bic.w	r3, r3, #4
 8002c1a:	6113      	str	r3, [r2, #16]
 8002c1c:	6823      	ldr	r3, [r4, #0]
 8002c1e:	f8d3 3098 	ldr.w	r3, [r3, #152]	@ 0x98
 8002c22:	b12b      	cbz	r3, 8002c30 <TIM8_CC_IRQHandler+0x40>
 8002c24:	4798      	blx	r3
 8002c26:	4a09      	ldr	r2, [pc, #36]	@ (8002c4c <TIM8_CC_IRQHandler+0x5c>)
 8002c28:	6913      	ldr	r3, [r2, #16]
 8002c2a:	f023 0308 	bic.w	r3, r3, #8
 8002c2e:	6113      	str	r3, [r2, #16]
 8002c30:	6823      	ldr	r3, [r4, #0]
 8002c32:	f8d3 309c 	ldr.w	r3, [r3, #156]	@ 0x9c
 8002c36:	b12b      	cbz	r3, 8002c44 <TIM8_CC_IRQHandler+0x54>
 8002c38:	4798      	blx	r3
 8002c3a:	4a04      	ldr	r2, [pc, #16]	@ (8002c4c <TIM8_CC_IRQHandler+0x5c>)
 8002c3c:	6913      	ldr	r3, [r2, #16]
 8002c3e:	f023 0310 	bic.w	r3, r3, #16
 8002c42:	6113      	str	r3, [r2, #16]
 8002c44:	bd10      	pop	{r4, pc}
 8002c46:	bf00      	nop
 8002c48:	200002dc 	.word	0x200002dc
 8002c4c:	40010400 	.word	0x40010400

08002c50 <UART4_IRQHandler>:
 8002c50:	b538      	push	{r3, r4, r5, lr}
 8002c52:	4d33      	ldr	r5, [pc, #204]	@ (8002d20 <UART4_IRQHandler+0xd0>)
 8002c54:	4c33      	ldr	r4, [pc, #204]	@ (8002d24 <UART4_IRQHandler+0xd4>)
 8002c56:	682b      	ldr	r3, [r5, #0]
 8002c58:	b29b      	uxth	r3, r3
 8002c5a:	8023      	strh	r3, [r4, #0]
 8002c5c:	8823      	ldrh	r3, [r4, #0]
 8002c5e:	059a      	lsls	r2, r3, #22
 8002c60:	d509      	bpl.n	8002c76 <UART4_IRQHandler+0x26>
 8002c62:	4b31      	ldr	r3, [pc, #196]	@ (8002d28 <UART4_IRQHandler+0xd8>)
 8002c64:	681b      	ldr	r3, [r3, #0]
 8002c66:	f8d3 30d8 	ldr.w	r3, [r3, #216]	@ 0xd8
 8002c6a:	b123      	cbz	r3, 8002c76 <UART4_IRQHandler+0x26>
 8002c6c:	4798      	blx	r3
 8002c6e:	682b      	ldr	r3, [r5, #0]
 8002c70:	f423 7300 	bic.w	r3, r3, #512	@ 0x200
 8002c74:	602b      	str	r3, [r5, #0]
 8002c76:	8823      	ldrh	r3, [r4, #0]
 8002c78:	05db      	lsls	r3, r3, #23
 8002c7a:	d50a      	bpl.n	8002c92 <UART4_IRQHandler+0x42>
 8002c7c:	4b2a      	ldr	r3, [pc, #168]	@ (8002d28 <UART4_IRQHandler+0xd8>)
 8002c7e:	681b      	ldr	r3, [r3, #0]
 8002c80:	f8d3 30e0 	ldr.w	r3, [r3, #224]	@ 0xe0
 8002c84:	b12b      	cbz	r3, 8002c92 <UART4_IRQHandler+0x42>
 8002c86:	4798      	blx	r3
 8002c88:	4a25      	ldr	r2, [pc, #148]	@ (8002d20 <UART4_IRQHandler+0xd0>)
 8002c8a:	6813      	ldr	r3, [r2, #0]
 8002c8c:	f423 7380 	bic.w	r3, r3, #256	@ 0x100
 8002c90:	6013      	str	r3, [r2, #0]
 8002c92:	8823      	ldrh	r3, [r4, #0]
 8002c94:	061d      	lsls	r5, r3, #24
 8002c96:	d50a      	bpl.n	8002cae <UART4_IRQHandler+0x5e>
 8002c98:	4b23      	ldr	r3, [pc, #140]	@ (8002d28 <UART4_IRQHandler+0xd8>)
 8002c9a:	681b      	ldr	r3, [r3, #0]
 8002c9c:	f8d3 30c8 	ldr.w	r3, [r3, #200]	@ 0xc8
 8002ca0:	b12b      	cbz	r3, 8002cae <UART4_IRQHandler+0x5e>
 8002ca2:	4798      	blx	r3
 8002ca4:	4a1e      	ldr	r2, [pc, #120]	@ (8002d20 <UART4_IRQHandler+0xd0>)
 8002ca6:	6813      	ldr	r3, [r2, #0]
 8002ca8:	f023 0380 	bic.w	r3, r3, #128	@ 0x80
 8002cac:	6013      	str	r3, [r2, #0]
 8002cae:	8823      	ldrh	r3, [r4, #0]
 8002cb0:	0658      	lsls	r0, r3, #25
 8002cb2:	d50a      	bpl.n	8002cca <UART4_IRQHandler+0x7a>
 8002cb4:	4b1c      	ldr	r3, [pc, #112]	@ (8002d28 <UART4_IRQHandler+0xd8>)
 8002cb6:	681b      	ldr	r3, [r3, #0]
 8002cb8:	f8d3 30cc 	ldr.w	r3, [r3, #204]	@ 0xcc
 8002cbc:	b12b      	cbz	r3, 8002cca <UART4_IRQHandler+0x7a>
 8002cbe:	4798      	blx	r3
 8002cc0:	4a17      	ldr	r2, [pc, #92]	@ (8002d20 <UART4_IRQHandler+0xd0>)
 8002cc2:	6813      	ldr	r3, [r2, #0]
 8002cc4:	f023 0340 	bic.w	r3, r3, #64	@ 0x40
 8002cc8:	6013      	str	r3, [r2, #0]
 8002cca:	8823      	ldrh	r3, [r4, #0]
 8002ccc:	0699      	lsls	r1, r3, #26
 8002cce:	d50a      	bpl.n	8002ce6 <UART4_IRQHandler+0x96>
 8002cd0:	4b15      	ldr	r3, [pc, #84]	@ (8002d28 <UART4_IRQHandler+0xd8>)
 8002cd2:	681b      	ldr	r3, [r3, #0]
 8002cd4:	f8d3 30d0 	ldr.w	r3, [r3, #208]	@ 0xd0
 8002cd8:	b12b      	cbz	r3, 8002ce6 <UART4_IRQHandler+0x96>
 8002cda:	4798      	blx	r3
 8002cdc:	4a10      	ldr	r2, [pc, #64]	@ (8002d20 <UART4_IRQHandler+0xd0>)
 8002cde:	6813      	ldr	r3, [r2, #0]
 8002ce0:	f023 0320 	bic.w	r3, r3, #32
 8002ce4:	6013      	str	r3, [r2, #0]
 8002ce6:	8823      	ldrh	r3, [r4, #0]
 8002ce8:	06da      	lsls	r2, r3, #27
 8002cea:	d50a      	bpl.n	8002d02 <UART4_IRQHandler+0xb2>
 8002cec:	4b0e      	ldr	r3, [pc, #56]	@ (8002d28 <UART4_IRQHandler+0xd8>)
 8002cee:	681b      	ldr	r3, [r3, #0]
 8002cf0:	f8d3 30d4 	ldr.w	r3, [r3, #212]	@ 0xd4
 8002cf4:	b12b      	cbz	r3, 8002d02 <UART4_IRQHandler+0xb2>
 8002cf6:	4798      	blx	r3
 8002cf8:	4a09      	ldr	r2, [pc, #36]	@ (8002d20 <UART4_IRQHandler+0xd0>)
 8002cfa:	6813      	ldr	r3, [r2, #0]
 8002cfc:	f023 0310 	bic.w	r3, r3, #16
 8002d00:	6013      	str	r3, [r2, #0]
 8002d02:	8823      	ldrh	r3, [r4, #0]
 8002d04:	07db      	lsls	r3, r3, #31
 8002d06:	d50a      	bpl.n	8002d1e <UART4_IRQHandler+0xce>
 8002d08:	4b07      	ldr	r3, [pc, #28]	@ (8002d28 <UART4_IRQHandler+0xd8>)
 8002d0a:	681b      	ldr	r3, [r3, #0]
 8002d0c:	f8d3 30c4 	ldr.w	r3, [r3, #196]	@ 0xc4
 8002d10:	b12b      	cbz	r3, 8002d1e <UART4_IRQHandler+0xce>
 8002d12:	4798      	blx	r3
 8002d14:	4a02      	ldr	r2, [pc, #8]	@ (8002d20 <UART4_IRQHandler+0xd0>)
 8002d16:	6813      	ldr	r3, [r2, #0]
 8002d18:	f023 0301 	bic.w	r3, r3, #1
 8002d1c:	6013      	str	r3, [r2, #0]
 8002d1e:	bd38      	pop	{r3, r4, r5, pc}
 8002d20:	40004c00 	.word	0x40004c00
 8002d24:	200002fc 	.word	0x200002fc
 8002d28:	20000300 	.word	0x20000300

08002d2c <USART1_IRQHandler>:
 8002d2c:	b538      	push	{r3, r4, r5, lr}
 8002d2e:	4c30      	ldr	r4, [pc, #192]	@ (8002df0 <USART1_IRQHandler+0xc4>)
 8002d30:	4d30      	ldr	r5, [pc, #192]	@ (8002df4 <USART1_IRQHandler+0xc8>)
 8002d32:	6823      	ldr	r3, [r4, #0]
 8002d34:	b29b      	uxth	r3, r3
 8002d36:	802b      	strh	r3, [r5, #0]
 8002d38:	882b      	ldrh	r3, [r5, #0]
 8002d3a:	0599      	lsls	r1, r3, #22
 8002d3c:	d509      	bpl.n	8002d52 <USART1_IRQHandler+0x26>
 8002d3e:	4b2e      	ldr	r3, [pc, #184]	@ (8002df8 <USART1_IRQHandler+0xcc>)
 8002d40:	681b      	ldr	r3, [r3, #0]
 8002d42:	f8d3 30d8 	ldr.w	r3, [r3, #216]	@ 0xd8
 8002d46:	b123      	cbz	r3, 8002d52 <USART1_IRQHandler+0x26>
 8002d48:	4798      	blx	r3
 8002d4a:	6823      	ldr	r3, [r4, #0]
 8002d4c:	f423 7300 	bic.w	r3, r3, #512	@ 0x200
 8002d50:	6023      	str	r3, [r4, #0]
 8002d52:	882b      	ldrh	r3, [r5, #0]
 8002d54:	05da      	lsls	r2, r3, #23
 8002d56:	d509      	bpl.n	8002d6c <USART1_IRQHandler+0x40>
 8002d58:	4b27      	ldr	r3, [pc, #156]	@ (8002df8 <USART1_IRQHandler+0xcc>)
 8002d5a:	681b      	ldr	r3, [r3, #0]
 8002d5c:	f8d3 30e0 	ldr.w	r3, [r3, #224]	@ 0xe0
 8002d60:	b123      	cbz	r3, 8002d6c <USART1_IRQHandler+0x40>
 8002d62:	4798      	blx	r3
 8002d64:	6823      	ldr	r3, [r4, #0]
 8002d66:	f423 7380 	bic.w	r3, r3, #256	@ 0x100
 8002d6a:	6023      	str	r3, [r4, #0]
 8002d6c:	882b      	ldrh	r3, [r5, #0]
 8002d6e:	061b      	lsls	r3, r3, #24
 8002d70:	d509      	bpl.n	8002d86 <USART1_IRQHandler+0x5a>
 8002d72:	4b21      	ldr	r3, [pc, #132]	@ (8002df8 <USART1_IRQHandler+0xcc>)
 8002d74:	681b      	ldr	r3, [r3, #0]
 8002d76:	f8d3 30c8 	ldr.w	r3, [r3, #200]	@ 0xc8
 8002d7a:	b123      	cbz	r3, 8002d86 <USART1_IRQHandler+0x5a>
 8002d7c:	4798      	blx	r3
 8002d7e:	6823      	ldr	r3, [r4, #0]
 8002d80:	f023 0380 	bic.w	r3, r3, #128	@ 0x80
 8002d84:	6023      	str	r3, [r4, #0]
 8002d86:	882b      	ldrh	r3, [r5, #0]
 8002d88:	0658      	lsls	r0, r3, #25
 8002d8a:	d509      	bpl.n	8002da0 <USART1_IRQHandler+0x74>
 8002d8c:	4b1a      	ldr	r3, [pc, #104]	@ (8002df8 <USART1_IRQHandler+0xcc>)
 8002d8e:	681b      	ldr	r3, [r3, #0]
 8002d90:	f8d3 30cc 	ldr.w	r3, [r3, #204]	@ 0xcc
 8002d94:	b123      	cbz	r3, 8002da0 <USART1_IRQHandler+0x74>
 8002d96:	4798      	blx	r3
 8002d98:	6823      	ldr	r3, [r4, #0]
 8002d9a:	f023 0340 	bic.w	r3, r3, #64	@ 0x40
 8002d9e:	6023      	str	r3, [r4, #0]
 8002da0:	882b      	ldrh	r3, [r5, #0]
 8002da2:	0699      	lsls	r1, r3, #26
 8002da4:	d509      	bpl.n	8002dba <USART1_IRQHandler+0x8e>
 8002da6:	4b14      	ldr	r3, [pc, #80]	@ (8002df8 <USART1_IRQHandler+0xcc>)
 8002da8:	681b      	ldr	r3, [r3, #0]
 8002daa:	f8d3 30d0 	ldr.w	r3, [r3, #208]	@ 0xd0
 8002dae:	b123      	cbz	r3, 8002dba <USART1_IRQHandler+0x8e>
 8002db0:	4798      	blx	r3
 8002db2:	6823      	ldr	r3, [r4, #0]
 8002db4:	f023 0320 	bic.w	r3, r3, #32
 8002db8:	6023      	str	r3, [r4, #0]
 8002dba:	882b      	ldrh	r3, [r5, #0]
 8002dbc:	06da      	lsls	r2, r3, #27
 8002dbe:	d509      	bpl.n	8002dd4 <USART1_IRQHandler+0xa8>
 8002dc0:	4b0d      	ldr	r3, [pc, #52]	@ (8002df8 <USART1_IRQHandler+0xcc>)
 8002dc2:	681b      	ldr	r3, [r3, #0]
 8002dc4:	f8d3 30d4 	ldr.w	r3, [r3, #212]	@ 0xd4
 8002dc8:	b123      	cbz	r3, 8002dd4 <USART1_IRQHandler+0xa8>
 8002dca:	4798      	blx	r3
 8002dcc:	6823      	ldr	r3, [r4, #0]
 8002dce:	f023 0310 	bic.w	r3, r3, #16
 8002dd2:	6023      	str	r3, [r4, #0]
 8002dd4:	882b      	ldrh	r3, [r5, #0]
 8002dd6:	07db      	lsls	r3, r3, #31
 8002dd8:	d509      	bpl.n	8002dee <USART1_IRQHandler+0xc2>
 8002dda:	4b07      	ldr	r3, [pc, #28]	@ (8002df8 <USART1_IRQHandler+0xcc>)
 8002ddc:	681b      	ldr	r3, [r3, #0]
 8002dde:	f8d3 30c4 	ldr.w	r3, [r3, #196]	@ 0xc4
 8002de2:	b123      	cbz	r3, 8002dee <USART1_IRQHandler+0xc2>
 8002de4:	4798      	blx	r3
 8002de6:	6823      	ldr	r3, [r4, #0]
 8002de8:	f023 0301 	bic.w	r3, r3, #1
 8002dec:	6023      	str	r3, [r4, #0]
 8002dee:	bd38      	pop	{r3, r4, r5, pc}
 8002df0:	40011000 	.word	0x40011000
 8002df4:	200002fc 	.word	0x200002fc
 8002df8:	20000304 	.word	0x20000304

08002dfc <Display_Init>:
 8002dfc:	b538      	push	{r3, r4, r5, lr}
 8002dfe:	4b14      	ldr	r3, [pc, #80]	@ (8002e50 <Display_Init+0x54>)
 8002e00:	4a14      	ldr	r2, [pc, #80]	@ (8002e54 <Display_Init+0x58>)
 8002e02:	601a      	str	r2, [r3, #0]
 8002e04:	f241 120f 	movw	r2, #4367	@ 0x110f
 8002e08:	809a      	strh	r2, [r3, #4]
 8002e0a:	2210      	movs	r2, #16
 8002e0c:	719a      	strb	r2, [r3, #6]
 8002e0e:	220b      	movs	r2, #11
 8002e10:	609a      	str	r2, [r3, #8]
 8002e12:	f502 12b8 	add.w	r2, r2, #1507328	@ 0x170000
 8002e16:	4910      	ldr	r1, [pc, #64]	@ (8002e58 <Display_Init+0x5c>)
 8002e18:	60da      	str	r2, [r3, #12]
 8002e1a:	4a10      	ldr	r2, [pc, #64]	@ (8002e5c <Display_Init+0x60>)
 8002e1c:	4c10      	ldr	r4, [pc, #64]	@ (8002e60 <Display_Init+0x64>)
 8002e1e:	e9c3 1204 	strd	r1, r2, [r3, #16]
 8002e22:	4a10      	ldr	r2, [pc, #64]	@ (8002e64 <Display_Init+0x68>)
 8002e24:	619a      	str	r2, [r3, #24]
 8002e26:	2201      	movs	r2, #1
 8002e28:	6023      	str	r3, [r4, #0]
 8002e2a:	2500      	movs	r5, #0
 8002e2c:	4b0e      	ldr	r3, [pc, #56]	@ (8002e68 <Display_Init+0x6c>)
 8002e2e:	8122      	strh	r2, [r4, #8]
 8002e30:	4620      	mov	r0, r4
 8002e32:	2202      	movs	r2, #2
 8002e34:	8325      	strh	r5, [r4, #24]
 8002e36:	6163      	str	r3, [r4, #20]
 8002e38:	6063      	str	r3, [r4, #4]
 8002e3a:	8222      	strh	r2, [r4, #16]
 8002e3c:	60e3      	str	r3, [r4, #12]
 8002e3e:	f7fd fa57 	bl	80002f0 <GC9A01_Init>
 8002e42:	4629      	mov	r1, r5
 8002e44:	4620      	mov	r0, r4
 8002e46:	e8bd 4038 	ldmia.w	sp!, {r3, r4, r5, lr}
 8002e4a:	f7fd bde0 	b.w	8000a0e <GC9A01_Fill>
 8002e4e:	bf00      	nop
 8002e50:	20000328 	.word	0x20000328
 8002e54:	40013000 	.word	0x40013000
 8002e58:	00320028 	.word	0x00320028
 8002e5c:	00160020 	.word	0x00160020
 8002e60:	20000308 	.word	0x20000308
 8002e64:	000a0046 	.word	0x000a0046
 8002e68:	40020000 	.word	0x40020000

08002e6c <main>:
 8002e6c:	e92d 43f0 	stmdb	sp!, {r4, r5, r6, r7, r8, r9, lr}
 8002e70:	b085      	sub	sp, #20
 8002e72:	f000 f8cf 	bl	8003014 <SystemInit>
 8002e76:	4b60      	ldr	r3, [pc, #384]	@ (8002ff8 <main+0x18c>)
 8002e78:	2200      	movs	r2, #0
 8002e7a:	605a      	str	r2, [r3, #4]
 8002e7c:	681a      	ldr	r2, [r3, #0]
 8002e7e:	f442 3280 	orr.w	r2, r2, #65536	@ 0x10000
 8002e82:	601a      	str	r2, [r3, #0]
 8002e84:	681a      	ldr	r2, [r3, #0]
 8002e86:	0397      	lsls	r7, r2, #14
 8002e88:	d5fc      	bpl.n	8002e84 <main+0x18>
 8002e8a:	6c1a      	ldr	r2, [r3, #64]	@ 0x40
 8002e8c:	495b      	ldr	r1, [pc, #364]	@ (8002ffc <main+0x190>)
 8002e8e:	f042 5280 	orr.w	r2, r2, #268435456	@ 0x10000000
 8002e92:	641a      	str	r2, [r3, #64]	@ 0x40
 8002e94:	680a      	ldr	r2, [r1, #0]
 8002e96:	f442 4280 	orr.w	r2, r2, #16384	@ 0x4000
 8002e9a:	600a      	str	r2, [r1, #0]
 8002e9c:	f501 31e6 	add.w	r1, r1, #117760	@ 0x1cc00
 8002ea0:	680a      	ldr	r2, [r1, #0]
 8002ea2:	f442 62e0 	orr.w	r2, r2, #1792	@ 0x700
 8002ea6:	f042 0205 	orr.w	r2, r2, #5
 8002eaa:	600a      	str	r2, [r1, #0]
 8002eac:	6859      	ldr	r1, [r3, #4]
 8002eae:	4a54      	ldr	r2, [pc, #336]	@ (8003000 <main+0x194>)
 8002eb0:	430a      	orrs	r2, r1
 8002eb2:	605a      	str	r2, [r3, #4]
 8002eb4:	685a      	ldr	r2, [r3, #4]
 8002eb6:	f442 0280 	orr.w	r2, r2, #4194304	@ 0x400000
 8002eba:	605a      	str	r2, [r3, #4]
 8002ebc:	689a      	ldr	r2, [r3, #8]
 8002ebe:	609a      	str	r2, [r3, #8]
 8002ec0:	689a      	ldr	r2, [r3, #8]
 8002ec2:	f442 52a0 	orr.w	r2, r2, #5120	@ 0x1400
 8002ec6:	609a      	str	r2, [r3, #8]
 8002ec8:	689a      	ldr	r2, [r3, #8]
 8002eca:	f442 4200 	orr.w	r2, r2, #32768	@ 0x8000
 8002ece:	609a      	str	r2, [r3, #8]
 8002ed0:	681a      	ldr	r2, [r3, #0]
 8002ed2:	f042 7280 	orr.w	r2, r2, #16777216	@ 0x1000000
 8002ed6:	601a      	str	r2, [r3, #0]
 8002ed8:	4b47      	ldr	r3, [pc, #284]	@ (8002ff8 <main+0x18c>)
 8002eda:	681a      	ldr	r2, [r3, #0]
 8002edc:	0196      	lsls	r6, r2, #6
 8002ede:	d5fc      	bpl.n	8002eda <main+0x6e>
 8002ee0:	689a      	ldr	r2, [r3, #8]
 8002ee2:	f042 0202 	orr.w	r2, r2, #2
 8002ee6:	609a      	str	r2, [r3, #8]
 8002ee8:	689a      	ldr	r2, [r3, #8]
 8002eea:	0715      	lsls	r5, r2, #28
 8002eec:	d5fc      	bpl.n	8002ee8 <main+0x7c>
 8002eee:	f000 f89b 	bl	8003028 <SystemCoreClockUpdate>
 8002ef2:	4b44      	ldr	r3, [pc, #272]	@ (8003004 <main+0x198>)
 8002ef4:	22a8      	movs	r2, #168	@ 0xa8
 8002ef6:	681b      	ldr	r3, [r3, #0]
 8002ef8:	fbb3 f3f2 	udiv	r3, r3, r2
 8002efc:	3b01      	subs	r3, #1
 8002efe:	f1b3 7f80 	cmp.w	r3, #16777216	@ 0x1000000
 8002f02:	d20a      	bcs.n	8002f1a <main+0xae>
 8002f04:	f04f 22e0 	mov.w	r2, #3758153728	@ 0xe000e000
 8002f08:	21f0      	movs	r1, #240	@ 0xf0
 8002f0a:	6153      	str	r3, [r2, #20]
 8002f0c:	4b3e      	ldr	r3, [pc, #248]	@ (8003008 <main+0x19c>)
 8002f0e:	f883 1023 	strb.w	r1, [r3, #35]	@ 0x23
 8002f12:	2300      	movs	r3, #0
 8002f14:	6193      	str	r3, [r2, #24]
 8002f16:	2307      	movs	r3, #7
 8002f18:	6113      	str	r3, [r2, #16]
 8002f1a:	4a37      	ldr	r2, [pc, #220]	@ (8002ff8 <main+0x18c>)
 8002f1c:	483b      	ldr	r0, [pc, #236]	@ (800300c <main+0x1a0>)
 8002f1e:	6c53      	ldr	r3, [r2, #68]	@ 0x44
 8002f20:	f443 4380 	orr.w	r3, r3, #16384	@ 0x4000
 8002f24:	6453      	str	r3, [r2, #68]	@ 0x44
 8002f26:	f04f 23e0 	mov.w	r3, #3758153728	@ 0xe000e000
 8002f2a:	2200      	movs	r2, #0
 8002f2c:	f06f 417f 	mvn.w	r1, #4278190080	@ 0xff000000
 8002f30:	611a      	str	r2, [r3, #16]
 8002f32:	6159      	str	r1, [r3, #20]
 8002f34:	2105      	movs	r1, #5
 8002f36:	619a      	str	r2, [r3, #24]
 8002f38:	f44f 767a 	mov.w	r6, #1000	@ 0x3e8
 8002f3c:	6119      	str	r1, [r3, #16]
 8002f3e:	6158      	str	r0, [r3, #20]
 8002f40:	619a      	str	r2, [r3, #24]
 8002f42:	6919      	ldr	r1, [r3, #16]
 8002f44:	f041 0101 	orr.w	r1, r1, #1
 8002f48:	6119      	str	r1, [r3, #16]
 8002f4a:	6919      	ldr	r1, [r3, #16]
 8002f4c:	03cc      	lsls	r4, r1, #15
 8002f4e:	d5fc      	bpl.n	8002f4a <main+0xde>
 8002f50:	3e01      	subs	r6, #1
 8002f52:	d1f4      	bne.n	8002f3e <main+0xd2>
 8002f54:	2478      	movs	r4, #120	@ 0x78
 8002f56:	250a      	movs	r5, #10
 8002f58:	f247 78c0 	movw	r8, #30656	@ 0x77c0
 8002f5c:	f7ff ff4e 	bl	8002dfc <Display_Init>
 8002f60:	f247 77bc 	movw	r7, #30652	@ 0x77bc
 8002f64:	e9cd 6400 	strd	r6, r4, [sp]
 8002f68:	4829      	ldr	r0, [pc, #164]	@ (8003010 <main+0x1a4>)
 8002f6a:	4623      	mov	r3, r4
 8002f6c:	4622      	mov	r2, r4
 8002f6e:	4621      	mov	r1, r4
 8002f70:	f04f 09f0 	mov.w	r9, #240	@ 0xf0
 8002f74:	e9cd 5802 	strd	r5, r8, [sp, #8]
 8002f78:	f7fd fd5c 	bl	8000a34 <GC9A01_DrawArcStroke>
 8002f7c:	4824      	ldr	r0, [pc, #144]	@ (8003010 <main+0x1a4>)
 8002f7e:	236e      	movs	r3, #110	@ 0x6e
 8002f80:	4622      	mov	r2, r4
 8002f82:	4621      	mov	r1, r4
 8002f84:	e9cd 5702 	strd	r5, r7, [sp, #8]
 8002f88:	e9cd 4900 	strd	r4, r9, [sp]
 8002f8c:	f7fd fd52 	bl	8000a34 <GC9A01_DrawArcStroke>
 8002f90:	f64e 1604 	movw	r6, #59652	@ 0xe904
 8002f94:	f240 1367 	movw	r3, #359	@ 0x167
 8002f98:	e9cd 9300 	strd	r9, r3, [sp]
 8002f9c:	481c      	ldr	r0, [pc, #112]	@ (8003010 <main+0x1a4>)
 8002f9e:	2364      	movs	r3, #100	@ 0x64
 8002fa0:	4622      	mov	r2, r4
 8002fa2:	4621      	mov	r1, r4
 8002fa4:	e9cd 5602 	strd	r5, r6, [sp, #8]
 8002fa8:	f7fd fd44 	bl	8000a34 <GC9A01_DrawArcStroke>
 8002fac:	2328      	movs	r3, #40	@ 0x28
 8002fae:	229f      	movs	r2, #159	@ 0x9f
 8002fb0:	e9cd 3200 	strd	r3, r2, [sp]
 8002fb4:	4816      	ldr	r0, [pc, #88]	@ (8003010 <main+0x1a4>)
 8002fb6:	235a      	movs	r3, #90	@ 0x5a
 8002fb8:	4622      	mov	r2, r4
 8002fba:	4621      	mov	r1, r4
 8002fbc:	e9cd 5802 	strd	r5, r8, [sp, #8]
 8002fc0:	f7fd fd38 	bl	8000a34 <GC9A01_DrawArcStroke>
 8002fc4:	2350      	movs	r3, #80	@ 0x50
 8002fc6:	f44f 718c 	mov.w	r1, #280	@ 0x118
 8002fca:	e9cd 3100 	strd	r3, r1, [sp]
 8002fce:	4810      	ldr	r0, [pc, #64]	@ (8003010 <main+0x1a4>)
 8002fd0:	4622      	mov	r2, r4
 8002fd2:	4621      	mov	r1, r4
 8002fd4:	e9cd 5702 	strd	r5, r7, [sp, #8]
 8002fd8:	f7fd fd2c 	bl	8000a34 <GC9A01_DrawArcStroke>
 8002fdc:	f44f 73aa 	mov.w	r3, #340	@ 0x154
 8002fe0:	e9cd 4300 	strd	r4, r3, [sp]
 8002fe4:	e9cd 5602 	strd	r5, r6, [sp, #8]
 8002fe8:	4809      	ldr	r0, [pc, #36]	@ (8003010 <main+0x1a4>)
 8002fea:	2346      	movs	r3, #70	@ 0x46
 8002fec:	4622      	mov	r2, r4
 8002fee:	4621      	mov	r1, r4
 8002ff0:	f7fd fd20 	bl	8000a34 <GC9A01_DrawArcStroke>
 8002ff4:	e7fe      	b.n	8002ff4 <main+0x188>
 8002ff6:	bf00      	nop
 8002ff8:	40023800 	.word	0x40023800
 8002ffc:	40007000 	.word	0x40007000
 8003000:	07005408 	.word	0x07005408
 8003004:	20000000 	.word	0x20000000
 8003008:	e000ed00 	.word	0xe000ed00
 800300c:	00029040 	.word	0x00029040
 8003010:	20000308 	.word	0x20000308

08003014 <SystemInit>:
 8003014:	4a03      	ldr	r2, [pc, #12]	@ (8003024 <SystemInit+0x10>)
 8003016:	f8d2 3088 	ldr.w	r3, [r2, #136]	@ 0x88
 800301a:	f443 0370 	orr.w	r3, r3, #15728640	@ 0xf00000
 800301e:	f8c2 3088 	str.w	r3, [r2, #136]	@ 0x88
 8003022:	4770      	bx	lr
 8003024:	e000ed00 	.word	0xe000ed00

08003028 <SystemCoreClockUpdate>:
 8003028:	4b15      	ldr	r3, [pc, #84]	@ (8003080 <SystemCoreClockUpdate+0x58>)
 800302a:	689a      	ldr	r2, [r3, #8]
 800302c:	f002 020c 	and.w	r2, r2, #12
 8003030:	2a04      	cmp	r2, #4
 8003032:	d021      	beq.n	8003078 <SystemCoreClockUpdate+0x50>
 8003034:	2a08      	cmp	r2, #8
 8003036:	d121      	bne.n	800307c <SystemCoreClockUpdate+0x54>
 8003038:	6859      	ldr	r1, [r3, #4]
 800303a:	685a      	ldr	r2, [r3, #4]
 800303c:	685b      	ldr	r3, [r3, #4]
 800303e:	0249      	lsls	r1, r1, #9
 8003040:	f3c3 1388 	ubfx	r3, r3, #6, #9
 8003044:	bf4c      	ite	mi
 8003046:	490f      	ldrmi	r1, [pc, #60]	@ (8003084 <SystemCoreClockUpdate+0x5c>)
 8003048:	490f      	ldrpl	r1, [pc, #60]	@ (8003088 <SystemCoreClockUpdate+0x60>)
 800304a:	f002 023f 	and.w	r2, r2, #63	@ 0x3f
 800304e:	fbb1 f2f2 	udiv	r2, r1, r2
 8003052:	4353      	muls	r3, r2
 8003054:	4a0a      	ldr	r2, [pc, #40]	@ (8003080 <SystemCoreClockUpdate+0x58>)
 8003056:	6852      	ldr	r2, [r2, #4]
 8003058:	f3c2 4201 	ubfx	r2, r2, #16, #2
 800305c:	3201      	adds	r2, #1
 800305e:	0052      	lsls	r2, r2, #1
 8003060:	fbb3 f3f2 	udiv	r3, r3, r2
 8003064:	4a06      	ldr	r2, [pc, #24]	@ (8003080 <SystemCoreClockUpdate+0x58>)
 8003066:	4909      	ldr	r1, [pc, #36]	@ (800308c <SystemCoreClockUpdate+0x64>)
 8003068:	6892      	ldr	r2, [r2, #8]
 800306a:	f3c2 1203 	ubfx	r2, r2, #4, #4
 800306e:	5c8a      	ldrb	r2, [r1, r2]
 8003070:	40d3      	lsrs	r3, r2
 8003072:	4a07      	ldr	r2, [pc, #28]	@ (8003090 <SystemCoreClockUpdate+0x68>)
 8003074:	6013      	str	r3, [r2, #0]
 8003076:	4770      	bx	lr
 8003078:	4b02      	ldr	r3, [pc, #8]	@ (8003084 <SystemCoreClockUpdate+0x5c>)
 800307a:	e7f3      	b.n	8003064 <SystemCoreClockUpdate+0x3c>
 800307c:	4b02      	ldr	r3, [pc, #8]	@ (8003088 <SystemCoreClockUpdate+0x60>)
 800307e:	e7f1      	b.n	8003064 <SystemCoreClockUpdate+0x3c>
 8003080:	40023800 	.word	0x40023800
 8003084:	017d7840 	.word	0x017d7840
 8003088:	00f42400 	.word	0x00f42400
 800308c:	08004034 	.word	0x08004034
 8003090:	20000000 	.word	0x20000000

08003094 <Reset_Handler>:
 8003094:	480d      	ldr	r0, [pc, #52]	@ (80030cc <LoopForever+0x2>)
 8003096:	4685      	mov	sp, r0
 8003098:	f7ff ffbc 	bl	8003014 <SystemInit>
 800309c:	480c      	ldr	r0, [pc, #48]	@ (80030d0 <LoopForever+0x6>)
 800309e:	490d      	ldr	r1, [pc, #52]	@ (80030d4 <LoopForever+0xa>)
 80030a0:	4a0d      	ldr	r2, [pc, #52]	@ (80030d8 <LoopForever+0xe>)
 80030a2:	2300      	movs	r3, #0
 80030a4:	e002      	b.n	80030ac <LoopCopyDataInit>

080030a6 <CopyDataInit>:
 80030a6:	58d4      	ldr	r4, [r2, r3]
 80030a8:	50c4      	str	r4, [r0, r3]
 80030aa:	3304      	adds	r3, #4

080030ac <LoopCopyDataInit>:
 80030ac:	18c4      	adds	r4, r0, r3
 80030ae:	428c      	cmp	r4, r1
 80030b0:	d3f9      	bcc.n	80030a6 <CopyDataInit>
 80030b2:	4a0a      	ldr	r2, [pc, #40]	@ (80030dc <LoopForever+0x12>)
 80030b4:	4c0a      	ldr	r4, [pc, #40]	@ (80030e0 <LoopForever+0x16>)
 80030b6:	2300      	movs	r3, #0
 80030b8:	e001      	b.n	80030be <LoopFillZerobss>

080030ba <FillZerobss>:
 80030ba:	6013      	str	r3, [r2, #0]
 80030bc:	3204      	adds	r2, #4

080030be <LoopFillZerobss>:
 80030be:	42a2      	cmp	r2, r4
 80030c0:	d3fb      	bcc.n	80030ba <FillZerobss>
 80030c2:	f000 f811 	bl	80030e8 <__libc_init_array>
 80030c6:	f7ff fed1 	bl	8002e6c <main>

080030ca <LoopForever>:
 80030ca:	e7fe      	b.n	80030ca <LoopForever>
 80030cc:	20020000 	.word	0x20020000
 80030d0:	20000000 	.word	0x20000000
 80030d4:	20000004 	.word	0x20000004
 80030d8:	0800441c 	.word	0x0800441c
 80030dc:	20000004 	.word	0x20000004
 80030e0:	20000344 	.word	0x20000344

080030e4 <ADC_IRQHandler>:
 80030e4:	e7fe      	b.n	80030e4 <ADC_IRQHandler>
	...

080030e8 <__libc_init_array>:
 80030e8:	b570      	push	{r4, r5, r6, lr}
 80030ea:	4d0d      	ldr	r5, [pc, #52]	@ (8003120 <__libc_init_array+0x38>)
 80030ec:	4c0d      	ldr	r4, [pc, #52]	@ (8003124 <__libc_init_array+0x3c>)
 80030ee:	1b64      	subs	r4, r4, r5
 80030f0:	10a4      	asrs	r4, r4, #2
 80030f2:	2600      	movs	r6, #0
 80030f4:	42a6      	cmp	r6, r4
 80030f6:	d109      	bne.n	800310c <__libc_init_array+0x24>
 80030f8:	4d0b      	ldr	r5, [pc, #44]	@ (8003128 <__libc_init_array+0x40>)
 80030fa:	4c0c      	ldr	r4, [pc, #48]	@ (800312c <__libc_init_array+0x44>)
 80030fc:	f000 fd8c 	bl	8003c18 <_init>
 8003100:	1b64      	subs	r4, r4, r5
 8003102:	10a4      	asrs	r4, r4, #2
 8003104:	2600      	movs	r6, #0
 8003106:	42a6      	cmp	r6, r4
 8003108:	d105      	bne.n	8003116 <__libc_init_array+0x2e>
 800310a:	bd70      	pop	{r4, r5, r6, pc}
 800310c:	f855 3b04 	ldr.w	r3, [r5], #4
 8003110:	4798      	blx	r3
 8003112:	3601      	adds	r6, #1
 8003114:	e7ee      	b.n	80030f4 <__libc_init_array+0xc>
 8003116:	f855 3b04 	ldr.w	r3, [r5], #4
 800311a:	4798      	blx	r3
 800311c:	3601      	adds	r6, #1
 800311e:	e7f2      	b.n	8003106 <__libc_init_array+0x1e>
 8003120:	08004414 	.word	0x08004414
 8003124:	08004414 	.word	0x08004414
 8003128:	08004414 	.word	0x08004414
 800312c:	08004418 	.word	0x08004418

08003130 <cosf>:
 8003130:	ee10 3a10 	vmov	r3, s0
 8003134:	b507      	push	{r0, r1, r2, lr}
 8003136:	4a1e      	ldr	r2, [pc, #120]	@ (80031b0 <cosf+0x80>)
 8003138:	f023 4300 	bic.w	r3, r3, #2147483648	@ 0x80000000
 800313c:	4293      	cmp	r3, r2
 800313e:	d806      	bhi.n	800314e <cosf+0x1e>
 8003140:	eddf 0a1c 	vldr	s1, [pc, #112]	@ 80031b4 <cosf+0x84>
 8003144:	b003      	add	sp, #12
 8003146:	f85d eb04 	ldr.w	lr, [sp], #4
 800314a:	f000 b883 	b.w	8003254 <__kernel_cosf>
 800314e:	f1b3 4fff 	cmp.w	r3, #2139095040	@ 0x7f800000
 8003152:	d304      	bcc.n	800315e <cosf+0x2e>
 8003154:	ee30 0a40 	vsub.f32	s0, s0, s0
 8003158:	b003      	add	sp, #12
 800315a:	f85d fb04 	ldr.w	pc, [sp], #4
 800315e:	4668      	mov	r0, sp
 8003160:	f000 f918 	bl	8003394 <__ieee754_rem_pio2f>
 8003164:	f000 0003 	and.w	r0, r0, #3
 8003168:	2801      	cmp	r0, #1
 800316a:	d009      	beq.n	8003180 <cosf+0x50>
 800316c:	2802      	cmp	r0, #2
 800316e:	d010      	beq.n	8003192 <cosf+0x62>
 8003170:	b9b0      	cbnz	r0, 80031a0 <cosf+0x70>
 8003172:	eddd 0a01 	vldr	s1, [sp, #4]
 8003176:	ed9d 0a00 	vldr	s0, [sp]
 800317a:	f000 f86b 	bl	8003254 <__kernel_cosf>
 800317e:	e7eb      	b.n	8003158 <cosf+0x28>
 8003180:	eddd 0a01 	vldr	s1, [sp, #4]
 8003184:	ed9d 0a00 	vldr	s0, [sp]
 8003188:	f000 f8bc 	bl	8003304 <__kernel_sinf>
 800318c:	eeb1 0a40 	vneg.f32	s0, s0
 8003190:	e7e2      	b.n	8003158 <cosf+0x28>
 8003192:	eddd 0a01 	vldr	s1, [sp, #4]
 8003196:	ed9d 0a00 	vldr	s0, [sp]
 800319a:	f000 f85b 	bl	8003254 <__kernel_cosf>
 800319e:	e7f5      	b.n	800318c <cosf+0x5c>
 80031a0:	eddd 0a01 	vldr	s1, [sp, #4]
 80031a4:	ed9d 0a00 	vldr	s0, [sp]
 80031a8:	2001      	movs	r0, #1
 80031aa:	f000 f8ab 	bl	8003304 <__kernel_sinf>
 80031ae:	e7d3      	b.n	8003158 <cosf+0x28>
 80031b0:	3f490fd8 	.word	0x3f490fd8
 80031b4:	00000000 	.word	0x00000000

080031b8 <fabsf>:
 80031b8:	ee10 3a10 	vmov	r3, s0
 80031bc:	f023 4300 	bic.w	r3, r3, #2147483648	@ 0x80000000
 80031c0:	ee00 3a10 	vmov	s0, r3
 80031c4:	4770      	bx	lr
	...

080031c8 <sinf>:
 80031c8:	ee10 3a10 	vmov	r3, s0
 80031cc:	b507      	push	{r0, r1, r2, lr}
 80031ce:	4a1f      	ldr	r2, [pc, #124]	@ (800324c <sinf+0x84>)
 80031d0:	f023 4300 	bic.w	r3, r3, #2147483648	@ 0x80000000
 80031d4:	4293      	cmp	r3, r2
 80031d6:	d807      	bhi.n	80031e8 <sinf+0x20>
 80031d8:	eddf 0a1d 	vldr	s1, [pc, #116]	@ 8003250 <sinf+0x88>
 80031dc:	2000      	movs	r0, #0
 80031de:	b003      	add	sp, #12
 80031e0:	f85d eb04 	ldr.w	lr, [sp], #4
 80031e4:	f000 b88e 	b.w	8003304 <__kernel_sinf>
 80031e8:	f1b3 4fff 	cmp.w	r3, #2139095040	@ 0x7f800000
 80031ec:	d304      	bcc.n	80031f8 <sinf+0x30>
 80031ee:	ee30 0a40 	vsub.f32	s0, s0, s0
 80031f2:	b003      	add	sp, #12
 80031f4:	f85d fb04 	ldr.w	pc, [sp], #4
 80031f8:	4668      	mov	r0, sp
 80031fa:	f000 f8cb 	bl	8003394 <__ieee754_rem_pio2f>
 80031fe:	f000 0003 	and.w	r0, r0, #3
 8003202:	2801      	cmp	r0, #1
 8003204:	d00a      	beq.n	800321c <sinf+0x54>
 8003206:	2802      	cmp	r0, #2
 8003208:	d00f      	beq.n	800322a <sinf+0x62>
 800320a:	b9c0      	cbnz	r0, 800323e <sinf+0x76>
 800320c:	eddd 0a01 	vldr	s1, [sp, #4]
 8003210:	ed9d 0a00 	vldr	s0, [sp]
 8003214:	2001      	movs	r0, #1
 8003216:	f000 f875 	bl	8003304 <__kernel_sinf>
 800321a:	e7ea      	b.n	80031f2 <sinf+0x2a>
 800321c:	eddd 0a01 	vldr	s1, [sp, #4]
 8003220:	ed9d 0a00 	vldr	s0, [sp]
 8003224:	f000 f816 	bl	8003254 <__kernel_cosf>
 8003228:	e7e3      	b.n	80031f2 <sinf+0x2a>
 800322a:	eddd 0a01 	vldr	s1, [sp, #4]
 800322e:	ed9d 0a00 	vldr	s0, [sp]
 8003232:	2001      	movs	r0, #1
 8003234:	f000 f866 	bl	8003304 <__kernel_sinf>
 8003238:	eeb1 0a40 	vneg.f32	s0, s0
 800323c:	e7d9      	b.n	80031f2 <sinf+0x2a>
 800323e:	eddd 0a01 	vldr	s1, [sp, #4]
 8003242:	ed9d 0a00 	vldr	s0, [sp]
 8003246:	f000 f805 	bl	8003254 <__kernel_cosf>
 800324a:	e7f5      	b.n	8003238 <sinf+0x70>
 800324c:	3f490fd8 	.word	0x3f490fd8
 8003250:	00000000 	.word	0x00000000

08003254 <__kernel_cosf>:
 8003254:	ee10 3a10 	vmov	r3, s0
 8003258:	f023 4300 	bic.w	r3, r3, #2147483648	@ 0x80000000
 800325c:	f1b3 5f48 	cmp.w	r3, #838860800	@ 0x32000000
 8003260:	eef0 6a40 	vmov.f32	s13, s0
 8003264:	eeb7 0a00 	vmov.f32	s0, #112	@ 0x3f800000  1.0
 8003268:	d204      	bcs.n	8003274 <__kernel_cosf+0x20>
 800326a:	eefd 7ae6 	vcvt.s32.f32	s15, s13
 800326e:	ee17 2a90 	vmov	r2, s15
 8003272:	b342      	cbz	r2, 80032c6 <__kernel_cosf+0x72>
 8003274:	ee26 7aa6 	vmul.f32	s14, s13, s13
 8003278:	eddf 7a1a 	vldr	s15, [pc, #104]	@ 80032e4 <__kernel_cosf+0x90>
 800327c:	ed9f 6a1a 	vldr	s12, [pc, #104]	@ 80032e8 <__kernel_cosf+0x94>
 8003280:	4a1a      	ldr	r2, [pc, #104]	@ (80032ec <__kernel_cosf+0x98>)
 8003282:	eea7 6a27 	vfma.f32	s12, s14, s15
 8003286:	4293      	cmp	r3, r2
 8003288:	eddf 7a19 	vldr	s15, [pc, #100]	@ 80032f0 <__kernel_cosf+0x9c>
 800328c:	eee6 7a07 	vfma.f32	s15, s12, s14
 8003290:	ed9f 6a18 	vldr	s12, [pc, #96]	@ 80032f4 <__kernel_cosf+0xa0>
 8003294:	eea7 6a87 	vfma.f32	s12, s15, s14
 8003298:	eddf 7a17 	vldr	s15, [pc, #92]	@ 80032f8 <__kernel_cosf+0xa4>
 800329c:	eee6 7a07 	vfma.f32	s15, s12, s14
 80032a0:	ed9f 6a16 	vldr	s12, [pc, #88]	@ 80032fc <__kernel_cosf+0xa8>
 80032a4:	eea7 6a87 	vfma.f32	s12, s15, s14
 80032a8:	ee60 0ae6 	vnmul.f32	s1, s1, s13
 80032ac:	ee26 6a07 	vmul.f32	s12, s12, s14
 80032b0:	eef6 7a00 	vmov.f32	s15, #96	@ 0x3f000000  0.5
 80032b4:	eee7 0a06 	vfma.f32	s1, s14, s12
 80032b8:	ee67 7a27 	vmul.f32	s15, s14, s15
 80032bc:	d804      	bhi.n	80032c8 <__kernel_cosf+0x74>
 80032be:	ee77 7ae0 	vsub.f32	s15, s15, s1
 80032c2:	ee30 0a67 	vsub.f32	s0, s0, s15
 80032c6:	4770      	bx	lr
 80032c8:	4a0d      	ldr	r2, [pc, #52]	@ (8003300 <__kernel_cosf+0xac>)
 80032ca:	4293      	cmp	r3, r2
 80032cc:	bf9a      	itte	ls
 80032ce:	f103 437f 	addls.w	r3, r3, #4278190080	@ 0xff000000
 80032d2:	ee07 3a10 	vmovls	s14, r3
 80032d6:	eeb5 7a02 	vmovhi.f32	s14, #82	@ 0x3e900000  0.2812500
 80032da:	ee30 0a47 	vsub.f32	s0, s0, s14
 80032de:	ee77 7ac7 	vsub.f32	s15, s15, s14
 80032e2:	e7ec      	b.n	80032be <__kernel_cosf+0x6a>
 80032e4:	ad47d74e 	.word	0xad47d74e
 80032e8:	310f74f6 	.word	0x310f74f6
 80032ec:	3e999999 	.word	0x3e999999
 80032f0:	b493f27c 	.word	0xb493f27c
 80032f4:	37d00d01 	.word	0x37d00d01
 80032f8:	bab60b61 	.word	0xbab60b61
 80032fc:	3d2aaaab 	.word	0x3d2aaaab
 8003300:	3f480000 	.word	0x3f480000

08003304 <__kernel_sinf>:
 8003304:	ee10 3a10 	vmov	r3, s0
 8003308:	f023 4300 	bic.w	r3, r3, #2147483648	@ 0x80000000
 800330c:	f1b3 5f48 	cmp.w	r3, #838860800	@ 0x32000000
 8003310:	d204      	bcs.n	800331c <__kernel_sinf+0x18>
 8003312:	eefd 7ac0 	vcvt.s32.f32	s15, s0
 8003316:	ee17 3a90 	vmov	r3, s15
 800331a:	b35b      	cbz	r3, 8003374 <__kernel_sinf+0x70>
 800331c:	ee20 7a00 	vmul.f32	s14, s0, s0
 8003320:	eddf 7a15 	vldr	s15, [pc, #84]	@ 8003378 <__kernel_sinf+0x74>
 8003324:	ed9f 6a15 	vldr	s12, [pc, #84]	@ 800337c <__kernel_sinf+0x78>
 8003328:	eea7 6a27 	vfma.f32	s12, s14, s15
 800332c:	eddf 7a14 	vldr	s15, [pc, #80]	@ 8003380 <__kernel_sinf+0x7c>
 8003330:	eee6 7a07 	vfma.f32	s15, s12, s14
 8003334:	ed9f 6a13 	vldr	s12, [pc, #76]	@ 8003384 <__kernel_sinf+0x80>
 8003338:	eea7 6a87 	vfma.f32	s12, s15, s14
 800333c:	eddf 7a12 	vldr	s15, [pc, #72]	@ 8003388 <__kernel_sinf+0x84>
 8003340:	ee60 6a07 	vmul.f32	s13, s0, s14
 8003344:	eee6 7a07 	vfma.f32	s15, s12, s14
 8003348:	b930      	cbnz	r0, 8003358 <__kernel_sinf+0x54>
 800334a:	ed9f 6a10 	vldr	s12, [pc, #64]	@ 800338c <__kernel_sinf+0x88>
 800334e:	eea7 6a27 	vfma.f32	s12, s14, s15
 8003352:	eea6 0a26 	vfma.f32	s0, s12, s13
 8003356:	4770      	bx	lr
 8003358:	ee67 7ae6 	vnmul.f32	s15, s15, s13
 800335c:	eeb6 6a00 	vmov.f32	s12, #96	@ 0x3f000000  0.5
 8003360:	eee0 7a86 	vfma.f32	s15, s1, s12
 8003364:	eed7 0a87 	vfnms.f32	s1, s15, s14
 8003368:	eddf 7a09 	vldr	s15, [pc, #36]	@ 8003390 <__kernel_sinf+0x8c>
 800336c:	eee6 0aa7 	vfma.f32	s1, s13, s15
 8003370:	ee30 0a60 	vsub.f32	s0, s0, s1
 8003374:	4770      	bx	lr
 8003376:	bf00      	nop
 8003378:	2f2ec9d3 	.word	0x2f2ec9d3
 800337c:	b2d72f34 	.word	0xb2d72f34
 8003380:	3638ef1b 	.word	0x3638ef1b
 8003384:	b9500d01 	.word	0xb9500d01
 8003388:	3c088889 	.word	0x3c088889
 800338c:	be2aaaab 	.word	0xbe2aaaab
 8003390:	3e2aaaab 	.word	0x3e2aaaab

08003394 <__ieee754_rem_pio2f>:
 8003394:	b5f0      	push	{r4, r5, r6, r7, lr}
 8003396:	ee10 6a10 	vmov	r6, s0
 800339a:	4b88      	ldr	r3, [pc, #544]	@ (80035bc <__ieee754_rem_pio2f+0x228>)
 800339c:	f026 4500 	bic.w	r5, r6, #2147483648	@ 0x80000000
 80033a0:	429d      	cmp	r5, r3
 80033a2:	b087      	sub	sp, #28
 80033a4:	4604      	mov	r4, r0
 80033a6:	d805      	bhi.n	80033b4 <__ieee754_rem_pio2f+0x20>
 80033a8:	2300      	movs	r3, #0
 80033aa:	ed80 0a00 	vstr	s0, [r0]
 80033ae:	6043      	str	r3, [r0, #4]
 80033b0:	2000      	movs	r0, #0
 80033b2:	e022      	b.n	80033fa <__ieee754_rem_pio2f+0x66>
 80033b4:	4b82      	ldr	r3, [pc, #520]	@ (80035c0 <__ieee754_rem_pio2f+0x22c>)
 80033b6:	429d      	cmp	r5, r3
 80033b8:	d83a      	bhi.n	8003430 <__ieee754_rem_pio2f+0x9c>
 80033ba:	f026 4300 	bic.w	r3, r6, #2147483648	@ 0x80000000
 80033be:	2e00      	cmp	r6, #0
 80033c0:	ed9f 7a80 	vldr	s14, [pc, #512]	@ 80035c4 <__ieee754_rem_pio2f+0x230>
 80033c4:	4a80      	ldr	r2, [pc, #512]	@ (80035c8 <__ieee754_rem_pio2f+0x234>)
 80033c6:	f023 030f 	bic.w	r3, r3, #15
 80033ca:	dd18      	ble.n	80033fe <__ieee754_rem_pio2f+0x6a>
 80033cc:	4293      	cmp	r3, r2
 80033ce:	ee70 7a47 	vsub.f32	s15, s0, s14
 80033d2:	bf09      	itett	eq
 80033d4:	ed9f 7a7d 	vldreq	s14, [pc, #500]	@ 80035cc <__ieee754_rem_pio2f+0x238>
 80033d8:	eddf 6a7d 	vldrne	s13, [pc, #500]	@ 80035d0 <__ieee754_rem_pio2f+0x23c>
 80033dc:	eddf 6a7d 	vldreq	s13, [pc, #500]	@ 80035d4 <__ieee754_rem_pio2f+0x240>
 80033e0:	ee77 7ac7 	vsubeq.f32	s15, s15, s14
 80033e4:	ee37 7ae6 	vsub.f32	s14, s15, s13
 80033e8:	ee77 7ac7 	vsub.f32	s15, s15, s14
 80033ec:	ed80 7a00 	vstr	s14, [r0]
 80033f0:	ee77 7ae6 	vsub.f32	s15, s15, s13
 80033f4:	edc0 7a01 	vstr	s15, [r0, #4]
 80033f8:	2001      	movs	r0, #1
 80033fa:	b007      	add	sp, #28
 80033fc:	bdf0      	pop	{r4, r5, r6, r7, pc}
 80033fe:	4293      	cmp	r3, r2
 8003400:	ee70 7a07 	vadd.f32	s15, s0, s14
 8003404:	bf09      	itett	eq
 8003406:	ed9f 7a71 	vldreq	s14, [pc, #452]	@ 80035cc <__ieee754_rem_pio2f+0x238>
 800340a:	eddf 6a71 	vldrne	s13, [pc, #452]	@ 80035d0 <__ieee754_rem_pio2f+0x23c>
 800340e:	eddf 6a71 	vldreq	s13, [pc, #452]	@ 80035d4 <__ieee754_rem_pio2f+0x240>
 8003412:	ee77 7a87 	vaddeq.f32	s15, s15, s14
 8003416:	ee37 7aa6 	vadd.f32	s14, s15, s13
 800341a:	ee77 7ac7 	vsub.f32	s15, s15, s14
 800341e:	ed80 7a00 	vstr	s14, [r0]
 8003422:	ee77 7aa6 	vadd.f32	s15, s15, s13
 8003426:	edc0 7a01 	vstr	s15, [r0, #4]
 800342a:	f04f 30ff 	mov.w	r0, #4294967295
 800342e:	e7e4      	b.n	80033fa <__ieee754_rem_pio2f+0x66>
 8003430:	4b69      	ldr	r3, [pc, #420]	@ (80035d8 <__ieee754_rem_pio2f+0x244>)
 8003432:	429d      	cmp	r5, r3
 8003434:	d873      	bhi.n	800351e <__ieee754_rem_pio2f+0x18a>
 8003436:	f7ff febf 	bl	80031b8 <fabsf>
 800343a:	ed9f 7a68 	vldr	s14, [pc, #416]	@ 80035dc <__ieee754_rem_pio2f+0x248>
 800343e:	eef6 7a00 	vmov.f32	s15, #96	@ 0x3f000000  0.5
 8003442:	eee0 7a07 	vfma.f32	s15, s0, s14
 8003446:	eefd 7ae7 	vcvt.s32.f32	s15, s15
 800344a:	eeb8 7ae7 	vcvt.f32.s32	s14, s15
 800344e:	ee17 0a90 	vmov	r0, s15
 8003452:	eddf 7a5c 	vldr	s15, [pc, #368]	@ 80035c4 <__ieee754_rem_pio2f+0x230>
 8003456:	eea7 0a67 	vfms.f32	s0, s14, s15
 800345a:	281f      	cmp	r0, #31
 800345c:	eddf 7a5c 	vldr	s15, [pc, #368]	@ 80035d0 <__ieee754_rem_pio2f+0x23c>
 8003460:	ee67 7a27 	vmul.f32	s15, s14, s15
 8003464:	eeb1 6a47 	vneg.f32	s12, s14
 8003468:	ee70 6a67 	vsub.f32	s13, s0, s15
 800346c:	ee16 1a90 	vmov	r1, s13
 8003470:	dc09      	bgt.n	8003486 <__ieee754_rem_pio2f+0xf2>
 8003472:	4a5b      	ldr	r2, [pc, #364]	@ (80035e0 <__ieee754_rem_pio2f+0x24c>)
 8003474:	1e47      	subs	r7, r0, #1
 8003476:	f026 4300 	bic.w	r3, r6, #2147483648	@ 0x80000000
 800347a:	f852 2027 	ldr.w	r2, [r2, r7, lsl #2]
 800347e:	f023 03ff 	bic.w	r3, r3, #255	@ 0xff
 8003482:	4293      	cmp	r3, r2
 8003484:	d107      	bne.n	8003496 <__ieee754_rem_pio2f+0x102>
 8003486:	f3c1 52c7 	ubfx	r2, r1, #23, #8
 800348a:	ebc2 52d5 	rsb	r2, r2, r5, lsr #23
 800348e:	2a08      	cmp	r2, #8
 8003490:	ea4f 53e5 	mov.w	r3, r5, asr #23
 8003494:	dc14      	bgt.n	80034c0 <__ieee754_rem_pio2f+0x12c>
 8003496:	6021      	str	r1, [r4, #0]
 8003498:	ed94 7a00 	vldr	s14, [r4]
 800349c:	ee30 0a47 	vsub.f32	s0, s0, s14
 80034a0:	2e00      	cmp	r6, #0
 80034a2:	ee30 0a67 	vsub.f32	s0, s0, s15
 80034a6:	ed84 0a01 	vstr	s0, [r4, #4]
 80034aa:	daa6      	bge.n	80033fa <__ieee754_rem_pio2f+0x66>
 80034ac:	eeb1 7a47 	vneg.f32	s14, s14
 80034b0:	eeb1 0a40 	vneg.f32	s0, s0
 80034b4:	ed84 7a00 	vstr	s14, [r4]
 80034b8:	ed84 0a01 	vstr	s0, [r4, #4]
 80034bc:	4240      	negs	r0, r0
 80034be:	e79c      	b.n	80033fa <__ieee754_rem_pio2f+0x66>
 80034c0:	eddf 5a42 	vldr	s11, [pc, #264]	@ 80035cc <__ieee754_rem_pio2f+0x238>
 80034c4:	eef0 6a40 	vmov.f32	s13, s0
 80034c8:	eee6 6a25 	vfma.f32	s13, s12, s11
 80034cc:	ee70 7a66 	vsub.f32	s15, s0, s13
 80034d0:	eee6 7a25 	vfma.f32	s15, s12, s11
 80034d4:	eddf 5a3f 	vldr	s11, [pc, #252]	@ 80035d4 <__ieee754_rem_pio2f+0x240>
 80034d8:	eed7 7a25 	vfnms.f32	s15, s14, s11
 80034dc:	ee76 5ae7 	vsub.f32	s11, s13, s15
 80034e0:	ee15 2a90 	vmov	r2, s11
 80034e4:	f3c2 51c7 	ubfx	r1, r2, #23, #8
 80034e8:	1a5b      	subs	r3, r3, r1
 80034ea:	2b19      	cmp	r3, #25
 80034ec:	dc04      	bgt.n	80034f8 <__ieee754_rem_pio2f+0x164>
 80034ee:	edc4 5a00 	vstr	s11, [r4]
 80034f2:	eeb0 0a66 	vmov.f32	s0, s13
 80034f6:	e7cf      	b.n	8003498 <__ieee754_rem_pio2f+0x104>
 80034f8:	eddf 5a3a 	vldr	s11, [pc, #232]	@ 80035e4 <__ieee754_rem_pio2f+0x250>
 80034fc:	eeb0 0a66 	vmov.f32	s0, s13
 8003500:	eea6 0a25 	vfma.f32	s0, s12, s11
 8003504:	ee76 7ac0 	vsub.f32	s15, s13, s0
 8003508:	eddf 6a37 	vldr	s13, [pc, #220]	@ 80035e8 <__ieee754_rem_pio2f+0x254>
 800350c:	eee6 7a25 	vfma.f32	s15, s12, s11
 8003510:	eed7 7a26 	vfnms.f32	s15, s14, s13
 8003514:	ee30 7a67 	vsub.f32	s14, s0, s15
 8003518:	ed84 7a00 	vstr	s14, [r4]
 800351c:	e7bc      	b.n	8003498 <__ieee754_rem_pio2f+0x104>
 800351e:	f1b5 4fff 	cmp.w	r5, #2139095040	@ 0x7f800000
 8003522:	d306      	bcc.n	8003532 <__ieee754_rem_pio2f+0x19e>
 8003524:	ee70 7a40 	vsub.f32	s15, s0, s0
 8003528:	edc0 7a01 	vstr	s15, [r0, #4]
 800352c:	edc0 7a00 	vstr	s15, [r0]
 8003530:	e73e      	b.n	80033b0 <__ieee754_rem_pio2f+0x1c>
 8003532:	15ea      	asrs	r2, r5, #23
 8003534:	3a86      	subs	r2, #134	@ 0x86
 8003536:	eba5 53c2 	sub.w	r3, r5, r2, lsl #23
 800353a:	ee07 3a90 	vmov	s15, r3
 800353e:	eebd 7ae7 	vcvt.s32.f32	s14, s15
 8003542:	eddf 6a2a 	vldr	s13, [pc, #168]	@ 80035ec <__ieee754_rem_pio2f+0x258>
 8003546:	eeb8 7ac7 	vcvt.f32.s32	s14, s14
 800354a:	ee77 7ac7 	vsub.f32	s15, s15, s14
 800354e:	ed8d 7a03 	vstr	s14, [sp, #12]
 8003552:	ee67 7aa6 	vmul.f32	s15, s15, s13
 8003556:	eebd 7ae7 	vcvt.s32.f32	s14, s15
 800355a:	eeb8 7ac7 	vcvt.f32.s32	s14, s14
 800355e:	ee77 7ac7 	vsub.f32	s15, s15, s14
 8003562:	ed8d 7a04 	vstr	s14, [sp, #16]
 8003566:	ee67 7aa6 	vmul.f32	s15, s15, s13
 800356a:	eef5 7a40 	vcmp.f32	s15, #0.0
 800356e:	eef1 fa10 	vmrs	APSR_nzcv, fpscr
 8003572:	edcd 7a05 	vstr	s15, [sp, #20]
 8003576:	d11e      	bne.n	80035b6 <__ieee754_rem_pio2f+0x222>
 8003578:	eeb5 7a40 	vcmp.f32	s14, #0.0
 800357c:	eef1 fa10 	vmrs	APSR_nzcv, fpscr
 8003580:	bf0c      	ite	eq
 8003582:	2301      	moveq	r3, #1
 8003584:	2302      	movne	r3, #2
 8003586:	491a      	ldr	r1, [pc, #104]	@ (80035f0 <__ieee754_rem_pio2f+0x25c>)
 8003588:	9101      	str	r1, [sp, #4]
 800358a:	2102      	movs	r1, #2
 800358c:	9100      	str	r1, [sp, #0]
 800358e:	a803      	add	r0, sp, #12
 8003590:	4621      	mov	r1, r4
 8003592:	f000 f895 	bl	80036c0 <__kernel_rem_pio2f>
 8003596:	2e00      	cmp	r6, #0
 8003598:	f6bf af2f 	bge.w	80033fa <__ieee754_rem_pio2f+0x66>
 800359c:	edd4 7a00 	vldr	s15, [r4]
 80035a0:	eef1 7a67 	vneg.f32	s15, s15
 80035a4:	edc4 7a00 	vstr	s15, [r4]
 80035a8:	edd4 7a01 	vldr	s15, [r4, #4]
 80035ac:	eef1 7a67 	vneg.f32	s15, s15
 80035b0:	edc4 7a01 	vstr	s15, [r4, #4]
 80035b4:	e782      	b.n	80034bc <__ieee754_rem_pio2f+0x128>
 80035b6:	2303      	movs	r3, #3
 80035b8:	e7e5      	b.n	8003586 <__ieee754_rem_pio2f+0x1f2>
 80035ba:	bf00      	nop
 80035bc:	3f490fd8 	.word	0x3f490fd8
 80035c0:	4016cbe3 	.word	0x4016cbe3
 80035c4:	3fc90f80 	.word	0x3fc90f80
 80035c8:	3fc90fd0 	.word	0x3fc90fd0
 80035cc:	37354400 	.word	0x37354400
 80035d0:	37354443 	.word	0x37354443
 80035d4:	2e85a308 	.word	0x2e85a308
 80035d8:	43490f80 	.word	0x43490f80
 80035dc:	3f22f984 	.word	0x3f22f984
 80035e0:	08004044 	.word	0x08004044
 80035e4:	2e85a300 	.word	0x2e85a300
 80035e8:	248d3132 	.word	0x248d3132
 80035ec:	43800000 	.word	0x43800000
 80035f0:	080040c4 	.word	0x080040c4

080035f4 <scalbnf>:
 80035f4:	ee10 3a10 	vmov	r3, s0
 80035f8:	f033 4200 	bics.w	r2, r3, #2147483648	@ 0x80000000
 80035fc:	d02b      	beq.n	8003656 <scalbnf+0x62>
 80035fe:	f1b2 4fff 	cmp.w	r2, #2139095040	@ 0x7f800000
 8003602:	d302      	bcc.n	800360a <scalbnf+0x16>
 8003604:	ee30 0a00 	vadd.f32	s0, s0, s0
 8003608:	4770      	bx	lr
 800360a:	f013 4fff 	tst.w	r3, #2139095040	@ 0x7f800000
 800360e:	d123      	bne.n	8003658 <scalbnf+0x64>
 8003610:	4b24      	ldr	r3, [pc, #144]	@ (80036a4 <scalbnf+0xb0>)
 8003612:	eddf 7a25 	vldr	s15, [pc, #148]	@ 80036a8 <scalbnf+0xb4>
 8003616:	4298      	cmp	r0, r3
 8003618:	ee20 0a27 	vmul.f32	s0, s0, s15
 800361c:	db17      	blt.n	800364e <scalbnf+0x5a>
 800361e:	ee10 3a10 	vmov	r3, s0
 8003622:	f3c3 52c7 	ubfx	r2, r3, #23, #8
 8003626:	3a19      	subs	r2, #25
 8003628:	f24c 3150 	movw	r1, #50000	@ 0xc350
 800362c:	4288      	cmp	r0, r1
 800362e:	dd15      	ble.n	800365c <scalbnf+0x68>
 8003630:	eddf 7a1e 	vldr	s15, [pc, #120]	@ 80036ac <scalbnf+0xb8>
 8003634:	eddf 6a1e 	vldr	s13, [pc, #120]	@ 80036b0 <scalbnf+0xbc>
 8003638:	ee10 3a10 	vmov	r3, s0
 800363c:	eeb0 7a67 	vmov.f32	s14, s15
 8003640:	2b00      	cmp	r3, #0
 8003642:	bfb8      	it	lt
 8003644:	eef0 7a66 	vmovlt.f32	s15, s13
 8003648:	ee27 0a87 	vmul.f32	s0, s15, s14
 800364c:	4770      	bx	lr
 800364e:	eddf 7a19 	vldr	s15, [pc, #100]	@ 80036b4 <scalbnf+0xc0>
 8003652:	ee27 0a80 	vmul.f32	s0, s15, s0
 8003656:	4770      	bx	lr
 8003658:	0dd2      	lsrs	r2, r2, #23
 800365a:	e7e5      	b.n	8003628 <scalbnf+0x34>
 800365c:	4410      	add	r0, r2
 800365e:	28fe      	cmp	r0, #254	@ 0xfe
 8003660:	dce6      	bgt.n	8003630 <scalbnf+0x3c>
 8003662:	2800      	cmp	r0, #0
 8003664:	dd06      	ble.n	8003674 <scalbnf+0x80>
 8003666:	f023 43ff 	bic.w	r3, r3, #2139095040	@ 0x7f800000
 800366a:	ea43 53c0 	orr.w	r3, r3, r0, lsl #23
 800366e:	ee00 3a10 	vmov	s0, r3
 8003672:	4770      	bx	lr
 8003674:	f110 0f16 	cmn.w	r0, #22
 8003678:	da09      	bge.n	800368e <scalbnf+0x9a>
 800367a:	eddf 7a0e 	vldr	s15, [pc, #56]	@ 80036b4 <scalbnf+0xc0>
 800367e:	eddf 6a0e 	vldr	s13, [pc, #56]	@ 80036b8 <scalbnf+0xc4>
 8003682:	ee10 3a10 	vmov	r3, s0
 8003686:	eeb0 7a67 	vmov.f32	s14, s15
 800368a:	2b00      	cmp	r3, #0
 800368c:	e7d9      	b.n	8003642 <scalbnf+0x4e>
 800368e:	3019      	adds	r0, #25
 8003690:	f023 43ff 	bic.w	r3, r3, #2139095040	@ 0x7f800000
 8003694:	ea43 53c0 	orr.w	r3, r3, r0, lsl #23
 8003698:	ed9f 0a08 	vldr	s0, [pc, #32]	@ 80036bc <scalbnf+0xc8>
 800369c:	ee07 3a90 	vmov	s15, r3
 80036a0:	e7d7      	b.n	8003652 <scalbnf+0x5e>
 80036a2:	bf00      	nop
 80036a4:	ffff3cb0 	.word	0xffff3cb0
 80036a8:	4c000000 	.word	0x4c000000
 80036ac:	7149f2ca 	.word	0x7149f2ca
 80036b0:	f149f2ca 	.word	0xf149f2ca
 80036b4:	0da24260 	.word	0x0da24260
 80036b8:	8da24260 	.word	0x8da24260
 80036bc:	33000000 	.word	0x33000000

080036c0 <__kernel_rem_pio2f>:
 80036c0:	e92d 4ff0 	stmdb	sp!, {r4, r5, r6, r7, r8, r9, sl, fp, lr}
 80036c4:	ed2d 8b04 	vpush	{d8-d9}
 80036c8:	b0d9      	sub	sp, #356	@ 0x164
 80036ca:	4690      	mov	r8, r2
 80036cc:	9001      	str	r0, [sp, #4]
 80036ce:	4ab6      	ldr	r2, [pc, #728]	@ (80039a8 <__kernel_rem_pio2f+0x2e8>)
 80036d0:	9866      	ldr	r0, [sp, #408]	@ 0x198
 80036d2:	f118 0f04 	cmn.w	r8, #4
 80036d6:	f852 a020 	ldr.w	sl, [r2, r0, lsl #2]
 80036da:	460f      	mov	r7, r1
 80036dc:	f103 3bff 	add.w	fp, r3, #4294967295
 80036e0:	db26      	blt.n	8003730 <__kernel_rem_pio2f+0x70>
 80036e2:	f1b8 0203 	subs.w	r2, r8, #3
 80036e6:	bf48      	it	mi
 80036e8:	f108 0204 	addmi.w	r2, r8, #4
 80036ec:	10d2      	asrs	r2, r2, #3
 80036ee:	1c55      	adds	r5, r2, #1
 80036f0:	9967      	ldr	r1, [sp, #412]	@ 0x19c
 80036f2:	ed9f 7ab1 	vldr	s14, [pc, #708]	@ 80039b8 <__kernel_rem_pio2f+0x2f8>
 80036f6:	00e8      	lsls	r0, r5, #3
 80036f8:	eba2 060b 	sub.w	r6, r2, fp
 80036fc:	9002      	str	r0, [sp, #8]
 80036fe:	eba8 05c5 	sub.w	r5, r8, r5, lsl #3
 8003702:	eb0a 0c0b 	add.w	ip, sl, fp
 8003706:	ac1c      	add	r4, sp, #112	@ 0x70
 8003708:	eb01 0e86 	add.w	lr, r1, r6, lsl #2
 800370c:	2000      	movs	r0, #0
 800370e:	4560      	cmp	r0, ip
 8003710:	dd10      	ble.n	8003734 <__kernel_rem_pio2f+0x74>
 8003712:	a91c      	add	r1, sp, #112	@ 0x70
 8003714:	eb01 0083 	add.w	r0, r1, r3, lsl #2
 8003718:	f50d 7988 	add.w	r9, sp, #272	@ 0x110
 800371c:	2600      	movs	r6, #0
 800371e:	4556      	cmp	r6, sl
 8003720:	dc24      	bgt.n	800376c <__kernel_rem_pio2f+0xac>
 8003722:	f8dd e004 	ldr.w	lr, [sp, #4]
 8003726:	eddf 7aa4 	vldr	s15, [pc, #656]	@ 80039b8 <__kernel_rem_pio2f+0x2f8>
 800372a:	4684      	mov	ip, r0
 800372c:	2400      	movs	r4, #0
 800372e:	e016      	b.n	800375e <__kernel_rem_pio2f+0x9e>
 8003730:	2200      	movs	r2, #0
 8003732:	e7dc      	b.n	80036ee <__kernel_rem_pio2f+0x2e>
 8003734:	42c6      	cmn	r6, r0
 8003736:	bf5d      	ittte	pl
 8003738:	f85e 1020 	ldrpl.w	r1, [lr, r0, lsl #2]
 800373c:	ee07 1a90 	vmovpl	s15, r1
 8003740:	eef8 7ae7 	vcvtpl.f32.s32	s15, s15
 8003744:	eef0 7a47 	vmovmi.f32	s15, s14
 8003748:	ece4 7a01 	vstmia	r4!, {s15}
 800374c:	3001      	adds	r0, #1
 800374e:	e7de      	b.n	800370e <__kernel_rem_pio2f+0x4e>
 8003750:	ecfe 6a01 	vldmia	lr!, {s13}
 8003754:	ed3c 7a01 	vldmdb	ip!, {s14}
 8003758:	eee6 7a87 	vfma.f32	s15, s13, s14
 800375c:	3401      	adds	r4, #1
 800375e:	455c      	cmp	r4, fp
 8003760:	ddf6      	ble.n	8003750 <__kernel_rem_pio2f+0x90>
 8003762:	ece9 7a01 	vstmia	r9!, {s15}
 8003766:	3601      	adds	r6, #1
 8003768:	3004      	adds	r0, #4
 800376a:	e7d8      	b.n	800371e <__kernel_rem_pio2f+0x5e>
 800376c:	a908      	add	r1, sp, #32
 800376e:	eb01 018a 	add.w	r1, r1, sl, lsl #2
 8003772:	9104      	str	r1, [sp, #16]
 8003774:	9967      	ldr	r1, [sp, #412]	@ 0x19c
 8003776:	eddf 8a8f 	vldr	s17, [pc, #572]	@ 80039b4 <__kernel_rem_pio2f+0x2f4>
 800377a:	ed9f 9a8d 	vldr	s18, [pc, #564]	@ 80039b0 <__kernel_rem_pio2f+0x2f0>
 800377e:	eb01 0282 	add.w	r2, r1, r2, lsl #2
 8003782:	9203      	str	r2, [sp, #12]
 8003784:	4654      	mov	r4, sl
 8003786:	00a2      	lsls	r2, r4, #2
 8003788:	9205      	str	r2, [sp, #20]
 800378a:	aa58      	add	r2, sp, #352	@ 0x160
 800378c:	eb02 0284 	add.w	r2, r2, r4, lsl #2
 8003790:	ed12 0a14 	vldr	s0, [r2, #-80]	@ 0xffffffb0
 8003794:	a944      	add	r1, sp, #272	@ 0x110
 8003796:	aa08      	add	r2, sp, #32
 8003798:	eb01 0084 	add.w	r0, r1, r4, lsl #2
 800379c:	4694      	mov	ip, r2
 800379e:	4626      	mov	r6, r4
 80037a0:	2e00      	cmp	r6, #0
 80037a2:	dc4c      	bgt.n	800383e <__kernel_rem_pio2f+0x17e>
 80037a4:	4628      	mov	r0, r5
 80037a6:	e9cd 2306 	strd	r2, r3, [sp, #24]
 80037aa:	f7ff ff23 	bl	80035f4 <scalbnf>
 80037ae:	eeb0 8a40 	vmov.f32	s16, s0
 80037b2:	eeb4 0a00 	vmov.f32	s0, #64	@ 0x3e000000  0.125
 80037b6:	ee28 0a00 	vmul.f32	s0, s16, s0
 80037ba:	f000 f9e9 	bl	8003b90 <floorf>
 80037be:	eef2 7a00 	vmov.f32	s15, #32	@ 0x41000000  8.0
 80037c2:	eea0 8a67 	vfms.f32	s16, s0, s15
 80037c6:	2d00      	cmp	r5, #0
 80037c8:	e9dd 2306 	ldrd	r2, r3, [sp, #24]
 80037cc:	eefd 7ac8 	vcvt.s32.f32	s15, s16
 80037d0:	ee17 9a90 	vmov	r9, s15
 80037d4:	eef8 7ae7 	vcvt.f32.s32	s15, s15
 80037d8:	ee38 8a67 	vsub.f32	s16, s16, s15
 80037dc:	dd41      	ble.n	8003862 <__kernel_rem_pio2f+0x1a2>
 80037de:	f104 3cff 	add.w	ip, r4, #4294967295
 80037e2:	a908      	add	r1, sp, #32
 80037e4:	f1c5 0e08 	rsb	lr, r5, #8
 80037e8:	f851 602c 	ldr.w	r6, [r1, ip, lsl #2]
 80037ec:	fa46 f00e 	asr.w	r0, r6, lr
 80037f0:	4481      	add	r9, r0
 80037f2:	fa00 f00e 	lsl.w	r0, r0, lr
 80037f6:	1a36      	subs	r6, r6, r0
 80037f8:	f1c5 0007 	rsb	r0, r5, #7
 80037fc:	f841 602c 	str.w	r6, [r1, ip, lsl #2]
 8003800:	4106      	asrs	r6, r0
 8003802:	2e00      	cmp	r6, #0
 8003804:	dd3c      	ble.n	8003880 <__kernel_rem_pio2f+0x1c0>
 8003806:	f04f 0e00 	mov.w	lr, #0
 800380a:	f109 0901 	add.w	r9, r9, #1
 800380e:	4670      	mov	r0, lr
 8003810:	4574      	cmp	r4, lr
 8003812:	dc68      	bgt.n	80038e6 <__kernel_rem_pio2f+0x226>
 8003814:	2d00      	cmp	r5, #0
 8003816:	dd03      	ble.n	8003820 <__kernel_rem_pio2f+0x160>
 8003818:	2d01      	cmp	r5, #1
 800381a:	d074      	beq.n	8003906 <__kernel_rem_pio2f+0x246>
 800381c:	2d02      	cmp	r5, #2
 800381e:	d07d      	beq.n	800391c <__kernel_rem_pio2f+0x25c>
 8003820:	2e02      	cmp	r6, #2
 8003822:	d12d      	bne.n	8003880 <__kernel_rem_pio2f+0x1c0>
 8003824:	eeb7 0a00 	vmov.f32	s0, #112	@ 0x3f800000  1.0
 8003828:	ee30 8a48 	vsub.f32	s16, s0, s16
 800382c:	b340      	cbz	r0, 8003880 <__kernel_rem_pio2f+0x1c0>
 800382e:	4628      	mov	r0, r5
 8003830:	9306      	str	r3, [sp, #24]
 8003832:	f7ff fedf 	bl	80035f4 <scalbnf>
 8003836:	9b06      	ldr	r3, [sp, #24]
 8003838:	ee38 8a40 	vsub.f32	s16, s16, s0
 800383c:	e020      	b.n	8003880 <__kernel_rem_pio2f+0x1c0>
 800383e:	ee60 7a28 	vmul.f32	s15, s0, s17
 8003842:	3e01      	subs	r6, #1
 8003844:	eefd 7ae7 	vcvt.s32.f32	s15, s15
 8003848:	eef8 7ae7 	vcvt.f32.s32	s15, s15
 800384c:	eea7 0ac9 	vfms.f32	s0, s15, s18
 8003850:	eebd 0ac0 	vcvt.s32.f32	s0, s0
 8003854:	ecac 0a01 	vstmia	ip!, {s0}
 8003858:	ed30 0a01 	vldmdb	r0!, {s0}
 800385c:	ee37 0a80 	vadd.f32	s0, s15, s0
 8003860:	e79e      	b.n	80037a0 <__kernel_rem_pio2f+0xe0>
 8003862:	d105      	bne.n	8003870 <__kernel_rem_pio2f+0x1b0>
 8003864:	1e60      	subs	r0, r4, #1
 8003866:	a908      	add	r1, sp, #32
 8003868:	f851 6020 	ldr.w	r6, [r1, r0, lsl #2]
 800386c:	11f6      	asrs	r6, r6, #7
 800386e:	e7c8      	b.n	8003802 <__kernel_rem_pio2f+0x142>
 8003870:	eef6 7a00 	vmov.f32	s15, #96	@ 0x3f000000  0.5
 8003874:	eeb4 8ae7 	vcmpe.f32	s16, s15
 8003878:	eef1 fa10 	vmrs	APSR_nzcv, fpscr
 800387c:	da31      	bge.n	80038e2 <__kernel_rem_pio2f+0x222>
 800387e:	2600      	movs	r6, #0
 8003880:	eeb5 8a40 	vcmp.f32	s16, #0.0
 8003884:	eef1 fa10 	vmrs	APSR_nzcv, fpscr
 8003888:	f040 8098 	bne.w	80039bc <__kernel_rem_pio2f+0x2fc>
 800388c:	1e60      	subs	r0, r4, #1
 800388e:	2200      	movs	r2, #0
 8003890:	4550      	cmp	r0, sl
 8003892:	da4b      	bge.n	800392c <__kernel_rem_pio2f+0x26c>
 8003894:	2a00      	cmp	r2, #0
 8003896:	d065      	beq.n	8003964 <__kernel_rem_pio2f+0x2a4>
 8003898:	3c01      	subs	r4, #1
 800389a:	ab08      	add	r3, sp, #32
 800389c:	3d08      	subs	r5, #8
 800389e:	f853 3024 	ldr.w	r3, [r3, r4, lsl #2]
 80038a2:	2b00      	cmp	r3, #0
 80038a4:	d0f8      	beq.n	8003898 <__kernel_rem_pio2f+0x1d8>
 80038a6:	4628      	mov	r0, r5
 80038a8:	eeb7 0a00 	vmov.f32	s0, #112	@ 0x3f800000  1.0
 80038ac:	f7ff fea2 	bl	80035f4 <scalbnf>
 80038b0:	1c63      	adds	r3, r4, #1
 80038b2:	aa44      	add	r2, sp, #272	@ 0x110
 80038b4:	ed9f 7a3f 	vldr	s14, [pc, #252]	@ 80039b4 <__kernel_rem_pio2f+0x2f4>
 80038b8:	0099      	lsls	r1, r3, #2
 80038ba:	eb02 0283 	add.w	r2, r2, r3, lsl #2
 80038be:	4623      	mov	r3, r4
 80038c0:	2b00      	cmp	r3, #0
 80038c2:	f280 80a9 	bge.w	8003a18 <__kernel_rem_pio2f+0x358>
 80038c6:	4623      	mov	r3, r4
 80038c8:	2b00      	cmp	r3, #0
 80038ca:	f2c0 80c7 	blt.w	8003a5c <__kernel_rem_pio2f+0x39c>
 80038ce:	aa44      	add	r2, sp, #272	@ 0x110
 80038d0:	eb02 0583 	add.w	r5, r2, r3, lsl #2
 80038d4:	f8df c0d4 	ldr.w	ip, [pc, #212]	@ 80039ac <__kernel_rem_pio2f+0x2ec>
 80038d8:	eddf 7a37 	vldr	s15, [pc, #220]	@ 80039b8 <__kernel_rem_pio2f+0x2f8>
 80038dc:	2000      	movs	r0, #0
 80038de:	1ae2      	subs	r2, r4, r3
 80038e0:	e0b1      	b.n	8003a46 <__kernel_rem_pio2f+0x386>
 80038e2:	2602      	movs	r6, #2
 80038e4:	e78f      	b.n	8003806 <__kernel_rem_pio2f+0x146>
 80038e6:	f852 1b04 	ldr.w	r1, [r2], #4
 80038ea:	b948      	cbnz	r0, 8003900 <__kernel_rem_pio2f+0x240>
 80038ec:	b121      	cbz	r1, 80038f8 <__kernel_rem_pio2f+0x238>
 80038ee:	f5c1 7180 	rsb	r1, r1, #256	@ 0x100
 80038f2:	f842 1c04 	str.w	r1, [r2, #-4]
 80038f6:	2101      	movs	r1, #1
 80038f8:	f10e 0e01 	add.w	lr, lr, #1
 80038fc:	4608      	mov	r0, r1
 80038fe:	e787      	b.n	8003810 <__kernel_rem_pio2f+0x150>
 8003900:	f1c1 01ff 	rsb	r1, r1, #255	@ 0xff
 8003904:	e7f5      	b.n	80038f2 <__kernel_rem_pio2f+0x232>
 8003906:	f104 3cff 	add.w	ip, r4, #4294967295
 800390a:	aa08      	add	r2, sp, #32
 800390c:	f852 202c 	ldr.w	r2, [r2, ip, lsl #2]
 8003910:	f002 027f 	and.w	r2, r2, #127	@ 0x7f
 8003914:	a908      	add	r1, sp, #32
 8003916:	f841 202c 	str.w	r2, [r1, ip, lsl #2]
 800391a:	e781      	b.n	8003820 <__kernel_rem_pio2f+0x160>
 800391c:	f104 3cff 	add.w	ip, r4, #4294967295
 8003920:	aa08      	add	r2, sp, #32
 8003922:	f852 202c 	ldr.w	r2, [r2, ip, lsl #2]
 8003926:	f002 023f 	and.w	r2, r2, #63	@ 0x3f
 800392a:	e7f3      	b.n	8003914 <__kernel_rem_pio2f+0x254>
 800392c:	a908      	add	r1, sp, #32
 800392e:	f851 1020 	ldr.w	r1, [r1, r0, lsl #2]
 8003932:	3801      	subs	r0, #1
 8003934:	430a      	orrs	r2, r1
 8003936:	e7ab      	b.n	8003890 <__kernel_rem_pio2f+0x1d0>
 8003938:	3201      	adds	r2, #1
 800393a:	f850 6d04 	ldr.w	r6, [r0, #-4]!
 800393e:	2e00      	cmp	r6, #0
 8003940:	d0fa      	beq.n	8003938 <__kernel_rem_pio2f+0x278>
 8003942:	9905      	ldr	r1, [sp, #20]
 8003944:	f501 71b0 	add.w	r1, r1, #352	@ 0x160
 8003948:	eb0d 0001 	add.w	r0, sp, r1
 800394c:	18e6      	adds	r6, r4, r3
 800394e:	a91c      	add	r1, sp, #112	@ 0x70
 8003950:	f104 0c01 	add.w	ip, r4, #1
 8003954:	384c      	subs	r0, #76	@ 0x4c
 8003956:	eb01 0686 	add.w	r6, r1, r6, lsl #2
 800395a:	4422      	add	r2, r4
 800395c:	4562      	cmp	r2, ip
 800395e:	da04      	bge.n	800396a <__kernel_rem_pio2f+0x2aa>
 8003960:	4614      	mov	r4, r2
 8003962:	e710      	b.n	8003786 <__kernel_rem_pio2f+0xc6>
 8003964:	9804      	ldr	r0, [sp, #16]
 8003966:	2201      	movs	r2, #1
 8003968:	e7e7      	b.n	800393a <__kernel_rem_pio2f+0x27a>
 800396a:	9903      	ldr	r1, [sp, #12]
 800396c:	f8dd e004 	ldr.w	lr, [sp, #4]
 8003970:	f851 102c 	ldr.w	r1, [r1, ip, lsl #2]
 8003974:	9105      	str	r1, [sp, #20]
 8003976:	ee07 1a90 	vmov	s15, r1
 800397a:	eef8 7ae7 	vcvt.f32.s32	s15, s15
 800397e:	2400      	movs	r4, #0
 8003980:	ece6 7a01 	vstmia	r6!, {s15}
 8003984:	eddf 7a0c 	vldr	s15, [pc, #48]	@ 80039b8 <__kernel_rem_pio2f+0x2f8>
 8003988:	46b1      	mov	r9, r6
 800398a:	455c      	cmp	r4, fp
 800398c:	dd04      	ble.n	8003998 <__kernel_rem_pio2f+0x2d8>
 800398e:	ece0 7a01 	vstmia	r0!, {s15}
 8003992:	f10c 0c01 	add.w	ip, ip, #1
 8003996:	e7e1      	b.n	800395c <__kernel_rem_pio2f+0x29c>
 8003998:	ecfe 6a01 	vldmia	lr!, {s13}
 800399c:	ed39 7a01 	vldmdb	r9!, {s14}
 80039a0:	3401      	adds	r4, #1
 80039a2:	eee6 7a87 	vfma.f32	s15, s13, s14
 80039a6:	e7f0      	b.n	800398a <__kernel_rem_pio2f+0x2ca>
 80039a8:	08004408 	.word	0x08004408
 80039ac:	080043dc 	.word	0x080043dc
 80039b0:	43800000 	.word	0x43800000
 80039b4:	3b800000 	.word	0x3b800000
 80039b8:	00000000 	.word	0x00000000
 80039bc:	9b02      	ldr	r3, [sp, #8]
 80039be:	eeb0 0a48 	vmov.f32	s0, s16
 80039c2:	eba3 0008 	sub.w	r0, r3, r8
 80039c6:	f7ff fe15 	bl	80035f4 <scalbnf>
 80039ca:	ed1f 7a07 	vldr	s14, [pc, #-28]	@ 80039b0 <__kernel_rem_pio2f+0x2f0>
 80039ce:	eeb4 0ac7 	vcmpe.f32	s0, s14
 80039d2:	eef1 fa10 	vmrs	APSR_nzcv, fpscr
 80039d6:	db19      	blt.n	8003a0c <__kernel_rem_pio2f+0x34c>
 80039d8:	ed5f 7a0a 	vldr	s15, [pc, #-40]	@ 80039b4 <__kernel_rem_pio2f+0x2f4>
 80039dc:	ee60 7a27 	vmul.f32	s15, s0, s15
 80039e0:	aa08      	add	r2, sp, #32
 80039e2:	eefd 7ae7 	vcvt.s32.f32	s15, s15
 80039e6:	3508      	adds	r5, #8
 80039e8:	eef8 7ae7 	vcvt.f32.s32	s15, s15
 80039ec:	eea7 0ac7 	vfms.f32	s0, s15, s14
 80039f0:	eefd 7ae7 	vcvt.s32.f32	s15, s15
 80039f4:	eebd 0ac0 	vcvt.s32.f32	s0, s0
 80039f8:	ee10 3a10 	vmov	r3, s0
 80039fc:	f842 3024 	str.w	r3, [r2, r4, lsl #2]
 8003a00:	ee17 3a90 	vmov	r3, s15
 8003a04:	3401      	adds	r4, #1
 8003a06:	f842 3024 	str.w	r3, [r2, r4, lsl #2]
 8003a0a:	e74c      	b.n	80038a6 <__kernel_rem_pio2f+0x1e6>
 8003a0c:	eebd 0ac0 	vcvt.s32.f32	s0, s0
 8003a10:	aa08      	add	r2, sp, #32
 8003a12:	ee10 3a10 	vmov	r3, s0
 8003a16:	e7f6      	b.n	8003a06 <__kernel_rem_pio2f+0x346>
 8003a18:	a808      	add	r0, sp, #32
 8003a1a:	f850 0023 	ldr.w	r0, [r0, r3, lsl #2]
 8003a1e:	9001      	str	r0, [sp, #4]
 8003a20:	ee07 0a90 	vmov	s15, r0
 8003a24:	eef8 7ae7 	vcvt.f32.s32	s15, s15
 8003a28:	3b01      	subs	r3, #1
 8003a2a:	ee67 7a80 	vmul.f32	s15, s15, s0
 8003a2e:	ee20 0a07 	vmul.f32	s0, s0, s14
 8003a32:	ed62 7a01 	vstmdb	r2!, {s15}
 8003a36:	e743      	b.n	80038c0 <__kernel_rem_pio2f+0x200>
 8003a38:	ecfc 6a01 	vldmia	ip!, {s13}
 8003a3c:	ecb5 7a01 	vldmia	r5!, {s14}
 8003a40:	eee6 7a87 	vfma.f32	s15, s13, s14
 8003a44:	3001      	adds	r0, #1
 8003a46:	4550      	cmp	r0, sl
 8003a48:	dc01      	bgt.n	8003a4e <__kernel_rem_pio2f+0x38e>
 8003a4a:	4290      	cmp	r0, r2
 8003a4c:	ddf4      	ble.n	8003a38 <__kernel_rem_pio2f+0x378>
 8003a4e:	a858      	add	r0, sp, #352	@ 0x160
 8003a50:	eb00 0282 	add.w	r2, r0, r2, lsl #2
 8003a54:	ed42 7a28 	vstr	s15, [r2, #-160]	@ 0xffffff60
 8003a58:	3b01      	subs	r3, #1
 8003a5a:	e735      	b.n	80038c8 <__kernel_rem_pio2f+0x208>
 8003a5c:	9b66      	ldr	r3, [sp, #408]	@ 0x198
 8003a5e:	2b02      	cmp	r3, #2
 8003a60:	dc09      	bgt.n	8003a76 <__kernel_rem_pio2f+0x3b6>
 8003a62:	2b00      	cmp	r3, #0
 8003a64:	dc27      	bgt.n	8003ab6 <__kernel_rem_pio2f+0x3f6>
 8003a66:	d040      	beq.n	8003aea <__kernel_rem_pio2f+0x42a>
 8003a68:	f009 0007 	and.w	r0, r9, #7
 8003a6c:	b059      	add	sp, #356	@ 0x164
 8003a6e:	ecbd 8b04 	vpop	{d8-d9}
 8003a72:	e8bd 8ff0 	ldmia.w	sp!, {r4, r5, r6, r7, r8, r9, sl, fp, pc}
 8003a76:	9b66      	ldr	r3, [sp, #408]	@ 0x198
 8003a78:	2b03      	cmp	r3, #3
 8003a7a:	d1f5      	bne.n	8003a68 <__kernel_rem_pio2f+0x3a8>
 8003a7c:	aa30      	add	r2, sp, #192	@ 0xc0
 8003a7e:	1f0b      	subs	r3, r1, #4
 8003a80:	4413      	add	r3, r2
 8003a82:	461a      	mov	r2, r3
 8003a84:	4620      	mov	r0, r4
 8003a86:	2800      	cmp	r0, #0
 8003a88:	dc50      	bgt.n	8003b2c <__kernel_rem_pio2f+0x46c>
 8003a8a:	4622      	mov	r2, r4
 8003a8c:	2a01      	cmp	r2, #1
 8003a8e:	dc5d      	bgt.n	8003b4c <__kernel_rem_pio2f+0x48c>
 8003a90:	ab30      	add	r3, sp, #192	@ 0xc0
 8003a92:	ed5f 7a37 	vldr	s15, [pc, #-220]	@ 80039b8 <__kernel_rem_pio2f+0x2f8>
 8003a96:	440b      	add	r3, r1
 8003a98:	2c01      	cmp	r4, #1
 8003a9a:	dc67      	bgt.n	8003b6c <__kernel_rem_pio2f+0x4ac>
 8003a9c:	eddd 6a30 	vldr	s13, [sp, #192]	@ 0xc0
 8003aa0:	ed9d 7a31 	vldr	s14, [sp, #196]	@ 0xc4
 8003aa4:	2e00      	cmp	r6, #0
 8003aa6:	d167      	bne.n	8003b78 <__kernel_rem_pio2f+0x4b8>
 8003aa8:	edc7 6a00 	vstr	s13, [r7]
 8003aac:	ed87 7a01 	vstr	s14, [r7, #4]
 8003ab0:	edc7 7a02 	vstr	s15, [r7, #8]
 8003ab4:	e7d8      	b.n	8003a68 <__kernel_rem_pio2f+0x3a8>
 8003ab6:	ab30      	add	r3, sp, #192	@ 0xc0
 8003ab8:	ed1f 7a41 	vldr	s14, [pc, #-260]	@ 80039b8 <__kernel_rem_pio2f+0x2f8>
 8003abc:	440b      	add	r3, r1
 8003abe:	4622      	mov	r2, r4
 8003ac0:	2a00      	cmp	r2, #0
 8003ac2:	da24      	bge.n	8003b0e <__kernel_rem_pio2f+0x44e>
 8003ac4:	b34e      	cbz	r6, 8003b1a <__kernel_rem_pio2f+0x45a>
 8003ac6:	eef1 7a47 	vneg.f32	s15, s14
 8003aca:	edc7 7a00 	vstr	s15, [r7]
 8003ace:	eddd 7a30 	vldr	s15, [sp, #192]	@ 0xc0
 8003ad2:	ee77 7ac7 	vsub.f32	s15, s15, s14
 8003ad6:	aa31      	add	r2, sp, #196	@ 0xc4
 8003ad8:	2301      	movs	r3, #1
 8003ada:	429c      	cmp	r4, r3
 8003adc:	da20      	bge.n	8003b20 <__kernel_rem_pio2f+0x460>
 8003ade:	b10e      	cbz	r6, 8003ae4 <__kernel_rem_pio2f+0x424>
 8003ae0:	eef1 7a67 	vneg.f32	s15, s15
 8003ae4:	edc7 7a01 	vstr	s15, [r7, #4]
 8003ae8:	e7be      	b.n	8003a68 <__kernel_rem_pio2f+0x3a8>
 8003aea:	ab30      	add	r3, sp, #192	@ 0xc0
 8003aec:	ed5f 7a4e 	vldr	s15, [pc, #-312]	@ 80039b8 <__kernel_rem_pio2f+0x2f8>
 8003af0:	440b      	add	r3, r1
 8003af2:	2c00      	cmp	r4, #0
 8003af4:	da05      	bge.n	8003b02 <__kernel_rem_pio2f+0x442>
 8003af6:	b10e      	cbz	r6, 8003afc <__kernel_rem_pio2f+0x43c>
 8003af8:	eef1 7a67 	vneg.f32	s15, s15
 8003afc:	edc7 7a00 	vstr	s15, [r7]
 8003b00:	e7b2      	b.n	8003a68 <__kernel_rem_pio2f+0x3a8>
 8003b02:	ed33 7a01 	vldmdb	r3!, {s14}
 8003b06:	3c01      	subs	r4, #1
 8003b08:	ee77 7a87 	vadd.f32	s15, s15, s14
 8003b0c:	e7f1      	b.n	8003af2 <__kernel_rem_pio2f+0x432>
 8003b0e:	ed73 7a01 	vldmdb	r3!, {s15}
 8003b12:	3a01      	subs	r2, #1
 8003b14:	ee37 7a27 	vadd.f32	s14, s14, s15
 8003b18:	e7d2      	b.n	8003ac0 <__kernel_rem_pio2f+0x400>
 8003b1a:	eef0 7a47 	vmov.f32	s15, s14
 8003b1e:	e7d4      	b.n	8003aca <__kernel_rem_pio2f+0x40a>
 8003b20:	ecb2 7a01 	vldmia	r2!, {s14}
 8003b24:	3301      	adds	r3, #1
 8003b26:	ee77 7a87 	vadd.f32	s15, s15, s14
 8003b2a:	e7d6      	b.n	8003ada <__kernel_rem_pio2f+0x41a>
 8003b2c:	ed72 7a01 	vldmdb	r2!, {s15}
 8003b30:	edd2 6a01 	vldr	s13, [r2, #4]
 8003b34:	ee37 7aa6 	vadd.f32	s14, s15, s13
 8003b38:	3801      	subs	r0, #1
 8003b3a:	ee77 7ac7 	vsub.f32	s15, s15, s14
 8003b3e:	ed82 7a00 	vstr	s14, [r2]
 8003b42:	ee77 7aa6 	vadd.f32	s15, s15, s13
 8003b46:	edc2 7a01 	vstr	s15, [r2, #4]
 8003b4a:	e79c      	b.n	8003a86 <__kernel_rem_pio2f+0x3c6>
 8003b4c:	ed73 7a01 	vldmdb	r3!, {s15}
 8003b50:	edd3 6a01 	vldr	s13, [r3, #4]
 8003b54:	ee37 7aa6 	vadd.f32	s14, s15, s13
 8003b58:	3a01      	subs	r2, #1
 8003b5a:	ee77 7ac7 	vsub.f32	s15, s15, s14
 8003b5e:	ed83 7a00 	vstr	s14, [r3]
 8003b62:	ee77 7aa6 	vadd.f32	s15, s15, s13
 8003b66:	edc3 7a01 	vstr	s15, [r3, #4]
 8003b6a:	e78f      	b.n	8003a8c <__kernel_rem_pio2f+0x3cc>
 8003b6c:	ed33 7a01 	vldmdb	r3!, {s14}
 8003b70:	3c01      	subs	r4, #1
 8003b72:	ee77 7a87 	vadd.f32	s15, s15, s14
 8003b76:	e78f      	b.n	8003a98 <__kernel_rem_pio2f+0x3d8>
 8003b78:	eef1 6a66 	vneg.f32	s13, s13
 8003b7c:	eeb1 7a47 	vneg.f32	s14, s14
 8003b80:	edc7 6a00 	vstr	s13, [r7]
 8003b84:	ed87 7a01 	vstr	s14, [r7, #4]
 8003b88:	eef1 7a67 	vneg.f32	s15, s15
 8003b8c:	e790      	b.n	8003ab0 <__kernel_rem_pio2f+0x3f0>
 8003b8e:	bf00      	nop

08003b90 <floorf>:
 8003b90:	ee10 3a10 	vmov	r3, s0
 8003b94:	f3c3 52c7 	ubfx	r2, r3, #23, #8
 8003b98:	3a7f      	subs	r2, #127	@ 0x7f
 8003b9a:	2a16      	cmp	r2, #22
 8003b9c:	f023 4100 	bic.w	r1, r3, #2147483648	@ 0x80000000
 8003ba0:	dc2b      	bgt.n	8003bfa <floorf+0x6a>
 8003ba2:	2a00      	cmp	r2, #0
 8003ba4:	da12      	bge.n	8003bcc <floorf+0x3c>
 8003ba6:	eddf 7a19 	vldr	s15, [pc, #100]	@ 8003c0c <floorf+0x7c>
 8003baa:	ee30 0a27 	vadd.f32	s0, s0, s15
 8003bae:	eeb5 0ac0 	vcmpe.f32	s0, #0.0
 8003bb2:	eef1 fa10 	vmrs	APSR_nzcv, fpscr
 8003bb6:	dd06      	ble.n	8003bc6 <floorf+0x36>
 8003bb8:	2b00      	cmp	r3, #0
 8003bba:	da24      	bge.n	8003c06 <floorf+0x76>
 8003bbc:	2900      	cmp	r1, #0
 8003bbe:	4b14      	ldr	r3, [pc, #80]	@ (8003c10 <floorf+0x80>)
 8003bc0:	bf08      	it	eq
 8003bc2:	f04f 4300 	moveq.w	r3, #2147483648	@ 0x80000000
 8003bc6:	ee00 3a10 	vmov	s0, r3
 8003bca:	4770      	bx	lr
 8003bcc:	4911      	ldr	r1, [pc, #68]	@ (8003c14 <floorf+0x84>)
 8003bce:	4111      	asrs	r1, r2
 8003bd0:	420b      	tst	r3, r1
 8003bd2:	d0fa      	beq.n	8003bca <floorf+0x3a>
 8003bd4:	eddf 7a0d 	vldr	s15, [pc, #52]	@ 8003c0c <floorf+0x7c>
 8003bd8:	ee30 0a27 	vadd.f32	s0, s0, s15
 8003bdc:	eeb5 0ac0 	vcmpe.f32	s0, #0.0
 8003be0:	eef1 fa10 	vmrs	APSR_nzcv, fpscr
 8003be4:	ddef      	ble.n	8003bc6 <floorf+0x36>
 8003be6:	2b00      	cmp	r3, #0
 8003be8:	bfbe      	ittt	lt
 8003bea:	f44f 0000 	movlt.w	r0, #8388608	@ 0x800000
 8003bee:	fa40 f202 	asrlt.w	r2, r0, r2
 8003bf2:	189b      	addlt	r3, r3, r2
 8003bf4:	ea23 0301 	bic.w	r3, r3, r1
 8003bf8:	e7e5      	b.n	8003bc6 <floorf+0x36>
 8003bfa:	f1b1 4fff 	cmp.w	r1, #2139095040	@ 0x7f800000
 8003bfe:	d3e4      	bcc.n	8003bca <floorf+0x3a>
 8003c00:	ee30 0a00 	vadd.f32	s0, s0, s0
 8003c04:	4770      	bx	lr
 8003c06:	2300      	movs	r3, #0
 8003c08:	e7dd      	b.n	8003bc6 <floorf+0x36>
 8003c0a:	bf00      	nop
 8003c0c:	7149f2ca 	.word	0x7149f2ca
 8003c10:	bf800000 	.word	0xbf800000
 8003c14:	007fffff 	.word	0x007fffff

08003c18 <_init>:
 8003c18:	b5f8      	push	{r3, r4, r5, r6, r7, lr}
 8003c1a:	bf00      	nop
 8003c1c:	bcf8      	pop	{r3, r4, r5, r6, r7}
 8003c1e:	bc08      	pop	{r3}
 8003c20:	469e      	mov	lr, r3
 8003c22:	4770      	bx	lr

08003c24 <_fini>:
 8003c24:	b5f8      	push	{r3, r4, r5, r6, r7, lr}
 8003c26:	bf00      	nop
 8003c28:	bcf8      	pop	{r3, r4, r5, r6, r7}
 8003c2a:	bc08      	pop	{r3}
 8003c2c:	469e      	mov	lr, r3
 8003c2e:	4770      	bx	lr
